---
triple:          'arm64-apple-darwin'
binary-path:     '/Users/xudong/opensource/effect-log/target/debug/deps/libeffect_log_native.dylib'
relocations:
  - { offset: 0x1E, size: 0x8, addend: 0x0, symName: '__ZN4core3ptr9const_ptr33_$LT$impl$u20$$BP$const$u20$T$GT$7is_null17h147d58c4bdb20ca6E', symObjAddr: 0x0, symBinAddr: 0x908, symSize: 0x18 }
  - { offset: 0x81D, size: 0x8, addend: 0x0, symName: '__ZN4core3ptr9const_ptr33_$LT$impl$u20$$BP$const$u20$T$GT$7is_null17h147d58c4bdb20ca6E', symObjAddr: 0x0, symBinAddr: 0x908, symSize: 0x18 }
  - { offset: 0xDE7, size: 0x8, addend: 0x0, symName: '__ZN4core5slice29_$LT$impl$u20$$u5b$T$u5d$$GT$15copy_from_slice17hd52dd1edfeadfbfdE', symObjAddr: 0x18, symBinAddr: 0x920, symSize: 0xAC }
  - { offset: 0xEB2, size: 0x8, addend: 0x0, symName: '__ZN4core5slice29_$LT$impl$u20$$u5b$T$u5d$$GT$18split_at_unchecked17h9e823ce0de91ce53E', symObjAddr: 0xC4, symBinAddr: 0x9CC, symSize: 0xEC }
  - { offset: 0x103E, size: 0x8, addend: 0x0, symName: '__ZN4core5slice29_$LT$impl$u20$$u5b$T$u5d$$GT$8split_at17hf9014fec7d730f2cE', symObjAddr: 0x1B0, symBinAddr: 0xAB8, symSize: 0xD8 }
  - { offset: 0x3624, size: 0x8, addend: 0x0, symName: __ZN4core6option6Option4Some17h87999c1d5a993339E, symObjAddr: 0xB24, symBinAddr: 0x142C, symSize: 0x1C }
  - { offset: 0x365E, size: 0x8, addend: 0x0, symName: '__ZN68_$LT$core..option..Option$LT$T$GT$$u20$as$u20$core..clone..Clone$GT$5clone17h1d7203bd3e5ec993E', symObjAddr: 0xB40, symBinAddr: 0x1448, symSize: 0x64 }
  - { offset: 0x36B3, size: 0x8, addend: 0x0, symName: '__ZN68_$LT$core..option..Option$LT$T$GT$$u20$as$u20$core..clone..Clone$GT$5clone17he7107c40e06b5458E', symObjAddr: 0xBA4, symBinAddr: 0x14AC, symSize: 0x64 }
  - { offset: 0x5032, size: 0x8, addend: 0x0, symName: '__ZN86_$LT$core..option..Option$LT$T$GT$$u20$as$u20$pyo3..impl_..wrap..SomeWrap$LT$T$GT$$GT$4wrap17h31cb8aff08521bc1E', symObjAddr: 0xC08, symBinAddr: 0x1510, symSize: 0x14 }
  - { offset: 0x8285, size: 0x8, addend: 0x0, symName: '__ZN4core6option15Option$LT$T$GT$10ok_or_else17h26370fcd94638c69E', symObjAddr: 0x288, symBinAddr: 0xB90, symSize: 0x80 }
  - { offset: 0x9488, size: 0x8, addend: 0x0, symName: '__ZN4core6option15Option$LT$T$GT$10ok_or_else17h4169b97b8df37b3dE', symObjAddr: 0x308, symBinAddr: 0xC10, symSize: 0x94 }
  - { offset: 0x953C, size: 0x8, addend: 0x0, symName: '__ZN4core6option15Option$LT$T$GT$10ok_or_else17h87e20b7116313e09E', symObjAddr: 0x39C, symBinAddr: 0xCA4, symSize: 0x88 }
  - { offset: 0x963E, size: 0x8, addend: 0x0, symName: '__ZN4core6option15Option$LT$T$GT$10ok_or_else17hb7c33ecb60685ae9E', symObjAddr: 0x424, symBinAddr: 0xD2C, symSize: 0x90 }
  - { offset: 0x9902, size: 0x8, addend: 0x0, symName: '__ZN4core6option15Option$LT$T$GT$3map17h473b3fdd036cdec5E', symObjAddr: 0x4B4, symBinAddr: 0xDBC, symSize: 0x78 }
  - { offset: 0x997A, size: 0x8, addend: 0x0, symName: '__ZN4core6option15Option$LT$T$GT$3map17h5b1240a1722e89fbE', symObjAddr: 0x52C, symBinAddr: 0xE34, symSize: 0x5C }
  - { offset: 0x9AD6, size: 0x8, addend: 0x0, symName: '__ZN4core6option15Option$LT$T$GT$3map17hb27057e842a5d1e0E', symObjAddr: 0x588, symBinAddr: 0xE90, symSize: 0x5C }
  - { offset: 0x9B41, size: 0x8, addend: 0x0, symName: '__ZN4core6option15Option$LT$T$GT$3map17hb49ae129aad7f3ddE', symObjAddr: 0x5E4, symBinAddr: 0xEEC, symSize: 0x5C }
  - { offset: 0x9BB9, size: 0x8, addend: 0x0, symName: '__ZN4core6option15Option$LT$T$GT$3map17hd1074578f68c6bf0E', symObjAddr: 0x640, symBinAddr: 0xF48, symSize: 0x50 }
  - { offset: 0x9C31, size: 0x8, addend: 0x0, symName: '__ZN4core6option15Option$LT$T$GT$3map17hfd77831beb584cb8E', symObjAddr: 0x690, symBinAddr: 0xF98, symSize: 0x50 }
  - { offset: 0x9CEE, size: 0x8, addend: 0x0, symName: '__ZN4core6option15Option$LT$T$GT$4take17ha554264bafed5ac9E', symObjAddr: 0x6E0, symBinAddr: 0xFE8, symSize: 0x40 }
  - { offset: 0x9D52, size: 0x8, addend: 0x0, symName: '__ZN4core6option15Option$LT$T$GT$6as_ref17h2fa20010edd582d9E', symObjAddr: 0x720, symBinAddr: 0x1028, symSize: 0x50 }
  - { offset: 0x9DA9, size: 0x8, addend: 0x0, symName: '__ZN4core6option15Option$LT$T$GT$6as_ref17h356b690e9e3084cdE', symObjAddr: 0x770, symBinAddr: 0x1078, symSize: 0x4C }
  - { offset: 0x9E00, size: 0x8, addend: 0x0, symName: '__ZN4core6option15Option$LT$T$GT$6as_ref17haa88098026667575E', symObjAddr: 0x7BC, symBinAddr: 0x10C4, symSize: 0x4C }
  - { offset: 0x9E75, size: 0x8, addend: 0x0, symName: '__ZN4core6option15Option$LT$T$GT$6expect17hb9437ad1acd9b964E', symObjAddr: 0x808, symBinAddr: 0x1110, symSize: 0x5C }
  - { offset: 0x9EB0, size: 0x8, addend: 0x0, symName: '__ZN4core6option15Option$LT$T$GT$6expect17hd9cd4e18847b39a4E', symObjAddr: 0x864, symBinAddr: 0x116C, symSize: 0x5C }
  - { offset: 0xA975, size: 0x8, addend: 0x0, symName: '__ZN4core6option15Option$LT$T$GT$6insert17h29a6e476f41f4602E', symObjAddr: 0x8C0, symBinAddr: 0x11C8, symSize: 0xAC }
  - { offset: 0xAA77, size: 0x8, addend: 0x0, symName: '__ZN4core6option15Option$LT$T$GT$6insert17h8695f9732ba502f1E', symObjAddr: 0x96C, symBinAddr: 0x1274, symSize: 0xAC }
  - { offset: 0xAB16, size: 0x8, addend: 0x0, symName: '__ZN4core6option15Option$LT$T$GT$7is_some17h4c8d346d1a8698c2E', symObjAddr: 0xA18, symBinAddr: 0x1320, symSize: 0x28 }
  - { offset: 0xAB4F, size: 0x8, addend: 0x0, symName: '__ZN4core6option15Option$LT$T$GT$7replace17hf9c8e545aa78b6f6E', symObjAddr: 0xA40, symBinAddr: 0x1348, symSize: 0x30 }
  - { offset: 0xAC37, size: 0x8, addend: 0x0, symName: '__ZN4core6option15Option$LT$T$GT$8as_deref17h9ad0adcb74a508f5E', symObjAddr: 0xA70, symBinAddr: 0x1378, symSize: 0x6C }
  - { offset: 0xACE1, size: 0x8, addend: 0x0, symName: '__ZN4core6option15Option$LT$T$GT$9unwrap_or17hd1e2c7cab792b955E', symObjAddr: 0xADC, symBinAddr: 0x13E4, symSize: 0x48 }
  - { offset: 0xAD72, size: 0x8, addend: 0x0, symName: __ZN5tokio4task4coop12poll_proceed17h357f3d3a74bd0f5dE, symObjAddr: 0x0, symBinAddr: 0x1524, symSize: 0x138 }
  - { offset: 0xAD8E, size: 0x8, addend: 0x0, symName: __ZN5tokio4task4coop12poll_proceed17h357f3d3a74bd0f5dE, symObjAddr: 0x0, symBinAddr: 0x1524, symSize: 0x138 }
  - { offset: 0xB1B9, size: 0x8, addend: 0x0, symName: '__ZN10serde_json3map59Map$LT$alloc..string..String$C$serde_json..value..Value$GT$3new17hdaebc97f9c474510E', symObjAddr: 0x0, symBinAddr: 0x165C, symSize: 0x38 }
  - { offset: 0xB22A, size: 0x8, addend: 0x0, symName: '__ZN115_$LT$serde_json..map..Map$LT$alloc..string..String$C$serde_json..value..Value$GT$$u20$as$u20$core..clone..Clone$GT$5clone17h54813306c3f60725E', symObjAddr: 0x5C, symBinAddr: 0x16B8, symSize: 0x40 }
  - { offset: 0xB25E, size: 0x8, addend: 0x0, symName: '__ZN117_$LT$serde_json..map..Map$LT$alloc..string..String$C$serde_json..value..Value$GT$$u20$as$u20$core..cmp..PartialEq$GT$2eq17h96cf5604183571bbE', symObjAddr: 0x9C, symBinAddr: 0x16F8, symSize: 0x2C }
  - { offset: 0xBB0C, size: 0x8, addend: 0x0, symName: '__ZN10serde_json3map59Map$LT$alloc..string..String$C$serde_json..value..Value$GT$3new17hdaebc97f9c474510E', symObjAddr: 0x0, symBinAddr: 0x165C, symSize: 0x38 }
  - { offset: 0xBB2C, size: 0x8, addend: 0x0, symName: '__ZN10serde_json3map59Map$LT$alloc..string..String$C$serde_json..value..Value$GT$6insert17h65d13e429fd2d832E', symObjAddr: 0x38, symBinAddr: 0x1694, symSize: 0x24 }
  - { offset: 0xBB97, size: 0x8, addend: 0x0, symName: __ZN15effect_log_core8registry11ToolBuilder3new17ha8d5798f3e34c0e6E, symObjAddr: 0x0, symBinAddr: 0x1724, symSize: 0x10C }
  - { offset: 0xC28D, size: 0x8, addend: 0x0, symName: __ZN15effect_log_core8registry11ToolBuilder3new17ha8d5798f3e34c0e6E, symObjAddr: 0x0, symBinAddr: 0x1724, symSize: 0x10C }
  - { offset: 0xC2E4, size: 0x8, addend: 0x0, symName: '__ZN59_$LT$F$u20$as$u20$core..future..into_future..IntoFuture$GT$11into_future17h4dfdcae7d467ad75E', symObjAddr: 0x0, symBinAddr: 0x1830, symSize: 0x30 }
  - { offset: 0xC621, size: 0x8, addend: 0x0, symName: '__ZN59_$LT$F$u20$as$u20$core..future..into_future..IntoFuture$GT$11into_future17h4dfdcae7d467ad75E', symObjAddr: 0x0, symBinAddr: 0x1830, symSize: 0x30 }
  - { offset: 0xC657, size: 0x8, addend: 0x0, symName: '__ZN59_$LT$F$u20$as$u20$core..future..into_future..IntoFuture$GT$11into_future17h856eca570e4e1c4fE', symObjAddr: 0x30, symBinAddr: 0x1860, symSize: 0x30 }
  - { offset: 0xC68D, size: 0x8, addend: 0x0, symName: '__ZN59_$LT$F$u20$as$u20$core..future..into_future..IntoFuture$GT$11into_future17h8593c5d6fbdb8026E', symObjAddr: 0x60, symBinAddr: 0x1890, symSize: 0x30 }
  - { offset: 0xC6C3, size: 0x8, addend: 0x0, symName: '__ZN59_$LT$F$u20$as$u20$core..future..into_future..IntoFuture$GT$11into_future17h9024c4785a9cc90dE', symObjAddr: 0x90, symBinAddr: 0x18C0, symSize: 0x30 }
  - { offset: 0xC6F9, size: 0x8, addend: 0x0, symName: '__ZN59_$LT$F$u20$as$u20$core..future..into_future..IntoFuture$GT$11into_future17hae361d98db0df1feE', symObjAddr: 0xC0, symBinAddr: 0x18F0, symSize: 0x30 }
  - { offset: 0xC72F, size: 0x8, addend: 0x0, symName: '__ZN59_$LT$F$u20$as$u20$core..future..into_future..IntoFuture$GT$11into_future17hbf80a231edc9902eE', symObjAddr: 0xF0, symBinAddr: 0x1920, symSize: 0x30 }
  - { offset: 0xDEAD, size: 0x8, addend: 0x0, symName: '__ZN5tokio4sync5mutex14Mutex$LT$T$GT$4lock28_$u7b$$u7b$closure$u7d$$u7d$28_$u7b$$u7b$closure$u7d$$u7d$17h1bd1d606ac58c098E', symObjAddr: 0x5E4, symBinAddr: 0x1E14, symSize: 0x1BC }
  - { offset: 0xDF39, size: 0x8, addend: 0x0, symName: '__ZN5tokio4sync5mutex14Mutex$LT$T$GT$4lock28_$u7b$$u7b$closure$u7d$$u7d$28_$u7b$$u7b$closure$u7d$$u7d$17h5c726861fe47a6ecE', symObjAddr: 0x7A0, symBinAddr: 0x1FD0, symSize: 0x1BC }
  - { offset: 0xE07A, size: 0x8, addend: 0x0, symName: '__ZN5tokio4sync5mutex14Mutex$LT$T$GT$4lock28_$u7b$$u7b$closure$u7d$$u7d$17h46105ab5da167e67E', symObjAddr: 0x234, symBinAddr: 0x1A64, symSize: 0x1D8 }
  - { offset: 0xE133, size: 0x8, addend: 0x0, symName: '__ZN5tokio4sync5mutex14Mutex$LT$T$GT$4lock28_$u7b$$u7b$closure$u7d$$u7d$17hbf81bb3de3a4a8d2E', symObjAddr: 0x40C, symBinAddr: 0x1C3C, symSize: 0x1D8 }
  - { offset: 0xE3CE, size: 0x8, addend: 0x0, symName: '__ZN5tokio4sync5mutex14Mutex$LT$T$GT$7acquire28_$u7b$$u7b$closure$u7d$$u7d$17h0b9b2cc47ec59780E', symObjAddr: 0x994, symBinAddr: 0x21C4, symSize: 0x314 }
  - { offset: 0xE4AB, size: 0x8, addend: 0x0, symName: '__ZN5tokio4sync5mutex14Mutex$LT$T$GT$7acquire28_$u7b$$u7b$closure$u7d$$u7d$17h2d2aecb3c840dc75E', symObjAddr: 0xCA8, symBinAddr: 0x24D8, symSize: 0x314 }
  - { offset: 0xE58D, size: 0x8, addend: 0x0, symName: '__ZN5tokio4sync5mutex14Mutex$LT$T$GT$7acquire28_$u7b$$u7b$closure$u7d$$u7d$28_$u7b$$u7b$closure$u7d$$u7d$17h7f44c4728bf88164E', symObjAddr: 0xFBC, symBinAddr: 0x27EC, symSize: 0x28 }
  - { offset: 0xE5C7, size: 0x8, addend: 0x0, symName: '__ZN5tokio4sync5mutex14Mutex$LT$T$GT$7acquire28_$u7b$$u7b$closure$u7d$$u7d$28_$u7b$$u7b$closure$u7d$$u7d$17h90d6cacca77d7ef8E', symObjAddr: 0xFE4, symBinAddr: 0x2814, symSize: 0x28 }
  - { offset: 0xE617, size: 0x8, addend: 0x0, symName: '__ZN83_$LT$tokio..sync..mutex..MutexGuard$LT$T$GT$$u20$as$u20$core..ops..deref..Deref$GT$5deref17hae944788dedd713fE', symObjAddr: 0x100C, symBinAddr: 0x283C, symSize: 0x24 }
  - { offset: 0xE654, size: 0x8, addend: 0x0, symName: '__ZN86_$LT$tokio..sync..mutex..MutexGuard$LT$T$GT$$u20$as$u20$core..ops..deref..DerefMut$GT$9deref_mut17h0ed1763c859299b4E', symObjAddr: 0x1030, symBinAddr: 0x2860, symSize: 0x24 }
  - { offset: 0xF1E4, size: 0x8, addend: 0x0, symName: '__ZN5tokio4sync5mutex14Mutex$LT$T$GT$3new17he5e1469a8d3bb73eE', symObjAddr: 0x120, symBinAddr: 0x1950, symSize: 0xDC }
  - { offset: 0xF321, size: 0x8, addend: 0x0, symName: '__ZN5tokio4sync5mutex14Mutex$LT$T$GT$4lock17h385a97646504bc3eE', symObjAddr: 0x1FC, symBinAddr: 0x1A2C, symSize: 0x1C }
  - { offset: 0xF35A, size: 0x8, addend: 0x0, symName: '__ZN5tokio4sync5mutex14Mutex$LT$T$GT$4lock17hd6961d4094879bcbE', symObjAddr: 0x218, symBinAddr: 0x1A48, symSize: 0x1C }
  - { offset: 0xF42A, size: 0x8, addend: 0x0, symName: '__ZN5tokio4sync5mutex14Mutex$LT$T$GT$7acquire17h8ca9537a5a26d685E', symObjAddr: 0x95C, symBinAddr: 0x218C, symSize: 0x1C }
  - { offset: 0xF456, size: 0x8, addend: 0x0, symName: '__ZN5tokio4sync5mutex14Mutex$LT$T$GT$7acquire17he1f4ec589661356aE', symObjAddr: 0x978, symBinAddr: 0x21A8, symSize: 0x1C }
  - { offset: 0xF526, size: 0x8, addend: 0x0, symName: '__ZN9hashbrown3raw21RawTable$LT$T$C$A$GT$12remove_entry17hee1d99faf9552290E', symObjAddr: 0x0, symBinAddr: 0x2884, symSize: 0xB0 }
  - { offset: 0xF562, size: 0x8, addend: 0x0, symName: '__ZN9hashbrown3raw21RawTable$LT$T$C$A$GT$14reserve_rehash28_$u7b$$u7b$closure$u7d$$u7d$17h1341be9e1a93f554E', symObjAddr: 0xC20, symBinAddr: 0x2C6C, symSize: 0x30 }
  - { offset: 0xF5B2, size: 0x8, addend: 0x0, symName: '__ZN9hashbrown3raw21RawTable$LT$T$C$A$GT$14reserve_rehash28_$u7b$$u7b$closure$u7d$$u7d$17hb9bd734616332edfE', symObjAddr: 0xC50, symBinAddr: 0x2C9C, symSize: 0xC8 }
  - { offset: 0xF77C, size: 0x8, addend: 0x0, symName: '__ZN9hashbrown3raw21RawTable$LT$T$C$A$GT$24find_or_find_insert_slot28_$u7b$$u7b$closure$u7d$$u7d$17hc7b7562cc4781f96E', symObjAddr: 0xE58, symBinAddr: 0x2EA4, symSize: 0xCC }
  - { offset: 0xF94F, size: 0x8, addend: 0x0, symName: '__ZN9hashbrown3raw21RawTable$LT$T$C$A$GT$4find28_$u7b$$u7b$closure$u7d$$u7d$17hfb9ce8cfa749550aE', symObjAddr: 0x1254, symBinAddr: 0x32A0, symSize: 0xCC }
  - { offset: 0x1297A, size: 0x8, addend: 0x0, symName: '__ZN9hashbrown3raw21RawTable$LT$T$C$A$GT$12remove_entry17hee1d99faf9552290E', symObjAddr: 0x0, symBinAddr: 0x2884, symSize: 0xB0 }
  - { offset: 0x12AB9, size: 0x8, addend: 0x0, symName: '__ZN9hashbrown3raw21RawTable$LT$T$C$A$GT$13erase_no_drop17h5eaaee634e2f0aa5E', symObjAddr: 0xB0, symBinAddr: 0x2934, symSize: 0x94 }
  - { offset: 0x12E8E, size: 0x8, addend: 0x0, symName: '__ZN9hashbrown3raw21RawTable$LT$T$C$A$GT$14insert_in_slot17h274068ec468e54b0E', symObjAddr: 0x144, symBinAddr: 0x29C8, symSize: 0x140 }
  - { offset: 0x13357, size: 0x8, addend: 0x0, symName: '__ZN9hashbrown3raw21RawTable$LT$T$C$A$GT$14insert_no_grow17h770bbbc0e78469b6E', symObjAddr: 0x284, symBinAddr: 0x2B08, symSize: 0x164 }
  - { offset: 0x13B58, size: 0x8, addend: 0x0, symName: '__ZN9hashbrown3raw21RawTable$LT$T$C$A$GT$14reserve_rehash17h6a9e6cb6a606d726E', symObjAddr: 0x3E8, symBinAddr: 0x356320, symSize: 0x838 }
  - { offset: 0x14669, size: 0x8, addend: 0x0, symName: '__ZN9hashbrown3raw21RawTable$LT$T$C$A$GT$24find_or_find_insert_slot17hd6eee9652513763bE', symObjAddr: 0xD18, symBinAddr: 0x2D64, symSize: 0x140 }
  - { offset: 0x14C2B, size: 0x8, addend: 0x0, symName: '__ZN9hashbrown3raw21RawTable$LT$T$C$A$GT$4find17he764d1d7a01dea50E', symObjAddr: 0xF24, symBinAddr: 0x2F70, symSize: 0x330 }
  - { offset: 0x152E5, size: 0x8, addend: 0x0, symName: '__ZN9hashbrown3raw21RawTable$LT$T$C$A$GT$6remove17h9281d2a6f6161731E', symObjAddr: 0x1320, symBinAddr: 0x336C, symSize: 0x120 }
  - { offset: 0x1551F, size: 0x8, addend: 0x0, symName: '__ZN9hashbrown3raw21RawTable$LT$T$C$A$GT$7reserve17h67958cdbf2635e50E', symObjAddr: 0x1440, symBinAddr: 0x348C, symSize: 0xCC }
  - { offset: 0x15615, size: 0x8, addend: 0x0, symName: '__ZN116_$LT$$RF$pyo3..impl_..pyclass..PyClassImplCollector$LT$T$GT$$u20$as$u20$pyo3..impl_..pyclass..PyMethods$LT$T$GT$$GT$10py_methods17hd7df0b6300691233E', symObjAddr: 0x0, symBinAddr: 0x3558, symSize: 0x18 }
  - { offset: 0x1AB2B, size: 0x8, addend: 0x0, symName: '__ZN116_$LT$$RF$pyo3..impl_..pyclass..PyClassImplCollector$LT$T$GT$$u20$as$u20$pyo3..impl_..pyclass..PyMethods$LT$T$GT$$GT$10py_methods17hd7df0b6300691233E', symObjAddr: 0x0, symBinAddr: 0x3558, symSize: 0x18 }
  - { offset: 0x1AB68, size: 0x8, addend: 0x0, symName: '__ZN118_$LT$pyo3..impl_..pyclass..SendablePyClass$LT$T$GT$$u20$as$u20$pyo3..impl_..pyclass..PyClassThreadChecker$LT$T$GT$$GT$3new17h2683a82329833771E', symObjAddr: 0x18, symBinAddr: 0x3570, symSize: 0x4 }
  - { offset: 0x1AB8C, size: 0x8, addend: 0x0, symName: '__ZN118_$LT$pyo3..impl_..pyclass..SendablePyClass$LT$T$GT$$u20$as$u20$pyo3..impl_..pyclass..PyClassThreadChecker$LT$T$GT$$GT$3new17h4fe9037156385ca5E', symObjAddr: 0x1C, symBinAddr: 0x3574, symSize: 0x4 }
  - { offset: 0x1ABB0, size: 0x8, addend: 0x0, symName: '__ZN118_$LT$pyo3..impl_..pyclass..SendablePyClass$LT$T$GT$$u20$as$u20$pyo3..impl_..pyclass..PyClassThreadChecker$LT$T$GT$$GT$3new17h7aaed052279b85e8E', symObjAddr: 0x20, symBinAddr: 0x3578, symSize: 0x4 }
  - { offset: 0x1ABD4, size: 0x8, addend: 0x0, symName: '__ZN118_$LT$pyo3..impl_..pyclass..SendablePyClass$LT$T$GT$$u20$as$u20$pyo3..impl_..pyclass..PyClassThreadChecker$LT$T$GT$$GT$6ensure17h4220b9bc3720fdd0E', symObjAddr: 0x24, symBinAddr: 0x357C, symSize: 0x10 }
  - { offset: 0x1AC07, size: 0x8, addend: 0x0, symName: '__ZN118_$LT$pyo3..impl_..pyclass..SendablePyClass$LT$T$GT$$u20$as$u20$pyo3..impl_..pyclass..PyClassThreadChecker$LT$T$GT$$GT$6ensure17h461b33b6462884a9E', symObjAddr: 0x34, symBinAddr: 0x358C, symSize: 0x10 }
  - { offset: 0x1AC3A, size: 0x8, addend: 0x0, symName: '__ZN118_$LT$pyo3..impl_..pyclass..SendablePyClass$LT$T$GT$$u20$as$u20$pyo3..impl_..pyclass..PyClassThreadChecker$LT$T$GT$$GT$6ensure17he282d2a6c8558043E', symObjAddr: 0x44, symBinAddr: 0x359C, symSize: 0x10 }
  - { offset: 0x1AC6D, size: 0x8, addend: 0x0, symName: '__ZN118_$LT$pyo3..impl_..pyclass..SendablePyClass$LT$T$GT$$u20$as$u20$pyo3..impl_..pyclass..PyClassThreadChecker$LT$T$GT$$GT$8can_drop17h7d7262affa7e760aE', symObjAddr: 0x54, symBinAddr: 0x35AC, symSize: 0x18 }
  - { offset: 0x1ACBF, size: 0x8, addend: 0x0, symName: '__ZN118_$LT$pyo3..impl_..pyclass..SendablePyClass$LT$T$GT$$u20$as$u20$pyo3..impl_..pyclass..PyClassThreadChecker$LT$T$GT$$GT$8can_drop17hd34972a19f71bc2cE', symObjAddr: 0x6C, symBinAddr: 0x35C4, symSize: 0x18 }
  - { offset: 0x1AD11, size: 0x8, addend: 0x0, symName: '__ZN118_$LT$pyo3..impl_..pyclass..SendablePyClass$LT$T$GT$$u20$as$u20$pyo3..impl_..pyclass..PyClassThreadChecker$LT$T$GT$$GT$8can_drop17hf0bf0cc2881a9cb7E', symObjAddr: 0x84, symBinAddr: 0x35DC, symSize: 0x18 }
  - { offset: 0x1AD69, size: 0x8, addend: 0x0, symName: '__ZN130_$LT$$RF$pyo3..impl_..pyclass..PyClassImplCollector$LT$T$GT$$u20$as$u20$pyo3..impl_..pyclass..PyClassNewTextSignature$LT$T$GT$$GT$18new_text_signature17hf2c31553b0280ae6E', symObjAddr: 0x9C, symBinAddr: 0x35F4, symSize: 0x1C }
  - { offset: 0x1ADA1, size: 0x8, addend: 0x0, symName: __ZN4pyo35impl_7pyclass10tp_dealloc17h4ea933d3b279b54dE, symObjAddr: 0xB8, symBinAddr: 0x3610, symSize: 0x34 }
  - { offset: 0x1ADD4, size: 0x8, addend: 0x0, symName: __ZN4pyo35impl_7pyclass10tp_dealloc17ha0b5cf01e3da3455E, symObjAddr: 0xEC, symBinAddr: 0x3644, symSize: 0x34 }
  - { offset: 0x1AE07, size: 0x8, addend: 0x0, symName: __ZN4pyo35impl_7pyclass10tp_dealloc17hd8929d6ab6e17049E, symObjAddr: 0x120, symBinAddr: 0x3678, symSize: 0x34 }
  - { offset: 0x1AE3F, size: 0x8, addend: 0x0, symName: __ZN4pyo35impl_7pyclass11PyClassDict10clear_dict17h3ebd63e9a17b8ec7E, symObjAddr: 0x154, symBinAddr: 0x36AC, symSize: 0x10 }
  - { offset: 0x1AE8F, size: 0x8, addend: 0x0, symName: __ZN4pyo35impl_7pyclass14PyClassWeakRef14clear_weakrefs17h3d7e123a317d85c1E, symObjAddr: 0x164, symBinAddr: 0x36BC, symSize: 0x14 }
  - { offset: 0x1AEE8, size: 0x8, addend: 0x0, symName: __ZN4pyo35impl_7pyclass18tp_dealloc_with_gc17h222bbb74f6392c7bE, symObjAddr: 0x178, symBinAddr: 0x36D0, symSize: 0x4C }
  - { offset: 0x1AF39, size: 0x8, addend: 0x0, symName: __ZN4pyo35impl_7pyclass18tp_dealloc_with_gc17h51a4e95703e1fba3E, symObjAddr: 0x1C4, symBinAddr: 0x371C, symSize: 0x4C }
  - { offset: 0x1AF8A, size: 0x8, addend: 0x0, symName: __ZN4pyo35impl_7pyclass18tp_dealloc_with_gc17h5ec8541586424641E, symObjAddr: 0x210, symBinAddr: 0x3768, symSize: 0x4C }
  - { offset: 0x1CB49, size: 0x8, addend: 0x0, symName: '__ZN4pyo35impl_7pyclass29PyClassImplCollector$LT$T$GT$3new17h30ed6f336aa8117cE', symObjAddr: 0x25C, symBinAddr: 0x37B4, symSize: 0x4 }
  - { offset: 0x1E25F, size: 0x8, addend: 0x0, symName: '__ZN4pyo35impl_7pyclass29PyClassImplCollector$LT$T$GT$3new17hbd751af25ade59daE', symObjAddr: 0x260, symBinAddr: 0x37B8, symSize: 0x4 }
  - { offset: 0x1E27C, size: 0x8, addend: 0x0, symName: '__ZN4pyo35impl_7pyclass29PyClassImplCollector$LT$T$GT$3new17hceccac8e0bac7ec8E', symObjAddr: 0x264, symBinAddr: 0x37BC, symSize: 0x4 }
  - { offset: 0x1E484, size: 0x8, addend: 0x0, symName: '__ZN103_$LT$pyo3..instance..Bound$LT$pyo3..types..any..PyAny$GT$$u20$as$u20$pyo3..types..any..PyAnyMethods$GT$7is_none17h93ba0fd681f604c5E', symObjAddr: 0x0, symBinAddr: 0x37C0, symSize: 0x44 }
  - { offset: 0x1FB9A, size: 0x8, addend: 0x0, symName: '__ZN103_$LT$pyo3..instance..Bound$LT$pyo3..types..any..PyAny$GT$$u20$as$u20$pyo3..types..any..PyAnyMethods$GT$7is_none17h93ba0fd681f604c5E', symObjAddr: 0x0, symBinAddr: 0x37C0, symSize: 0x44 }
  - { offset: 0x1FBE9, size: 0x8, addend: 0x0, symName: '__ZN119_$LT$pyo3..instance..Bound$LT$pyo3..types..typeobject..PyType$GT$$u20$as$u20$pyo3..types..typeobject..PyTypeMethods$GT$11as_type_ptr17hfa48383afee4017fE', symObjAddr: 0x44, symBinAddr: 0x3804, symSize: 0x24 }
  - { offset: 0x1FC36, size: 0x8, addend: 0x0, symName: '__ZN123_$LT$pyo3..instance..Bound$LT$pyo3..types..sequence..PySequence$GT$$u20$as$u20$pyo3..types..sequence..PySequenceMethods$GT$3len17h2a8c69a29b6b0090E', symObjAddr: 0x68, symBinAddr: 0x3828, symSize: 0xBC }
  - { offset: 0x1FCBE, size: 0x8, addend: 0x0, symName: '__ZN4pyo35types8iterator131_$LT$impl$u20$core..iter..traits..iterator..Iterator$u20$for$u20$pyo3..instance..Bound$LT$pyo3..types..iterator..PyIterator$GT$$GT$4next17h616f7eafd11659ddE', symObjAddr: 0x124, symBinAddr: 0x38E4, symSize: 0x30 }
  - { offset: 0x205AA, size: 0x8, addend: 0x0, symName: '__ZN4pyo38instance36Bound$LT$pyo3..types..any..PyAny$GT$14from_owned_ptr17h9816e77c3a7165a3E', symObjAddr: 0x154, symBinAddr: 0x3914, symSize: 0x2C }
  - { offset: 0x205F2, size: 0x8, addend: 0x0, symName: '__ZN4pyo38instance39Borrowed$LT$pyo3..types..any..PyAny$GT$15from_ptr_or_opt17h6878f766c7e8d2b4E', symObjAddr: 0x180, symBinAddr: 0x3940, symSize: 0x2C }
  - { offset: 0x20630, size: 0x8, addend: 0x0, symName: '__ZN4pyo38instance39Borrowed$LT$pyo3..types..any..PyAny$GT$18from_ptr_unchecked17h8a011c60cebff529E', symObjAddr: 0x1AC, symBinAddr: 0x396C, symSize: 0x2C }
  - { offset: 0x2066E, size: 0x8, addend: 0x0, symName: '__ZN4pyo38instance39Borrowed$LT$pyo3..types..any..PyAny$GT$8from_ptr17h75caf5e709a0d87cE', symObjAddr: 0x1D8, symBinAddr: 0x3998, symSize: 0x34 }
  - { offset: 0x208FA, size: 0x8, addend: 0x0, symName: '__ZN45_$LT$T$u20$as$u20$alloc..string..ToString$GT$9to_string17h625c9fbdf81679a8E', symObjAddr: 0x0, symBinAddr: 0x39CC, symSize: 0x24 }
  - { offset: 0x20949, size: 0x8, addend: 0x0, symName: '__ZN45_$LT$T$u20$as$u20$alloc..string..ToString$GT$9to_string17h625c9fbdf81679a8E', symObjAddr: 0x0, symBinAddr: 0x39CC, symSize: 0x24 }
  - { offset: 0x20980, size: 0x8, addend: 0x0, symName: '__ZN45_$LT$T$u20$as$u20$alloc..string..ToString$GT$9to_string17hab13919f5afdac9dE', symObjAddr: 0x24, symBinAddr: 0x39F0, symSize: 0x24 }
  - { offset: 0x209BD, size: 0x8, addend: 0x0, symName: '__ZN49_$LT$T$u20$as$u20$alloc..string..SpecToString$GT$14spec_to_string17h77c1dbb7a818d487E', symObjAddr: 0x48, symBinAddr: 0x3A14, symSize: 0xF4 }
  - { offset: 0x20A87, size: 0x8, addend: 0x0, symName: '__ZN49_$LT$T$u20$as$u20$alloc..string..SpecToString$GT$14spec_to_string17he1c53a133bd34396E', symObjAddr: 0x13C, symBinAddr: 0x3B08, symSize: 0xF4 }
  - { offset: 0x210F8, size: 0x8, addend: 0x0, symName: '__ZN4pyo311conversions3std6string68_$LT$impl$u20$pyo3..conversion..IntoPyObject$u20$for$u20$$RF$str$GT$13into_pyobject17h9bf10ad56ddb52a6E', symObjAddr: 0x0, symBinAddr: 0x3BFC, symSize: 0x30 }
  - { offset: 0x222D8, size: 0x8, addend: 0x0, symName: '__ZN4pyo311conversions3std6string68_$LT$impl$u20$pyo3..conversion..IntoPyObject$u20$for$u20$$RF$str$GT$13into_pyobject17h9bf10ad56ddb52a6E', symObjAddr: 0x0, symBinAddr: 0x3BFC, symSize: 0x30 }
  - { offset: 0x2290F, size: 0x8, addend: 0x0, symName: '__ZN102_$LT$core..iter..adapters..zip..Zip$LT$A$C$B$GT$$u20$as$u20$core..iter..traits..iterator..Iterator$GT$4next17ha867ff86703b5aa7E', symObjAddr: 0x0, symBinAddr: 0x3C2C, symSize: 0x24 }
  - { offset: 0x230E1, size: 0x8, addend: 0x0, symName: '__ZN102_$LT$core..iter..adapters..zip..Zip$LT$A$C$B$GT$$u20$as$u20$core..iter..traits..iterator..Iterator$GT$4next17ha867ff86703b5aa7E', symObjAddr: 0x0, symBinAddr: 0x3C2C, symSize: 0x24 }
  - { offset: 0x2311F, size: 0x8, addend: 0x0, symName: '__ZN102_$LT$core..iter..adapters..zip..Zip$LT$A$C$B$GT$$u20$as$u20$core..iter..traits..iterator..Iterator$GT$4next17hea408d73d2e11b21E', symObjAddr: 0x24, symBinAddr: 0x3C50, symSize: 0x24 }
  - { offset: 0x23163, size: 0x8, addend: 0x0, symName: '__ZN111_$LT$core..iter..adapters..zip..Zip$LT$A$C$B$GT$$u20$as$u20$core..iter..adapters..zip..ZipImpl$LT$A$C$B$GT$$GT$3new17h17606f5445314fb9E', symObjAddr: 0x48, symBinAddr: 0x3C74, symSize: 0x40 }
  - { offset: 0x231AF, size: 0x8, addend: 0x0, symName: '__ZN111_$LT$core..iter..adapters..zip..Zip$LT$A$C$B$GT$$u20$as$u20$core..iter..adapters..zip..ZipImpl$LT$A$C$B$GT$$GT$3new17hfb5f9edc88e73064E', symObjAddr: 0x88, symBinAddr: 0x3CB4, symSize: 0x68 }
  - { offset: 0x231FD, size: 0x8, addend: 0x0, symName: '__ZN111_$LT$core..iter..adapters..zip..Zip$LT$A$C$B$GT$$u20$as$u20$core..iter..adapters..zip..ZipImpl$LT$A$C$B$GT$$GT$4next17h52342da93925d299E', symObjAddr: 0xF0, symBinAddr: 0x3D1C, symSize: 0x14C }
  - { offset: 0x2335C, size: 0x8, addend: 0x0, symName: '__ZN111_$LT$core..iter..adapters..zip..Zip$LT$A$C$B$GT$$u20$as$u20$core..iter..adapters..zip..ZipImpl$LT$A$C$B$GT$$GT$4next17haff4bea9993e8e57E', symObjAddr: 0x23C, symBinAddr: 0x3E68, symSize: 0xE0 }
  - { offset: 0x235F0, size: 0x8, addend: 0x0, symName: __ZN4core4iter6traits8iterator8Iterator8try_fold17hd342cce86f0d6935E, symObjAddr: 0x31C, symBinAddr: 0x3F48, symSize: 0x14C }
  - { offset: 0x236CE, size: 0x8, addend: 0x0, symName: '__ZN63_$LT$I$u20$as$u20$core..iter..traits..collect..IntoIterator$GT$9into_iter17hce5843f5b332193fE', symObjAddr: 0x468, symBinAddr: 0x4094, symSize: 0x30 }
  - { offset: 0x23706, size: 0x8, addend: 0x0, symName: '__ZN63_$LT$I$u20$as$u20$core..iter..traits..collect..IntoIterator$GT$9into_iter17he55a2cdcbf155851E', symObjAddr: 0x498, symBinAddr: 0x40C4, symSize: 0x30 }
  - { offset: 0x2598A, size: 0x8, addend: 0x0, symName: __ZN4core3cmp9PartialEq2ne17hcf2699f3047d2dd1E, symObjAddr: 0x0, symBinAddr: 0x40F4, symSize: 0x30 }
  - { offset: 0x25BB8, size: 0x8, addend: 0x0, symName: __ZN4core3cmp9PartialEq2ne17hcf2699f3047d2dd1E, symObjAddr: 0x0, symBinAddr: 0x40F4, symSize: 0x30 }
  - { offset: 0x25C3A, size: 0x8, addend: 0x0, symName: '__ZN4core5slice29_$LT$impl$u20$$u5b$T$u5d$$GT$22split_at_mut_unchecked17h8c884ba203c1952bE', symObjAddr: 0x30, symBinAddr: 0x4124, symSize: 0x108 }
  - { offset: 0x25D8C, size: 0x8, addend: 0x0, symName: '__ZN4core5slice29_$LT$impl$u20$$u5b$T$u5d$$GT$4last17h6bb5f165b6ac1094E', symObjAddr: 0x138, symBinAddr: 0x422C, symSize: 0x58 }
  - { offset: 0x25E27, size: 0x8, addend: 0x0, symName: '__ZN4core5slice29_$LT$impl$u20$$u5b$T$u5d$$GT$7reverse17h921cc6e92093dd4aE', symObjAddr: 0x190, symBinAddr: 0x4284, symSize: 0x118 }
  - { offset: 0x26032, size: 0x8, addend: 0x0, symName: '__ZN68_$LT$T$u20$as$u20$core..slice..sort..stable..quicksort..IsFreeze$GT$9is_freeze17h13c6709dd63d8951E', symObjAddr: 0x2F0, symBinAddr: 0x43E4, symSize: 0xC }
  - { offset: 0x269EF, size: 0x8, addend: 0x0, symName: '__ZN5alloc5slice29_$LT$impl$u20$$u5b$T$u5d$$GT$11sort_by_key17h3e86578e105181ebE', symObjAddr: 0x2A8, symBinAddr: 0x439C, symSize: 0x48 }
  - { offset: 0x26E7A, size: 0x8, addend: 0x0, symName: '__ZN15effect_log_core7storage6sqlite11SqliteStore4open28_$u7b$$u7b$closure$u7d$$u7d$17h4eccee2a678e4ccbE', symObjAddr: 0x0, symBinAddr: 0x43F0, symSize: 0x434 }
  - { offset: 0x2867A, size: 0x8, addend: 0x0, symName: '__ZN59_$LT$F$u20$as$u20$core..future..into_future..IntoFuture$GT$11into_future17h5ffe3fb133ef8f33E', symObjAddr: 0x5D4, symBinAddr: 0x49C4, symSize: 0x30 }
  - { offset: 0x29C12, size: 0x8, addend: 0x0, symName: '__ZN15effect_log_core7storage6sqlite11SqliteStore4open28_$u7b$$u7b$closure$u7d$$u7d$28_$u7b$$u7b$closure$u7d$$u7d$17h0ea2a06a66022131E', symObjAddr: 0x434, symBinAddr: 0x4824, symSize: 0x78 }
  - { offset: 0x29C49, size: 0x8, addend: 0x0, symName: '__ZN15effect_log_core7storage6sqlite11SqliteStore4open28_$u7b$$u7b$closure$u7d$$u7d$28_$u7b$$u7b$closure$u7d$$u7d$17ha17c18577528bfd7E', symObjAddr: 0x4AC, symBinAddr: 0x489C, symSize: 0x78 }
  - { offset: 0x29C80, size: 0x8, addend: 0x0, symName: '__ZN15effect_log_core7storage6sqlite11SqliteStore4open28_$u7b$$u7b$closure$u7d$$u7d$28_$u7b$$u7b$closure$u7d$$u7d$17ha8245508a3dda09eE', symObjAddr: 0x524, symBinAddr: 0x4914, symSize: 0xB0 }
  - { offset: 0x29CE3, size: 0x8, addend: 0x0, symName: '__ZN15effect_log_core7storage6sqlite11SqliteStore4open28_$u7b$$u7b$closure$u7d$$u7d$17h4eccee2a678e4ccbE', symObjAddr: 0x0, symBinAddr: 0x43F0, symSize: 0x434 }
  - { offset: 0x2A556, size: 0x8, addend: 0x0, symName: '__ZN105_$LT$std..ffi..os_str..OsString$u20$as$u20$core..ops..index..Index$LT$core..ops..range..RangeFull$GT$$GT$5index17hbe722c8394845028E', symObjAddr: 0x0, symBinAddr: 0x49F4, symSize: 0x80 }
  - { offset: 0x2A5C8, size: 0x8, addend: 0x0, symName: '__ZN105_$LT$std..ffi..os_str..OsString$u20$as$u20$core..ops..index..Index$LT$core..ops..range..RangeFull$GT$$GT$5index17hbe722c8394845028E', symObjAddr: 0x0, symBinAddr: 0x49F4, symSize: 0x80 }
  - { offset: 0x2AB0F, size: 0x8, addend: 0x0, symName: '__ZN102_$LT$core..iter..adapters..map..Map$LT$I$C$F$GT$$u20$as$u20$core..iter..traits..iterator..Iterator$GT$8try_fold17h69eb4d0c1fb0bb16E', symObjAddr: 0x0, symBinAddr: 0x4A74, symSize: 0x4C }
  - { offset: 0x2AD47, size: 0x8, addend: 0x0, symName: '__ZN102_$LT$core..iter..adapters..map..Map$LT$I$C$F$GT$$u20$as$u20$core..iter..traits..iterator..Iterator$GT$8try_fold17h69eb4d0c1fb0bb16E', symObjAddr: 0x0, symBinAddr: 0x4A74, symSize: 0x4C }
  - { offset: 0x2ADCB, size: 0x8, addend: 0x0, symName: '__ZN4core4iter8adapters3map12map_try_fold28_$u7b$$u7b$closure$u7d$$u7d$17h8488e7c8e8696295E', symObjAddr: 0xB4, symBinAddr: 0x4B28, symSize: 0x11C }
  - { offset: 0x2AE64, size: 0x8, addend: 0x0, symName: '__ZN96_$LT$core..iter..adapters..map..Map$LT$I$C$F$GT$$u20$as$u20$core..iter..adapters..SourceIter$GT$8as_inner17h0a9a011799d93711E', symObjAddr: 0x2B4, symBinAddr: 0x4D28, symSize: 0x24 }
  - { offset: 0x2AEE7, size: 0x8, addend: 0x0, symName: __ZN4core4iter6traits8iterator8Iterator7collect17h876f21c1169d44aeE, symObjAddr: 0x4C, symBinAddr: 0x4AC0, symSize: 0x68 }
  - { offset: 0x2AF89, size: 0x8, addend: 0x0, symName: '__ZN63_$LT$I$u20$as$u20$core..iter..traits..collect..IntoIterator$GT$9into_iter17hb1d956da9841d31dE', symObjAddr: 0x1D0, symBinAddr: 0x4C44, symSize: 0x14 }
  - { offset: 0x2BC06, size: 0x8, addend: 0x0, symName: '__ZN83_$LT$I$u20$as$u20$alloc..vec..in_place_collect..SpecInPlaceCollect$LT$T$C$I$GT$$GT$16collect_in_place17h49cd989f36814710E', symObjAddr: 0x1E4, symBinAddr: 0x4C58, symSize: 0xD0 }
  - { offset: 0x2C4EF, size: 0x8, addend: 0x0, symName: __ZN4core9core_arch10arm_shared4neon9generated18vreinterpret_s8_u817hf826b754e2185585E, symObjAddr: 0x0, symBinAddr: 0x4D4C, symSize: 0xC }
  - { offset: 0x2C515, size: 0x8, addend: 0x0, symName: __ZN4core9core_arch10arm_shared4neon9generated18vreinterpret_s8_u817hf826b754e2185585E, symObjAddr: 0x0, symBinAddr: 0x4D4C, symSize: 0xC }
  - { offset: 0x2C543, size: 0x8, addend: 0x0, symName: __ZN4core9core_arch10arm_shared4neon9generated19vreinterpret_u64_u817hed1491f530c05664E, symObjAddr: 0xC, symBinAddr: 0x4D58, symSize: 0xC }
  - { offset: 0x2C571, size: 0x8, addend: 0x0, symName: __ZN4core9core_arch10arm_shared4neon9generated7vceq_u817h425540cd01240bb1E, symObjAddr: 0x18, symBinAddr: 0x4D64, symSize: 0x14 }
  - { offset: 0x2C5AE, size: 0x8, addend: 0x0, symName: __ZN4core9core_arch10arm_shared4neon9generated7vorr_u817h2b7e6ae157ae7920E, symObjAddr: 0x2C, symBinAddr: 0x4D78, symSize: 0x14 }
  - { offset: 0x2C5EB, size: 0x8, addend: 0x0, symName: __ZN4core9core_arch10arm_shared4neon9generated9vdup_n_u817h4a51f6f582f7d25aE, symObjAddr: 0x40, symBinAddr: 0x4D8C, symSize: 0x34 }
  - { offset: 0x2C755, size: 0x8, addend: 0x0, symName: __ZN4core5slice3raw14from_raw_parts18precondition_check17h40c3e75864587776E, symObjAddr: 0x0, symBinAddr: 0x4DC0, symSize: 0x1DC }
  - { offset: 0x2CCB8, size: 0x8, addend: 0x0, symName: __ZN4core5slice3raw14from_raw_parts18precondition_check17h40c3e75864587776E, symObjAddr: 0x0, symBinAddr: 0x4DC0, symSize: 0x1DC }
  - { offset: 0x2CE3C, size: 0x8, addend: 0x0, symName: __ZN4core5slice3raw18from_raw_parts_mut18precondition_check17hd5bcaeb7973be99bE, symObjAddr: 0x1DC, symBinAddr: 0x4F9C, symSize: 0x1DC }
  - { offset: 0x2D19F, size: 0x8, addend: 0x0, symName: _PyInit_effect_log_native, symObjAddr: 0x0, symBinAddr: 0x5178, symSize: 0x34 }
  - { offset: 0x2D1C4, size: 0x8, addend: 0x0, symName: __ZN17effect_log_native17effect_log_native9_PYO3_DEF17h3f415bff13eafacfE, symObjAddr: 0x70, symBinAddr: 0x47C5F8, symSize: 0x0 }
  - { offset: 0x2D1D1, size: 0x8, addend: 0x0, symName: _PyInit_effect_log_native, symObjAddr: 0x0, symBinAddr: 0x5178, symSize: 0x34 }
  - { offset: 0x2F289, size: 0x8, addend: 0x0, symName: __ZN3std9panicking12catch_unwind7do_call17h012d696240ee8506E, symObjAddr: 0x0, symBinAddr: 0x51AC, symSize: 0x80 }
  - { offset: 0x32505, size: 0x8, addend: 0x0, symName: __ZN3std9panicking12catch_unwind7do_call17h012d696240ee8506E, symObjAddr: 0x0, symBinAddr: 0x51AC, symSize: 0x80 }
  - { offset: 0x325EC, size: 0x8, addend: 0x0, symName: __ZN3std9panicking12catch_unwind7do_call17h0a469677b4399d0aE, symObjAddr: 0x80, symBinAddr: 0x522C, symSize: 0x8C }
  - { offset: 0x326D3, size: 0x8, addend: 0x0, symName: __ZN3std9panicking12catch_unwind7do_call17h2a15226d0d46dfa6E, symObjAddr: 0x10C, symBinAddr: 0x52B8, symSize: 0x80 }
  - { offset: 0x327BA, size: 0x8, addend: 0x0, symName: __ZN3std9panicking12catch_unwind7do_call17h47a3616dbc5d9c56E, symObjAddr: 0x18C, symBinAddr: 0x5338, symSize: 0x90 }
  - { offset: 0x328A1, size: 0x8, addend: 0x0, symName: __ZN3std9panicking12catch_unwind7do_call17h7487fdb31f98c7e0E, symObjAddr: 0x21C, symBinAddr: 0x53C8, symSize: 0x80 }
  - { offset: 0x32988, size: 0x8, addend: 0x0, symName: __ZN3std9panicking12catch_unwind7do_call17h81d87ad8ba52a181E, symObjAddr: 0x29C, symBinAddr: 0x5448, symSize: 0x74 }
  - { offset: 0x32A6F, size: 0x8, addend: 0x0, symName: __ZN3std9panicking12catch_unwind7do_call17h86a526fb504f0a84E, symObjAddr: 0x310, symBinAddr: 0x54BC, symSize: 0x80 }
  - { offset: 0x32B56, size: 0x8, addend: 0x0, symName: __ZN3std9panicking12catch_unwind7do_call17h912d00b91ff58bc6E, symObjAddr: 0x390, symBinAddr: 0x553C, symSize: 0x8C }
  - { offset: 0x32C3D, size: 0x8, addend: 0x0, symName: __ZN3std9panicking12catch_unwind7do_call17ha0ffe1b8b9a7c88aE, symObjAddr: 0x41C, symBinAddr: 0x55C8, symSize: 0x50 }
  - { offset: 0x32D05, size: 0x8, addend: 0x0, symName: __ZN3std9panicking12catch_unwind8do_catch17h1b8dae36bd54c551E, symObjAddr: 0x46C, symBinAddr: 0x5618, symSize: 0x70 }
  - { offset: 0x32D9A, size: 0x8, addend: 0x0, symName: __ZN3std9panicking12catch_unwind8do_catch17h1f64d85247a0810bE, symObjAddr: 0x4DC, symBinAddr: 0x5688, symSize: 0x70 }
  - { offset: 0x32E2F, size: 0x8, addend: 0x0, symName: __ZN3std9panicking12catch_unwind8do_catch17h3160500aa14b41f1E, symObjAddr: 0x54C, symBinAddr: 0x56F8, symSize: 0x70 }
  - { offset: 0x32EC4, size: 0x8, addend: 0x0, symName: __ZN3std9panicking12catch_unwind8do_catch17h7495508132e298c7E, symObjAddr: 0x5BC, symBinAddr: 0x5768, symSize: 0x70 }
  - { offset: 0x32F59, size: 0x8, addend: 0x0, symName: __ZN3std9panicking12catch_unwind8do_catch17h770c8b07df1e751cE, symObjAddr: 0x62C, symBinAddr: 0x57D8, symSize: 0x70 }
  - { offset: 0x32FEE, size: 0x8, addend: 0x0, symName: __ZN3std9panicking12catch_unwind8do_catch17h95c243eaee2697adE, symObjAddr: 0x69C, symBinAddr: 0x5848, symSize: 0x70 }
  - { offset: 0x33083, size: 0x8, addend: 0x0, symName: __ZN3std9panicking12catch_unwind8do_catch17hc3cbac6c954ee320E, symObjAddr: 0x70C, symBinAddr: 0x58B8, symSize: 0x70 }
  - { offset: 0x33118, size: 0x8, addend: 0x0, symName: __ZN3std9panicking12catch_unwind8do_catch17hdc793e60a9022f87E, symObjAddr: 0x77C, symBinAddr: 0x5928, symSize: 0x70 }
  - { offset: 0x331AD, size: 0x8, addend: 0x0, symName: __ZN3std9panicking12catch_unwind8do_catch17hfc369ba391865ffcE, symObjAddr: 0x7EC, symBinAddr: 0x5998, symSize: 0x70 }
  - { offset: 0x34883, size: 0x8, addend: 0x0, symName: __ZN3std4sync6poison4once4Once12is_completed17h0d6aaa3d62168522E, symObjAddr: 0x0, symBinAddr: 0x5A08, symSize: 0x54 }
  - { offset: 0x34A3B, size: 0x8, addend: 0x0, symName: __ZN3std4sync6poison4once4Once12is_completed17h0d6aaa3d62168522E, symObjAddr: 0x0, symBinAddr: 0x5A08, symSize: 0x54 }
  - { offset: 0x34AAF, size: 0x8, addend: 0x0, symName: '__ZN9hashbrown11rustc_entry62_$LT$impl$u20$hashbrown..map..HashMap$LT$K$C$V$C$S$C$A$GT$$GT$11rustc_entry28_$u7b$$u7b$closure$u7d$$u7d$17he7c592a93c63d07aE', symObjAddr: 0x0, symBinAddr: 0x5A5C, symSize: 0x38 }
  - { offset: 0x34AD0, size: 0x8, addend: 0x0, symName: '__ZN9hashbrown11rustc_entry62_$LT$impl$u20$hashbrown..map..HashMap$LT$K$C$V$C$S$C$A$GT$$GT$11rustc_entry28_$u7b$$u7b$closure$u7d$$u7d$17he7c592a93c63d07aE', symObjAddr: 0x0, symBinAddr: 0x5A5C, symSize: 0x38 }
  - { offset: 0x34D4A, size: 0x8, addend: 0x0, symName: '__ZN5alloc3str56_$LT$impl$u20$alloc..borrow..ToOwned$u20$for$u20$str$GT$8to_owned17hda1618adc0a0cc55E', symObjAddr: 0x0, symBinAddr: 0x5A94, symSize: 0x50 }
  - { offset: 0x35000, size: 0x8, addend: 0x0, symName: '__ZN5alloc3str56_$LT$impl$u20$alloc..borrow..ToOwned$u20$for$u20$str$GT$8to_owned17hda1618adc0a0cc55E', symObjAddr: 0x0, symBinAddr: 0x5A94, symSize: 0x50 }
  - { offset: 0x35108, size: 0x8, addend: 0x0, symName: '__ZN123_$LT$$RF$alloc..collections..btree..map..BTreeMap$LT$K$C$V$C$A$GT$$u20$as$u20$core..iter..traits..collect..IntoIterator$GT$9into_iter17h1da83f7e8517f8e5E', symObjAddr: 0x0, symBinAddr: 0x5AE4, symSize: 0x124 }
  - { offset: 0x35217, size: 0x8, addend: 0x0, symName: '__ZN123_$LT$$RF$alloc..collections..btree..map..BTreeMap$LT$K$C$V$C$A$GT$$u20$as$u20$core..iter..traits..collect..IntoIterator$GT$9into_iter17h1da83f7e8517f8e5E', symObjAddr: 0x0, symBinAddr: 0x5AE4, symSize: 0x124 }
  - { offset: 0x35322, size: 0x8, addend: 0x0, symName: '__ZN98_$LT$alloc..collections..btree..map..BTreeMap$LT$K$C$V$C$A$GT$$u20$as$u20$core..cmp..PartialEq$GT$2eq28_$u7b$$u7b$closure$u7d$$u7d$17hc69127ac54b07cbbE', symObjAddr: 0x36C, symBinAddr: 0x5E50, symSize: 0xAC }
  - { offset: 0x35413, size: 0x8, addend: 0x0, symName: '__ZN98_$LT$alloc..collections..btree..map..BTreeMap$LT$K$C$V$C$A$GT$$u20$as$u20$core..cmp..PartialEq$GT$2eq17hf6ff39b0cd032ea5E', symObjAddr: 0x1BC, symBinAddr: 0x5CA0, symSize: 0x1B0 }
  - { offset: 0x35EDD, size: 0x8, addend: 0x0, symName: __ZN4core4iter6traits8iterator8Iterator3zip17h609d88e43133618cE, symObjAddr: 0x124, symBinAddr: 0x5C08, symSize: 0x98 }
  - { offset: 0x365EB, size: 0x8, addend: 0x0, symName: __ZN4pyo37pyclass18create_type_object18create_type_object17h11de5bd80cd7287bE, symObjAddr: 0x0, symBinAddr: 0x5EFC, symSize: 0x15C }
  - { offset: 0x3BA84, size: 0x8, addend: 0x0, symName: __ZN4pyo37pyclass18create_type_object18create_type_object17h11de5bd80cd7287bE, symObjAddr: 0x0, symBinAddr: 0x5EFC, symSize: 0x15C }
  - { offset: 0x3BAE2, size: 0x8, addend: 0x0, symName: __ZN4pyo37pyclass18create_type_object18create_type_object17h5fd28f097003d6cfE, symObjAddr: 0x15C, symBinAddr: 0x6058, symSize: 0x15C }
  - { offset: 0x3BB40, size: 0x8, addend: 0x0, symName: __ZN4pyo37pyclass18create_type_object18create_type_object17hd913a7df85be179cE, symObjAddr: 0x2B8, symBinAddr: 0x61B4, symSize: 0x15C }
  - { offset: 0x3EC72, size: 0x8, addend: 0x0, symName: '__ZN4core4char7methods22_$LT$impl$u20$char$GT$8to_digit17h61225cb2206e9b5fE', symObjAddr: 0x0, symBinAddr: 0x6310, symSize: 0x14C }
  - { offset: 0x3F072, size: 0x8, addend: 0x0, symName: '__ZN4core4char7methods22_$LT$impl$u20$char$GT$8to_digit17h61225cb2206e9b5fE', symObjAddr: 0x0, symBinAddr: 0x6310, symSize: 0x14C }
  - { offset: 0x3F13E, size: 0x8, addend: 0x0, symName: __ZN4core4char7methods25encode_utf8_raw_unchecked17h9b52f9621db5e843E, symObjAddr: 0x14C, symBinAddr: 0x645C, symSize: 0x14C }
  - { offset: 0x3F446, size: 0x8, addend: 0x0, symName: '__ZN4core3cmp5impls69_$LT$impl$u20$core..cmp..PartialEq$LT$$RF$B$GT$$u20$for$u20$$RF$A$GT$2eq17h2ae40f47dbb551a7E', symObjAddr: 0x0, symBinAddr: 0x65A8, symSize: 0x34 }
  - { offset: 0x40392, size: 0x8, addend: 0x0, symName: '__ZN4core3cmp5impls69_$LT$impl$u20$core..cmp..PartialEq$LT$$RF$B$GT$$u20$for$u20$$RF$A$GT$2eq17h2ae40f47dbb551a7E', symObjAddr: 0x0, symBinAddr: 0x65A8, symSize: 0x34 }
  - { offset: 0x41DB2, size: 0x8, addend: 0x0, symName: '__ZN4pyo35types8sequence85_$LT$impl$u20$pyo3..conversion..FromPyObject$u20$for$u20$alloc..vec..Vec$LT$T$GT$$GT$13extract_bound17h315472ff918b2220E', symObjAddr: 0x34, symBinAddr: 0x65DC, symSize: 0x88 }
  - { offset: 0x41E47, size: 0x8, addend: 0x0, symName: '__ZN57_$LT$T$u20$as$u20$pyo3..conversion..FromPyObjectBound$GT$20from_py_object_bound17hd063a89b6c67b851E', symObjAddr: 0xBC, symBinAddr: 0x6664, symSize: 0x34 }
  - { offset: 0x4207B, size: 0x8, addend: 0x0, symName: '__ZN71_$LT$T$u20$as$u20$pyo3..impl_..extract_argument..PyFunctionArgument$GT$7extract17he591f548f1474bf1E', symObjAddr: 0x7B8, symBinAddr: 0x6D60, symSize: 0x28 }
  - { offset: 0x428BF, size: 0x8, addend: 0x0, symName: '__ZN72_$LT$alloc..vec..Vec$LT$T$C$A$GT$$u20$as$u20$core..ops..deref..Deref$GT$5deref17he3c8f6435e7b9e1aE', symObjAddr: 0x7E0, symBinAddr: 0x6D88, symSize: 0x24 }
  - { offset: 0x42986, size: 0x8, addend: 0x0, symName: '__ZN5alloc3vec10partial_eq117_$LT$impl$u20$core..cmp..PartialEq$LT$alloc..vec..Vec$LT$U$C$A2$GT$$GT$$u20$for$u20$alloc..vec..Vec$LT$T$C$A1$GT$$GT$2eq17h91336275ab96ac13E', symObjAddr: 0xF0, symBinAddr: 0x6698, symSize: 0xE4 }
  - { offset: 0x4307D, size: 0x8, addend: 0x0, symName: '__ZN5alloc3vec16in_place_collect108_$LT$impl$u20$alloc..vec..spec_from_iter..SpecFromIter$LT$T$C$I$GT$$u20$for$u20$alloc..vec..Vec$LT$T$GT$$GT$9from_iter17ha7eb1bad659d472eE', symObjAddr: 0x670, symBinAddr: 0x6C18, symSize: 0x28 }
  - { offset: 0x430E0, size: 0x8, addend: 0x0, symName: '__ZN75_$LT$alloc..vec..Vec$LT$T$C$A$GT$$u20$as$u20$core..ops..deref..DerefMut$GT$9deref_mut17hd3d04e2d08be4726E', symObjAddr: 0x804, symBinAddr: 0x6DAC, symSize: 0x24 }
  - { offset: 0x43126, size: 0x8, addend: 0x0, symName: '__ZN90_$LT$alloc..vec..Vec$LT$T$C$A$GT$$u20$as$u20$core..iter..traits..collect..IntoIterator$GT$9into_iter17h01389832edd69465E', symObjAddr: 0x828, symBinAddr: 0x6DD0, symSize: 0xE4 }
  - { offset: 0x433B8, size: 0x8, addend: 0x0, symName: '__ZN90_$LT$alloc..vec..Vec$LT$T$C$A$GT$$u20$as$u20$core..iter..traits..collect..IntoIterator$GT$9into_iter17h799521cba30f5f33E', symObjAddr: 0x90C, symBinAddr: 0x6EB4, symSize: 0xE4 }
  - { offset: 0x4364A, size: 0x8, addend: 0x0, symName: '__ZN90_$LT$alloc..vec..Vec$LT$T$C$A$GT$$u20$as$u20$core..iter..traits..collect..IntoIterator$GT$9into_iter17h8875cfe0c3b95d70E', symObjAddr: 0x9F0, symBinAddr: 0x6F98, symSize: 0xE4 }
  - { offset: 0x438DC, size: 0x8, addend: 0x0, symName: '__ZN90_$LT$alloc..vec..Vec$LT$T$C$A$GT$$u20$as$u20$core..iter..traits..collect..IntoIterator$GT$9into_iter17hb398e8bc75d6395bE', symObjAddr: 0xAD4, symBinAddr: 0x707C, symSize: 0xE4 }
  - { offset: 0x43C2A, size: 0x8, addend: 0x0, symName: '__ZN94_$LT$$RF$alloc..vec..Vec$LT$T$C$A$GT$$u20$as$u20$core..iter..traits..collect..IntoIterator$GT$9into_iter17h600c3173e3ba8c98E', symObjAddr: 0xBB8, symBinAddr: 0x7160, symSize: 0xA0 }
  - { offset: 0x43E6E, size: 0x8, addend: 0x0, symName: '__ZN95_$LT$alloc..vec..Vec$LT$T$GT$$u20$as$u20$core..iter..traits..collect..FromIterator$LT$T$GT$$GT$9from_iter17h448ea76fc5cfdb3aE', symObjAddr: 0xC58, symBinAddr: 0x7200, symSize: 0x3C }
  - { offset: 0x441B5, size: 0x8, addend: 0x0, symName: '__ZN5alloc5slice99_$LT$impl$u20$core..slice..sort..stable..BufGuard$LT$T$GT$$u20$for$u20$alloc..vec..Vec$LT$T$GT$$GT$13with_capacity17h0a6f2c09a513fcd7E', symObjAddr: 0x698, symBinAddr: 0x6C40, symSize: 0x4C }
  - { offset: 0x44256, size: 0x8, addend: 0x0, symName: '__ZN5alloc5slice99_$LT$impl$u20$core..slice..sort..stable..BufGuard$LT$T$GT$$u20$for$u20$alloc..vec..Vec$LT$T$GT$$GT$19as_uninit_slice_mut17h0b27063337205793E', symObjAddr: 0x6E4, symBinAddr: 0x6C8C, symSize: 0xD4 }
  - { offset: 0x44C45, size: 0x8, addend: 0x0, symName: '__ZN5alloc3vec12Vec$LT$T$GT$13with_capacity17h77565c811806a667E', symObjAddr: 0x1D4, symBinAddr: 0x677C, symSize: 0x44 }
  - { offset: 0x44D9E, size: 0x8, addend: 0x0, symName: '__ZN5alloc3vec12Vec$LT$T$GT$3new17h3a165482c56ea183E', symObjAddr: 0x218, symBinAddr: 0x67C0, symSize: 0x14 }
  - { offset: 0x44DE6, size: 0x8, addend: 0x0, symName: '__ZN5alloc3vec12Vec$LT$T$GT$3new17h6e03aa2d42d221aaE', symObjAddr: 0x22C, symBinAddr: 0x67D4, symSize: 0x14 }
  - { offset: 0x44E21, size: 0x8, addend: 0x0, symName: '__ZN5alloc3vec12Vec$LT$T$GT$3new17hfa80aec6ef518a83E', symObjAddr: 0x240, symBinAddr: 0x67E8, symSize: 0x14 }
  - { offset: 0x44F19, size: 0x8, addend: 0x0, symName: '__ZN5alloc3vec16Vec$LT$T$C$A$GT$12as_mut_slice17h1a7ba9a7133bc37aE', symObjAddr: 0x254, symBinAddr: 0x67FC, symSize: 0x6C }
  - { offset: 0x44FF5, size: 0x8, addend: 0x0, symName: '__ZN5alloc3vec16Vec$LT$T$C$A$GT$3len17h2a5f98ea7dc21202E', symObjAddr: 0x2C0, symBinAddr: 0x6868, symSize: 0x18 }
  - { offset: 0x4513D, size: 0x8, addend: 0x0, symName: '__ZN5alloc3vec16Vec$LT$T$C$A$GT$4push17h2cd4eede6b0624a0E', symObjAddr: 0x2D8, symBinAddr: 0x6880, symSize: 0x120 }
  - { offset: 0x45407, size: 0x8, addend: 0x0, symName: '__ZN5alloc3vec16Vec$LT$T$C$A$GT$4push17h4c5fd1c8d8f2fdf2E', symObjAddr: 0x3F8, symBinAddr: 0x69A0, symSize: 0xEC }
  - { offset: 0x45696, size: 0x8, addend: 0x0, symName: '__ZN5alloc3vec16Vec$LT$T$C$A$GT$4push17h5aa5500697065c82E', symObjAddr: 0x4E4, symBinAddr: 0x6A8C, symSize: 0x120 }
  - { offset: 0x458E4, size: 0x8, addend: 0x0, symName: '__ZN5alloc3vec16Vec$LT$T$C$A$GT$8as_slice17hc9aaaf7049d0c4b1E', symObjAddr: 0x604, symBinAddr: 0x6BAC, symSize: 0x6C }
  - { offset: 0x464A8, size: 0x8, addend: 0x0, symName: '__ZN59_$LT$alloc..alloc..Global$u20$as$u20$core..clone..Clone$GT$5clone17hda68f8329b900e72E', symObjAddr: 0x0, symBinAddr: 0x723C, symSize: 0x10 }
  - { offset: 0x47348, size: 0x8, addend: 0x0, symName: '__ZN59_$LT$alloc..alloc..Global$u20$as$u20$core..clone..Clone$GT$5clone17hda68f8329b900e72E', symObjAddr: 0x0, symBinAddr: 0x723C, symSize: 0x10 }
  - { offset: 0x4739E, size: 0x8, addend: 0x0, symName: '__ZN63_$LT$alloc..alloc..Global$u20$as$u20$core..alloc..Allocator$GT$10deallocate17h78edb91a78d4e3e8E', symObjAddr: 0x2C0, symBinAddr: 0x74FC, symSize: 0x80 }
  - { offset: 0x474BE, size: 0x8, addend: 0x0, symName: '__ZN63_$LT$alloc..alloc..Global$u20$as$u20$core..alloc..Allocator$GT$6shrink17h7d818876ad336c73E', symObjAddr: 0x340, symBinAddr: 0x757C, symSize: 0x4D0 }
  - { offset: 0x47C14, size: 0x8, addend: 0x0, symName: __ZN5alloc5alloc15exchange_malloc17hc4a6c6175f3a63e2E, symObjAddr: 0x10, symBinAddr: 0x724C, symSize: 0xAC }
  - { offset: 0x47F64, size: 0x8, addend: 0x0, symName: __ZN5alloc5alloc6Global10alloc_impl17h21316e4b5d7ee10fE, symObjAddr: 0xBC, symBinAddr: 0x72F8, symSize: 0x204 }
  - { offset: 0x485FC, size: 0x8, addend: 0x0, symName: '__ZN5tokio7runtime7context6scoped15Scoped$LT$T$GT$3set17h21b0c828a2e826a4E', symObjAddr: 0x0, symBinAddr: 0x7A4C, symSize: 0xF8 }
  - { offset: 0x53327, size: 0x8, addend: 0x0, symName: '__ZN5tokio7runtime7context6scoped15Scoped$LT$T$GT$3set17h21b0c828a2e826a4E', symObjAddr: 0x0, symBinAddr: 0x7A4C, symSize: 0xF8 }
  - { offset: 0x538DA, size: 0x8, addend: 0x0, symName: '__ZN5tokio7runtime7context6scoped15Scoped$LT$T$GT$3set17h349d19c7ea7a16cfE', symObjAddr: 0xF8, symBinAddr: 0x7B44, symSize: 0xF8 }
  - { offset: 0x539EC, size: 0x8, addend: 0x0, symName: '__ZN5tokio7runtime7context6scoped15Scoped$LT$T$GT$3set17h3aafbb1d5532f56aE', symObjAddr: 0x1F0, symBinAddr: 0x7C3C, symSize: 0xF8 }
  - { offset: 0x53BC5, size: 0x8, addend: 0x0, symName: '__ZN5tokio7runtime7context6scoped15Scoped$LT$T$GT$3set17h4c06c9549b705812E', symObjAddr: 0x2E8, symBinAddr: 0x7D34, symSize: 0xF8 }
  - { offset: 0x53C73, size: 0x8, addend: 0x0, symName: '__ZN5tokio7runtime7context6scoped15Scoped$LT$T$GT$3set17h64eea174d66f316eE', symObjAddr: 0x3E0, symBinAddr: 0x7E2C, symSize: 0xF8 }
  - { offset: 0x53D21, size: 0x8, addend: 0x0, symName: '__ZN5tokio7runtime7context6scoped15Scoped$LT$T$GT$3set17ha2959e05bca45b2dE', symObjAddr: 0x4D8, symBinAddr: 0x7F24, symSize: 0xF8 }
  - { offset: 0x53DC2, size: 0x8, addend: 0x0, symName: '__ZN5tokio7runtime7context6scoped15Scoped$LT$T$GT$3set17hbcbd6ffd901479d6E', symObjAddr: 0x5D0, symBinAddr: 0x801C, symSize: 0xF8 }
  - { offset: 0x53E70, size: 0x8, addend: 0x0, symName: '__ZN5tokio7runtime7context6scoped15Scoped$LT$T$GT$3set17hf6843718057207cbE', symObjAddr: 0x6C8, symBinAddr: 0x8114, symSize: 0xF8 }
  - { offset: 0x53F2F, size: 0x8, addend: 0x0, symName: '__ZN4core5slice4sort6stable5merge19MergeState$LT$T$GT$10merge_down17hac58d4e5ab40a3e8E', symObjAddr: 0x0, symBinAddr: 0x820C, symSize: 0x1E4 }
  - { offset: 0x5478D, size: 0x8, addend: 0x0, symName: __ZN4core5slice4sort6stable5merge5merge17h133c21d2f98f7fbaE, symObjAddr: 0x388, symBinAddr: 0x8594, symSize: 0x334 }
  - { offset: 0x550F7, size: 0x8, addend: 0x0, symName: '__ZN4core5slice4sort6stable5merge19MergeState$LT$T$GT$10merge_down17hac58d4e5ab40a3e8E', symObjAddr: 0x0, symBinAddr: 0x820C, symSize: 0x1E4 }
  - { offset: 0x5528D, size: 0x8, addend: 0x0, symName: '__ZN4core5slice4sort6stable5merge19MergeState$LT$T$GT$8merge_up17h4a1c73b4ef1e35d3E', symObjAddr: 0x1E4, symBinAddr: 0x83F0, symSize: 0x1A4 }
  - { offset: 0x55468, size: 0x8, addend: 0x0, symName: __ZN4core3mem4drop17h71b94aac47d6388cE, symObjAddr: 0x0, symBinAddr: 0x88C8, symSize: 0x14 }
  - { offset: 0x56900, size: 0x8, addend: 0x0, symName: __ZN4core3mem4drop17h71b94aac47d6388cE, symObjAddr: 0x0, symBinAddr: 0x88C8, symSize: 0x14 }
  - { offset: 0x56934, size: 0x8, addend: 0x0, symName: __ZN4core3mem6forget17h4a74cd8566884d27E, symObjAddr: 0x14, symBinAddr: 0x88DC, symSize: 0x10 }
  - { offset: 0x59560, size: 0x8, addend: 0x0, symName: __ZN4pyo310conversion15IntoPyObjectExt22into_pyobject_or_pyerr17h1487597065277dcfE, symObjAddr: 0x0, symBinAddr: 0x88EC, symSize: 0x40 }
  - { offset: 0x59D2F, size: 0x8, addend: 0x0, symName: '__ZN50_$LT$T$u20$as$u20$core..convert..Into$LT$U$GT$$GT$4into17h38ca9bc6555718feE', symObjAddr: 0x134, symBinAddr: 0x8A20, symSize: 0x24 }
  - { offset: 0x5AC16, size: 0x8, addend: 0x0, symName: __ZN4pyo310conversion15IntoPyObjectExt22into_pyobject_or_pyerr17h1487597065277dcfE, symObjAddr: 0x0, symBinAddr: 0x88EC, symSize: 0x40 }
  - { offset: 0x5AC87, size: 0x8, addend: 0x0, symName: __ZN4pyo310conversion15IntoPyObjectExt22into_pyobject_or_pyerr17hdb26f1f6706bb8d7E, symObjAddr: 0x40, symBinAddr: 0x892C, symSize: 0x48 }
  - { offset: 0x5ACF7, size: 0x8, addend: 0x0, symName: __ZN4pyo310conversion15IntoPyObjectExt22into_pyobject_or_pyerr17hdf7bdbcd3a5d5b8eE, symObjAddr: 0x88, symBinAddr: 0x8974, symSize: 0xAC }
  - { offset: 0x5AD8D, size: 0x8, addend: 0x0, symName: '__ZN57_$LT$T$u20$as$u20$pyo3..conversion..FromPyObjectBound$GT$20from_py_object_bound17h582abd481dd5b7beE', symObjAddr: 0x158, symBinAddr: 0x8A44, symSize: 0x34 }
  - { offset: 0x5ADD5, size: 0x8, addend: 0x0, symName: '__ZN71_$LT$T$u20$as$u20$pyo3..impl_..extract_argument..PyFunctionArgument$GT$7extract17h9ad8fd327085dfcaE', symObjAddr: 0x18C, symBinAddr: 0x8A78, symSize: 0x28 }
  - { offset: 0x5B996, size: 0x8, addend: 0x0, symName: __ZN4core5slice4sort6stable9quicksort16stable_partition17h26f6510916efa256E, symObjAddr: 0x0, symBinAddr: 0x8AA0, symSize: 0x4BC }
  - { offset: 0x5C869, size: 0x8, addend: 0x0, symName: __ZN4core5slice4sort6stable9quicksort16stable_partition17h26f6510916efa256E, symObjAddr: 0x0, symBinAddr: 0x8AA0, symSize: 0x4BC }
  - { offset: 0x5CCA9, size: 0x8, addend: 0x0, symName: __ZN4core5slice4sort6stable9quicksort16stable_partition17h599503255180f361E, symObjAddr: 0x4BC, symBinAddr: 0x8F5C, symSize: 0x4BC }
  - { offset: 0x5D0E9, size: 0x8, addend: 0x0, symName: __ZN4core5slice4sort6stable9quicksort9quicksort17h98fc9c8431d542efE, symObjAddr: 0xAB8, symBinAddr: 0x9558, symSize: 0x3CC }
  - { offset: 0x5D381, size: 0x8, addend: 0x0, symName: '__ZN4core5slice4sort6stable9quicksort9quicksort28_$u7b$$u7b$closure$u7d$$u7d$17h609a248258698f92E', symObjAddr: 0xE84, symBinAddr: 0x9924, symSize: 0x48 }
  - { offset: 0x5DEEC, size: 0x8, addend: 0x0, symName: '__ZN4core5slice4sort6stable9quicksort23PartitionState$LT$T$GT$13partition_one17h9ec62a43890c5fd5E', symObjAddr: 0x978, symBinAddr: 0x9418, symSize: 0x140 }
  - { offset: 0x5E1C2, size: 0x8, addend: 0x0, symName: '__ZN73_$LT$pyo3..types..any..PyAny$u20$as$u20$pyo3..type_object..PyTypeInfo$GT$15type_object_raw17h178d5e9d980ed97fE', symObjAddr: 0x0, symBinAddr: 0x996C, symSize: 0x24 }
  - { offset: 0x5F28A, size: 0x8, addend: 0x0, symName: '__ZN73_$LT$pyo3..types..any..PyAny$u20$as$u20$pyo3..type_object..PyTypeInfo$GT$15type_object_raw17h178d5e9d980ed97fE', symObjAddr: 0x0, symBinAddr: 0x996C, symSize: 0x24 }
  - { offset: 0x5F7E8, size: 0x8, addend: 0x0, symName: __ZN5alloc5slice11stable_sort17h8c4bf2542ed7cc8bE, symObjAddr: 0x0, symBinAddr: 0x9990, symSize: 0xC8 }
  - { offset: 0x6014D, size: 0x8, addend: 0x0, symName: '__ZN5alloc5slice29_$LT$impl$u20$$u5b$T$u5d$$GT$11sort_by_key28_$u7b$$u7b$closure$u7d$$u7d$17hf0d5fc033fd7371aE', symObjAddr: 0xC8, symBinAddr: 0x9A58, symSize: 0xAC }
  - { offset: 0x601DA, size: 0x8, addend: 0x0, symName: __ZN5alloc5slice11stable_sort17h8c4bf2542ed7cc8bE, symObjAddr: 0x0, symBinAddr: 0x9990, symSize: 0xC8 }
  - { offset: 0x60643, size: 0x8, addend: 0x0, symName: '__ZN103_$LT$alloc..vec..into_iter..IntoIter$LT$T$C$A$GT$$u20$as$u20$core..iter..traits..iterator..Iterator$GT$4next17h1c23528bbbfed2b8E', symObjAddr: 0x0, symBinAddr: 0x9B04, symSize: 0xE4 }
  - { offset: 0x6189F, size: 0x8, addend: 0x0, symName: __ZN4core4iter6traits10exact_size17ExactSizeIterator3len17h1c2423b7dbbfe6f3E, symObjAddr: 0x664, symBinAddr: 0xA168, symSize: 0xC4 }
  - { offset: 0x6199A, size: 0x8, addend: 0x0, symName: __ZN4core4iter6traits10exact_size17ExactSizeIterator3len17h5893b402f3fc3509E, symObjAddr: 0x728, symBinAddr: 0xA22C, symSize: 0xC4 }
  - { offset: 0x61A95, size: 0x8, addend: 0x0, symName: __ZN4core4iter6traits10exact_size17ExactSizeIterator3len17h7c2689e33737d5f4E, symObjAddr: 0x7EC, symBinAddr: 0xA2F0, symSize: 0xC4 }
  - { offset: 0x61B90, size: 0x8, addend: 0x0, symName: __ZN4core4iter6traits10exact_size17ExactSizeIterator3len17hae02f140e12f967eE, symObjAddr: 0x8B0, symBinAddr: 0xA3B4, symSize: 0xC4 }
  - { offset: 0x61CC2, size: 0x8, addend: 0x0, symName: __ZN4core4iter6traits8iterator8Iterator3map17hc7f84d570e62d6a9E, symObjAddr: 0x974, symBinAddr: 0xA478, symSize: 0x1C }
  - { offset: 0x61F07, size: 0x8, addend: 0x0, symName: '__ZN103_$LT$alloc..vec..into_iter..IntoIter$LT$T$C$A$GT$$u20$as$u20$core..iter..traits..iterator..Iterator$GT$4next17h1c23528bbbfed2b8E', symObjAddr: 0x0, symBinAddr: 0x9B04, symSize: 0xE4 }
  - { offset: 0x6207B, size: 0x8, addend: 0x0, symName: '__ZN103_$LT$alloc..vec..into_iter..IntoIter$LT$T$C$A$GT$$u20$as$u20$core..iter..traits..iterator..Iterator$GT$4next17h1d5be9fa96e28c38E', symObjAddr: 0xE4, symBinAddr: 0x9BE8, symSize: 0xE4 }
  - { offset: 0x621EF, size: 0x8, addend: 0x0, symName: '__ZN103_$LT$alloc..vec..into_iter..IntoIter$LT$T$C$A$GT$$u20$as$u20$core..iter..traits..iterator..Iterator$GT$4next17h597eff2e60c71860E', symObjAddr: 0x1C8, symBinAddr: 0x9CCC, symSize: 0xE4 }
  - { offset: 0x62363, size: 0x8, addend: 0x0, symName: '__ZN103_$LT$alloc..vec..into_iter..IntoIter$LT$T$C$A$GT$$u20$as$u20$core..iter..traits..iterator..Iterator$GT$8try_fold17hbddcadf342d9bd08E', symObjAddr: 0x2AC, symBinAddr: 0x9DB0, symSize: 0x1F4 }
  - { offset: 0x62545, size: 0x8, addend: 0x0, symName: '__ZN103_$LT$alloc..vec..into_iter..IntoIter$LT$T$C$A$GT$$u20$as$u20$core..iter..traits..iterator..Iterator$GT$9size_hint17h55b008930002bf09E', symObjAddr: 0x4A0, symBinAddr: 0x9FA4, symSize: 0x6C }
  - { offset: 0x625A0, size: 0x8, addend: 0x0, symName: '__ZN103_$LT$alloc..vec..into_iter..IntoIter$LT$T$C$A$GT$$u20$as$u20$core..iter..traits..iterator..Iterator$GT$9size_hint17h728a935dd396d201E', symObjAddr: 0x50C, symBinAddr: 0xA010, symSize: 0x6C }
  - { offset: 0x625FB, size: 0x8, addend: 0x0, symName: '__ZN103_$LT$alloc..vec..into_iter..IntoIter$LT$T$C$A$GT$$u20$as$u20$core..iter..traits..iterator..Iterator$GT$9size_hint17ha1480297dc940260E', symObjAddr: 0x578, symBinAddr: 0xA07C, symSize: 0x6C }
  - { offset: 0x62656, size: 0x8, addend: 0x0, symName: '__ZN103_$LT$alloc..vec..into_iter..IntoIter$LT$T$C$A$GT$$u20$as$u20$core..iter..traits..iterator..Iterator$GT$9size_hint17hbc2a2a594afe2edfE', symObjAddr: 0x5E4, symBinAddr: 0xA0E8, symSize: 0x6C }
  - { offset: 0x626B7, size: 0x8, addend: 0x0, symName: '__ZN104_$LT$alloc..vec..into_iter..IntoIter$LT$T$GT$$u20$as$u20$alloc..vec..in_place_collect..AsVecIntoIter$GT$12as_into_iter17haf19cb6679d77016E', symObjAddr: 0x650, symBinAddr: 0xA154, symSize: 0x14 }
  - { offset: 0x627A1, size: 0x8, addend: 0x0, symName: '__ZN97_$LT$alloc..vec..into_iter..IntoIter$LT$T$C$A$GT$$u20$as$u20$core..iter..adapters..SourceIter$GT$8as_inner17h8f2985fef2e8b214E', symObjAddr: 0xA3C, symBinAddr: 0xA540, symSize: 0x14 }
  - { offset: 0x63314, size: 0x8, addend: 0x0, symName: '__ZN5alloc3vec9into_iter21IntoIter$LT$T$C$A$GT$32forget_allocation_drop_remaining17h0cd0382cf730252aE', symObjAddr: 0x990, symBinAddr: 0xA494, symSize: 0xAC }
  - { offset: 0x634FD, size: 0x8, addend: 0x0, symName: __ZN3std6thread5spawn17hc407aae37311d878E, symObjAddr: 0x0, symBinAddr: 0xA554, symSize: 0x8C }
  - { offset: 0x635F3, size: 0x8, addend: 0x0, symName: '__ZN3std6thread7Builder16spawn_unchecked_28_$u7b$$u7b$closure$u7d$$u7d$28_$u7b$$u7b$closure$u7d$$u7d$17hd0cbe2ae127ede06E', symObjAddr: 0xFE0, symBinAddr: 0xB534, symSize: 0xA0 }
  - { offset: 0x63647, size: 0x8, addend: 0x0, symName: '__ZN3std6thread7Builder16spawn_unchecked_28_$u7b$$u7b$closure$u7d$$u7d$28_$u7b$$u7b$closure$u7d$$u7d$28_$u7b$$u7b$closure$u7d$$u7d$17h35f544812b98dc94E', symObjAddr: 0x1080, symBinAddr: 0xB5D4, symSize: 0x34 }
  - { offset: 0x63687, size: 0x8, addend: 0x0, symName: '__ZN3std6thread7Builder16spawn_unchecked_28_$u7b$$u7b$closure$u7d$$u7d$17hdefe7f0875c26fd1E', symObjAddr: 0x8A8, symBinAddr: 0xADFC, symSize: 0x448 }
  - { offset: 0x63ACD, size: 0x8, addend: 0x0, symName: '__ZN3std6thread7Builder16spawn_unchecked_28_$u7b$$u7b$closure$u7d$$u7d$28_$u7b$$u7b$closure$u7d$$u7d$17hc575893f17099793E', symObjAddr: 0xE3C, symBinAddr: 0xB390, symSize: 0x1A4 }
  - { offset: 0x63D6C, size: 0x8, addend: 0x0, symName: '__ZN3std6thread7Builder16spawn_unchecked_28_$u7b$$u7b$closure$u7d$$u7d$17hfdb600086b046ab1E', symObjAddr: 0xCF0, symBinAddr: 0xB244, symSize: 0x14C }
  - { offset: 0x640FA, size: 0x8, addend: 0x0, symName: __ZN3std6thread5spawn17hc407aae37311d878E, symObjAddr: 0x0, symBinAddr: 0xA554, symSize: 0x8C }
  - { offset: 0x67EEB, size: 0x8, addend: 0x0, symName: __ZN3std6thread7Builder15spawn_unchecked17h4422e47eb20e1b05E, symObjAddr: 0x8C, symBinAddr: 0xA5E0, symSize: 0xD0 }
  - { offset: 0x683B5, size: 0x8, addend: 0x0, symName: __ZN3std6thread7Builder16spawn_unchecked_17h1badc55e631e69c0E, symObjAddr: 0x15C, symBinAddr: 0xA6B0, symSize: 0x74C }
  - { offset: 0x691B1, size: 0x8, addend: 0x0, symName: __ZN4pyo35impl_10trampoline10trampoline17h1d67304c63617d4cE, symObjAddr: 0x0, symBinAddr: 0xB65C, symSize: 0x14C }
  - { offset: 0x6A70A, size: 0x8, addend: 0x0, symName: __ZN4pyo35impl_10trampoline10trampoline17h1d67304c63617d4cE, symObjAddr: 0x0, symBinAddr: 0xB65C, symSize: 0x14C }
  - { offset: 0x6A7AD, size: 0x8, addend: 0x0, symName: __ZN4pyo35impl_10trampoline10trampoline17h2441a9cd969b98a5E, symObjAddr: 0x14C, symBinAddr: 0xB7A8, symSize: 0x158 }
  - { offset: 0x6A850, size: 0x8, addend: 0x0, symName: __ZN4pyo35impl_10trampoline10trampoline17h49763479fdecd1efE, symObjAddr: 0x2A4, symBinAddr: 0xB900, symSize: 0x158 }
  - { offset: 0x6A8F3, size: 0x8, addend: 0x0, symName: __ZN4pyo35impl_10trampoline10trampoline17h5e9d40a9bd28a5caE, symObjAddr: 0x3FC, symBinAddr: 0xBA58, symSize: 0x158 }
  - { offset: 0x6A996, size: 0x8, addend: 0x0, symName: __ZN4pyo35impl_10trampoline10trampoline17h60277e70f60c6015E, symObjAddr: 0x554, symBinAddr: 0xBBB0, symSize: 0x15C }
  - { offset: 0x6AA3A, size: 0x8, addend: 0x0, symName: __ZN4pyo35impl_10trampoline10trampoline17hd224958de55925c3E, symObjAddr: 0x6B0, symBinAddr: 0xBD0C, symSize: 0x15C }
  - { offset: 0x6AADE, size: 0x8, addend: 0x0, symName: __ZN4pyo35impl_10trampoline10trampoline17hde8cf372ad633b5bE, symObjAddr: 0x80C, symBinAddr: 0xBE68, symSize: 0x160 }
  - { offset: 0x6AB87, size: 0x8, addend: 0x0, symName: '__ZN4pyo35impl_10trampoline10trampoline28_$u7b$$u7b$closure$u7d$$u7d$17h4901916421021674E', symObjAddr: 0x96C, symBinAddr: 0xBFC8, symSize: 0x2C }
  - { offset: 0x6ABD5, size: 0x8, addend: 0x0, symName: '__ZN4pyo35impl_10trampoline10trampoline28_$u7b$$u7b$closure$u7d$$u7d$17h5e01d598b1296d17E', symObjAddr: 0x998, symBinAddr: 0xBFF4, symSize: 0x34 }
  - { offset: 0x6AC24, size: 0x8, addend: 0x0, symName: '__ZN4pyo35impl_10trampoline10trampoline28_$u7b$$u7b$closure$u7d$$u7d$17ha49b41529390182cE', symObjAddr: 0x9CC, symBinAddr: 0xC028, symSize: 0x2C }
  - { offset: 0x6AC72, size: 0x8, addend: 0x0, symName: '__ZN4pyo35impl_10trampoline10trampoline28_$u7b$$u7b$closure$u7d$$u7d$17hb793814c8ce1b655E', symObjAddr: 0x9F8, symBinAddr: 0xC054, symSize: 0x24 }
  - { offset: 0x6ACC0, size: 0x8, addend: 0x0, symName: '__ZN4pyo35impl_10trampoline10trampoline28_$u7b$$u7b$closure$u7d$$u7d$17hc39b1c6e7c76f595E', symObjAddr: 0xA1C, symBinAddr: 0xC078, symSize: 0x34 }
  - { offset: 0x6AD0F, size: 0x8, addend: 0x0, symName: '__ZN4pyo35impl_10trampoline10trampoline28_$u7b$$u7b$closure$u7d$$u7d$17hc86127cee5c04a45E', symObjAddr: 0xA50, symBinAddr: 0xC0AC, symSize: 0x40 }
  - { offset: 0x6AD5E, size: 0x8, addend: 0x0, symName: '__ZN4pyo35impl_10trampoline10trampoline28_$u7b$$u7b$closure$u7d$$u7d$17hf6ea4652f2c03698E', symObjAddr: 0xA90, symBinAddr: 0xC0EC, symSize: 0x2C }
  - { offset: 0x6ADB2, size: 0x8, addend: 0x0, symName: '__ZN4pyo35impl_10trampoline11module_init28_$u7b$$u7b$closure$u7d$$u7d$17h5924dd8817be1c81E', symObjAddr: 0xABC, symBinAddr: 0xC118, symSize: 0x40 }
  - { offset: 0x6ADFE, size: 0x8, addend: 0x0, symName: '__ZN4pyo35impl_10trampoline11module_init28_$u7b$$u7b$closure$u7d$$u7d$28_$u7b$$u7b$closure$u7d$$u7d$17hc0bb84d7de707033E', symObjAddr: 0xAFC, symBinAddr: 0xC158, symSize: 0x24 }
  - { offset: 0x6AE55, size: 0x8, addend: 0x0, symName: '__ZN4pyo35impl_10trampoline11richcmpfunc28_$u7b$$u7b$closure$u7d$$u7d$17hc94d1ded24cdbc37E', symObjAddr: 0xB20, symBinAddr: 0xC17C, symSize: 0x40 }
  - { offset: 0x6AF01, size: 0x8, addend: 0x0, symName: __ZN4pyo35impl_10trampoline21trampoline_unraisable17h284c9a4dc369eb96E, symObjAddr: 0xB60, symBinAddr: 0xC1BC, symSize: 0x254 }
  - { offset: 0x6AF9C, size: 0x8, addend: 0x0, symName: '__ZN4pyo35impl_10trampoline21trampoline_unraisable28_$u7b$$u7b$closure$u7d$$u7d$17h155caf88a8fab98eE', symObjAddr: 0xDB4, symBinAddr: 0xC410, symSize: 0x5C }
  - { offset: 0x6AFDB, size: 0x8, addend: 0x0, symName: '__ZN4pyo35impl_10trampoline21trampoline_unraisable28_$u7b$$u7b$closure$u7d$$u7d$17h2046f96f9d431b39E', symObjAddr: 0xE10, symBinAddr: 0xC46C, symSize: 0x2C }
  - { offset: 0x6B02D, size: 0x8, addend: 0x0, symName: '__ZN4pyo35impl_10trampoline22fastcall_with_keywords28_$u7b$$u7b$closure$u7d$$u7d$17h5cd77f855d26a256E', symObjAddr: 0xE3C, symBinAddr: 0xC498, symSize: 0x48 }
  - { offset: 0x6B0F9, size: 0x8, addend: 0x0, symName: '__ZN4pyo35impl_10trampoline6noargs28_$u7b$$u7b$closure$u7d$$u7d$17h9a1118975861bb5cE', symObjAddr: 0xE84, symBinAddr: 0xC4E0, symSize: 0x34 }
  - { offset: 0x6B176, size: 0x8, addend: 0x0, symName: '__ZN4pyo35impl_10trampoline7dealloc28_$u7b$$u7b$closure$u7d$$u7d$17hf376be05f967d6dbE', symObjAddr: 0xEB8, symBinAddr: 0xC514, symSize: 0x40 }
  - { offset: 0x6B1F3, size: 0x8, addend: 0x0, symName: '__ZN4pyo35impl_10trampoline7newfunc28_$u7b$$u7b$closure$u7d$$u7d$17hcc37e4d77089ee98E', symObjAddr: 0xEF8, symBinAddr: 0xC554, symSize: 0x40 }
  - { offset: 0x6B2A4, size: 0x8, addend: 0x0, symName: '__ZN4pyo35impl_10trampoline8reprfunc28_$u7b$$u7b$closure$u7d$$u7d$17h0813d2bd78951655E', symObjAddr: 0xF38, symBinAddr: 0xC594, symSize: 0x34 }
  - { offset: 0x6B321, size: 0x8, addend: 0x0, symName: '__ZN4pyo35impl_10trampoline9unaryfunc28_$u7b$$u7b$closure$u7d$$u7d$17ha7d6de0d55df03e9E', symObjAddr: 0xF6C, symBinAddr: 0xC5C8, symSize: 0x34 }
  - { offset: 0x6BE93, size: 0x8, addend: 0x0, symName: __ZN4core4iter6traits8iterator8Iterator6copied17hc8b9a6b1244d726aE, symObjAddr: 0x0, symBinAddr: 0xC5FC, symSize: 0x1C }
  - { offset: 0x6C665, size: 0x8, addend: 0x0, symName: __ZN4core4iter6traits8iterator8Iterator6copied17hc8b9a6b1244d726aE, symObjAddr: 0x0, symBinAddr: 0xC5FC, symSize: 0x1C }
  - { offset: 0x6D65E, size: 0x8, addend: 0x0, symName: '__ZN91_$LT$core..slice..iter..Iter$LT$T$GT$$u20$as$u20$core..iter..traits..iterator..Iterator$GT$4next17h284d66ed1a516f34E', symObjAddr: 0x6C, symBinAddr: 0xC668, symSize: 0xB0 }
  - { offset: 0x6D798, size: 0x8, addend: 0x0, symName: '__ZN91_$LT$core..slice..iter..Iter$LT$T$GT$$u20$as$u20$core..iter..traits..iterator..Iterator$GT$4next17h7d0b2f1a73b94598E', symObjAddr: 0x11C, symBinAddr: 0xC718, symSize: 0xB0 }
  - { offset: 0x6D8D2, size: 0x8, addend: 0x0, symName: '__ZN91_$LT$core..slice..iter..Iter$LT$T$GT$$u20$as$u20$core..iter..traits..iterator..Iterator$GT$4next17h93cdd55c86afa8b6E', symObjAddr: 0x1CC, symBinAddr: 0xC7C8, symSize: 0xB0 }
  - { offset: 0x6DA0C, size: 0x8, addend: 0x0, symName: '__ZN91_$LT$core..slice..iter..Iter$LT$T$GT$$u20$as$u20$core..iter..traits..iterator..Iterator$GT$8position17h3dc6a8264f727500E', symObjAddr: 0x27C, symBinAddr: 0xC878, symSize: 0x188 }
  - { offset: 0x6DACA, size: 0x8, addend: 0x0, symName: '__ZN91_$LT$core..slice..iter..Iter$LT$T$GT$$u20$as$u20$core..iter..traits..iterator..Iterator$GT$8position17h9fac0d80c21ae75eE', symObjAddr: 0x404, symBinAddr: 0xCA00, symSize: 0x188 }
  - { offset: 0x6E4D5, size: 0x8, addend: 0x0, symName: '__ZN4core5slice4iter13Iter$LT$T$GT$3new17h4afadf45e8bd92cdE', symObjAddr: 0x1C, symBinAddr: 0xC618, symSize: 0x50 }
  - { offset: 0x6E8C8, size: 0x8, addend: 0x0, symName: __ZN4core6future7poll_fn7poll_fn17h18b270fb09d6c090E, symObjAddr: 0x0, symBinAddr: 0xCB88, symSize: 0x1C }
  - { offset: 0x6F955, size: 0x8, addend: 0x0, symName: __ZN4core6future7poll_fn7poll_fn17h18b270fb09d6c090E, symObjAddr: 0x0, symBinAddr: 0xCB88, symSize: 0x1C }
  - { offset: 0x6F993, size: 0x8, addend: 0x0, symName: __ZN4core6future7poll_fn7poll_fn17h195abf0894d15620E, symObjAddr: 0x1C, symBinAddr: 0xCBA4, symSize: 0x1C }
  - { offset: 0x6F9D1, size: 0x8, addend: 0x0, symName: __ZN4core6future7poll_fn7poll_fn17h26c4556d034ad2d8E, symObjAddr: 0x38, symBinAddr: 0xCBC0, symSize: 0x1C }
  - { offset: 0x6FA0F, size: 0x8, addend: 0x0, symName: __ZN4core6future7poll_fn7poll_fn17h4fc37bbbbd07f4e7E, symObjAddr: 0x54, symBinAddr: 0xCBDC, symSize: 0x1C }
  - { offset: 0x6FA4D, size: 0x8, addend: 0x0, symName: __ZN4core6future7poll_fn7poll_fn17h56748ba700eecbecE, symObjAddr: 0x70, symBinAddr: 0xCBF8, symSize: 0x1C }
  - { offset: 0x6FA8B, size: 0x8, addend: 0x0, symName: __ZN4core6future7poll_fn7poll_fn17h6c5f209135f58f9eE, symObjAddr: 0x8C, symBinAddr: 0xCC14, symSize: 0x1C }
  - { offset: 0x6FAC9, size: 0x8, addend: 0x0, symName: __ZN4core6future7poll_fn7poll_fn17h8d4d498b81f2fc16E, symObjAddr: 0xA8, symBinAddr: 0xCC30, symSize: 0x1C }
  - { offset: 0x6FB07, size: 0x8, addend: 0x0, symName: __ZN4core6future7poll_fn7poll_fn17hc193a35761e398ecE, symObjAddr: 0xC4, symBinAddr: 0xCC4C, symSize: 0x1C }
  - { offset: 0x6FB4A, size: 0x8, addend: 0x0, symName: '__ZN87_$LT$core..future..poll_fn..PollFn$LT$F$GT$$u20$as$u20$core..future..future..Future$GT$4poll17h12082ac5c1794d25E', symObjAddr: 0x1A0, symBinAddr: 0xCD28, symSize: 0x2C }
  - { offset: 0x6FB96, size: 0x8, addend: 0x0, symName: '__ZN87_$LT$core..future..poll_fn..PollFn$LT$F$GT$$u20$as$u20$core..future..future..Future$GT$4poll17h48fd8a7c45b33d29E', symObjAddr: 0x1CC, symBinAddr: 0xCD54, symSize: 0x2C }
  - { offset: 0x6FBE2, size: 0x8, addend: 0x0, symName: '__ZN87_$LT$core..future..poll_fn..PollFn$LT$F$GT$$u20$as$u20$core..future..future..Future$GT$4poll17h4bc20f0b418b88c4E', symObjAddr: 0x1F8, symBinAddr: 0xCD80, symSize: 0x2C }
  - { offset: 0x6FC2E, size: 0x8, addend: 0x0, symName: '__ZN87_$LT$core..future..poll_fn..PollFn$LT$F$GT$$u20$as$u20$core..future..future..Future$GT$4poll17h601e21825998b928E', symObjAddr: 0x224, symBinAddr: 0xCDAC, symSize: 0x2C }
  - { offset: 0x6FC7A, size: 0x8, addend: 0x0, symName: '__ZN87_$LT$core..future..poll_fn..PollFn$LT$F$GT$$u20$as$u20$core..future..future..Future$GT$4poll17ha7db50ee61b11e26E', symObjAddr: 0x250, symBinAddr: 0xCDD8, symSize: 0x2C }
  - { offset: 0x6FCC6, size: 0x8, addend: 0x0, symName: '__ZN87_$LT$core..future..poll_fn..PollFn$LT$F$GT$$u20$as$u20$core..future..future..Future$GT$4poll17ha8f42ec4a506fae1E', symObjAddr: 0x27C, symBinAddr: 0xCE04, symSize: 0x2C }
  - { offset: 0x6FD12, size: 0x8, addend: 0x0, symName: '__ZN87_$LT$core..future..poll_fn..PollFn$LT$F$GT$$u20$as$u20$core..future..future..Future$GT$4poll17haf188a93a96f8e17E', symObjAddr: 0x2A8, symBinAddr: 0xCE30, symSize: 0x2C }
  - { offset: 0x6FD5E, size: 0x8, addend: 0x0, symName: '__ZN87_$LT$core..future..poll_fn..PollFn$LT$F$GT$$u20$as$u20$core..future..future..Future$GT$4poll17hc4cfe9588c52cfe0E', symObjAddr: 0x2D4, symBinAddr: 0xCE5C, symSize: 0x2C }
  - { offset: 0x6FECA, size: 0x8, addend: 0x0, symName: '__ZN60_$LT$$RF$mut$u20$T$u20$as$u20$core..ops..deref..DerefMut$GT$9deref_mut17h5e531774e0872cf0E', symObjAddr: 0xE0, symBinAddr: 0xCC68, symSize: 0x18 }
  - { offset: 0x6FF01, size: 0x8, addend: 0x0, symName: '__ZN60_$LT$$RF$mut$u20$T$u20$as$u20$core..ops..deref..DerefMut$GT$9deref_mut17h7878e5c6c4ce0676E', symObjAddr: 0xF8, symBinAddr: 0xCC80, symSize: 0x18 }
  - { offset: 0x6FF38, size: 0x8, addend: 0x0, symName: '__ZN60_$LT$$RF$mut$u20$T$u20$as$u20$core..ops..deref..DerefMut$GT$9deref_mut17h904f1372cd223a81E', symObjAddr: 0x110, symBinAddr: 0xCC98, symSize: 0x18 }
  - { offset: 0x6FF6F, size: 0x8, addend: 0x0, symName: '__ZN60_$LT$$RF$mut$u20$T$u20$as$u20$core..ops..deref..DerefMut$GT$9deref_mut17h9eec1cf20e02b6eeE', symObjAddr: 0x128, symBinAddr: 0xCCB0, symSize: 0x18 }
  - { offset: 0x6FFA6, size: 0x8, addend: 0x0, symName: '__ZN60_$LT$$RF$mut$u20$T$u20$as$u20$core..ops..deref..DerefMut$GT$9deref_mut17hb03fbbc756d2d154E', symObjAddr: 0x140, symBinAddr: 0xCCC8, symSize: 0x18 }
  - { offset: 0x6FFDD, size: 0x8, addend: 0x0, symName: '__ZN60_$LT$$RF$mut$u20$T$u20$as$u20$core..ops..deref..DerefMut$GT$9deref_mut17hd91945066c563562E', symObjAddr: 0x158, symBinAddr: 0xCCE0, symSize: 0x18 }
  - { offset: 0x70014, size: 0x8, addend: 0x0, symName: '__ZN60_$LT$$RF$mut$u20$T$u20$as$u20$core..ops..deref..DerefMut$GT$9deref_mut17hea803bb1e393a69cE', symObjAddr: 0x170, symBinAddr: 0xCCF8, symSize: 0x18 }
  - { offset: 0x7004B, size: 0x8, addend: 0x0, symName: '__ZN60_$LT$$RF$mut$u20$T$u20$as$u20$core..ops..deref..DerefMut$GT$9deref_mut17heb895d70c8430894E', symObjAddr: 0x188, symBinAddr: 0xCD10, symSize: 0x18 }
  - { offset: 0x761F9, size: 0x8, addend: 0x0, symName: '__ZN5alloc4sync12Arc$LT$T$GT$3new17h095ae075317bf707E', symObjAddr: 0x0, symBinAddr: 0xCE88, symSize: 0xB8 }
  - { offset: 0x7D9CB, size: 0x8, addend: 0x0, symName: '__ZN68_$LT$alloc..sync..Arc$LT$T$C$A$GT$$u20$as$u20$core..clone..Clone$GT$5clone17h77de3189b80f29f2E', symObjAddr: 0x724, symBinAddr: 0xD5AC, symSize: 0xA4 }
  - { offset: 0x7DABE, size: 0x8, addend: 0x0, symName: '__ZN68_$LT$alloc..sync..Arc$LT$T$C$A$GT$$u20$as$u20$core..clone..Clone$GT$5clone17h7ba9a82a30c182faE', symObjAddr: 0x7C8, symBinAddr: 0xD650, symSize: 0xA4 }
  - { offset: 0x7DBB1, size: 0x8, addend: 0x0, symName: '__ZN68_$LT$alloc..sync..Arc$LT$T$C$A$GT$$u20$as$u20$core..clone..Clone$GT$5clone17h84a41eae2054d485E', symObjAddr: 0x86C, symBinAddr: 0xD6F4, symSize: 0x94 }
  - { offset: 0x7DCA4, size: 0x8, addend: 0x0, symName: '__ZN68_$LT$alloc..sync..Arc$LT$T$C$A$GT$$u20$as$u20$core..clone..Clone$GT$5clone17ha54dc526fd59e386E', symObjAddr: 0x900, symBinAddr: 0xD788, symSize: 0xA4 }
  - { offset: 0x7DD97, size: 0x8, addend: 0x0, symName: '__ZN68_$LT$alloc..sync..Arc$LT$T$C$A$GT$$u20$as$u20$core..clone..Clone$GT$5clone17hace394737ef9dac8E', symObjAddr: 0x9A4, symBinAddr: 0xD82C, symSize: 0x94 }
  - { offset: 0x7DE90, size: 0x8, addend: 0x0, symName: '__ZN73_$LT$alloc..sync..Arc$LT$T$C$A$GT$$u20$as$u20$core..ops..deref..Deref$GT$5deref17h0501fa900be87fecE', symObjAddr: 0xA38, symBinAddr: 0xD8C0, symSize: 0x34 }
  - { offset: 0x7DF03, size: 0x8, addend: 0x0, symName: '__ZN73_$LT$alloc..sync..Arc$LT$T$C$A$GT$$u20$as$u20$core..ops..deref..Deref$GT$5deref17h067122a1bc27f4b7E', symObjAddr: 0xA6C, symBinAddr: 0xD8F4, symSize: 0x1C }
  - { offset: 0x7DF76, size: 0x8, addend: 0x0, symName: '__ZN73_$LT$alloc..sync..Arc$LT$T$C$A$GT$$u20$as$u20$core..ops..deref..Deref$GT$5deref17h1fbeb6c3d201f1e0E', symObjAddr: 0xA88, symBinAddr: 0xD910, symSize: 0x34 }
  - { offset: 0x7DFE9, size: 0x8, addend: 0x0, symName: '__ZN73_$LT$alloc..sync..Arc$LT$T$C$A$GT$$u20$as$u20$core..ops..deref..Deref$GT$5deref17h4010f8fcb5318dfaE', symObjAddr: 0xABC, symBinAddr: 0xD944, symSize: 0x1C }
  - { offset: 0x7E05C, size: 0x8, addend: 0x0, symName: '__ZN73_$LT$alloc..sync..Arc$LT$T$C$A$GT$$u20$as$u20$core..ops..deref..Deref$GT$5deref17h9f12ed688c841fd7E', symObjAddr: 0xAD8, symBinAddr: 0xD960, symSize: 0x34 }
  - { offset: 0x7E0CF, size: 0x8, addend: 0x0, symName: '__ZN73_$LT$alloc..sync..Arc$LT$T$C$A$GT$$u20$as$u20$core..ops..deref..Deref$GT$5deref17hd0f8469a6d9a05a3E', symObjAddr: 0xB0C, symBinAddr: 0xD994, symSize: 0x34 }
  - { offset: 0x7E142, size: 0x8, addend: 0x0, symName: '__ZN73_$LT$alloc..sync..Arc$LT$T$C$A$GT$$u20$as$u20$core..ops..deref..Deref$GT$5deref17hf0b3824f7c1559c1E', symObjAddr: 0xB40, symBinAddr: 0xD9C8, symSize: 0x1C }
  - { offset: 0x7EDFA, size: 0x8, addend: 0x0, symName: '__ZN5alloc4sync12Arc$LT$T$GT$3new17h095ae075317bf707E', symObjAddr: 0x0, symBinAddr: 0xCE88, symSize: 0xB8 }
  - { offset: 0x7F8CE, size: 0x8, addend: 0x0, symName: '__ZN5alloc4sync12Arc$LT$T$GT$3new17h0bdc326228ed92deE', symObjAddr: 0xB8, symBinAddr: 0xCF40, symSize: 0xC8 }
  - { offset: 0x8065C, size: 0x8, addend: 0x0, symName: '__ZN5alloc4sync12Arc$LT$T$GT$3new17h0c103d4e4900db8eE', symObjAddr: 0x180, symBinAddr: 0xD008, symSize: 0xC8 }
  - { offset: 0x8082F, size: 0x8, addend: 0x0, symName: '__ZN5alloc4sync12Arc$LT$T$GT$3new17h27a87547a2c2d22aE', symObjAddr: 0x248, symBinAddr: 0xD0D0, symSize: 0xB8 }
  - { offset: 0x8101A, size: 0x8, addend: 0x0, symName: '__ZN5alloc4sync12Arc$LT$T$GT$3new17ha003e3c07d33081fE', symObjAddr: 0x300, symBinAddr: 0xD188, symSize: 0xC0 }
  - { offset: 0x81569, size: 0x8, addend: 0x0, symName: '__ZN5alloc4sync12Arc$LT$T$GT$3new17ha00e4571811095e6E', symObjAddr: 0x3C0, symBinAddr: 0xD248, symSize: 0xC4 }
  - { offset: 0x81882, size: 0x8, addend: 0x0, symName: '__ZN5alloc4sync12Arc$LT$T$GT$3new17hd06745fbfdea1afdE', symObjAddr: 0x484, symBinAddr: 0xD30C, symSize: 0xD0 }
  - { offset: 0x819E2, size: 0x8, addend: 0x0, symName: '__ZN5alloc4sync16Arc$LT$T$C$A$GT$9drop_slow17h2abe95abcf40c505E', symObjAddr: 0x554, symBinAddr: 0xD3DC, symSize: 0x74 }
  - { offset: 0x81A42, size: 0x8, addend: 0x0, symName: '__ZN5alloc4sync16Arc$LT$T$C$A$GT$9drop_slow17h466893dbd426a203E', symObjAddr: 0x5C8, symBinAddr: 0xD450, symSize: 0x74 }
  - { offset: 0x81AA2, size: 0x8, addend: 0x0, symName: '__ZN5alloc4sync16Arc$LT$T$C$A$GT$9drop_slow17h6bcae45a3f707507E', symObjAddr: 0x63C, symBinAddr: 0xD4C4, symSize: 0x74 }
  - { offset: 0x81B02, size: 0x8, addend: 0x0, symName: '__ZN5alloc4sync16Arc$LT$T$C$A$GT$9drop_slow17he79b2b8fff1d0e97E', symObjAddr: 0x6B0, symBinAddr: 0xD538, symSize: 0x74 }
  - { offset: 0x821CF, size: 0x8, addend: 0x0, symName: __ZN5alloc3vec16in_place_collect18from_iter_in_place17h257dbc5e17866919E, symObjAddr: 0x0, symBinAddr: 0xD9E4, symSize: 0x40C }
  - { offset: 0x83437, size: 0x8, addend: 0x0, symName: __ZN5alloc3vec16in_place_collect18from_iter_in_place17h257dbc5e17866919E, symObjAddr: 0x0, symBinAddr: 0xD9E4, symSize: 0x40C }
  - { offset: 0x83A28, size: 0x8, addend: 0x0, symName: '__ZN5alloc3vec16in_place_collect24write_in_place_with_drop28_$u7b$$u7b$closure$u7d$$u7d$17h7045adac7d24d296E', symObjAddr: 0x40C, symBinAddr: 0xDDF0, symSize: 0x60 }
  - { offset: 0x867A5, size: 0x8, addend: 0x0, symName: __ZN4core3ptr5write17h57359056070d07acE, symObjAddr: 0xC4, symBinAddr: 0xDE50, symSize: 0x24 }
  - { offset: 0x867E7, size: 0x8, addend: 0x0, symName: __ZN4core3ptr5write17h67444477aaa0bce7E, symObjAddr: 0xE8, symBinAddr: 0xDE74, symSize: 0x1C }
  - { offset: 0x86829, size: 0x8, addend: 0x0, symName: __ZN4core3ptr5write17hf8c9a11a4c843203E, symObjAddr: 0x104, symBinAddr: 0xDE90, symSize: 0x2C }
  - { offset: 0x8C57C, size: 0x8, addend: 0x0, symName: '__ZN106_$LT$core..ops..range..Range$LT$usize$GT$$u20$as$u20$core..slice..index..SliceIndex$LT$$u5b$T$u5d$$GT$$GT$9index_mut17h118afccbae177370E', symObjAddr: 0x0, symBinAddr: 0xDEBC, symSize: 0xC0 }
  - { offset: 0x8D944, size: 0x8, addend: 0x0, symName: '__ZN106_$LT$core..ops..range..Range$LT$usize$GT$$u20$as$u20$core..slice..index..SliceIndex$LT$$u5b$T$u5d$$GT$$GT$9index_mut17h118afccbae177370E', symObjAddr: 0x0, symBinAddr: 0xDEBC, symSize: 0xC0 }
  - { offset: 0x8D9F5, size: 0x8, addend: 0x0, symName: '__ZN106_$LT$core..ops..range..Range$LT$usize$GT$$u20$as$u20$core..slice..index..SliceIndex$LT$$u5b$T$u5d$$GT$$GT$9index_mut17h66cb5dbe814bec88E', symObjAddr: 0xC0, symBinAddr: 0xDF7C, symSize: 0xC8 }
  - { offset: 0x8DB6D, size: 0x8, addend: 0x0, symName: '__ZN108_$LT$core..ops..range..RangeTo$LT$usize$GT$$u20$as$u20$core..slice..index..SliceIndex$LT$$u5b$T$u5d$$GT$$GT$9index_mut17h5a83e015333841a9E', symObjAddr: 0x188, symBinAddr: 0xE044, symSize: 0x54 }
  - { offset: 0x8DBED, size: 0x8, addend: 0x0, symName: '__ZN110_$LT$core..ops..range..RangeFrom$LT$usize$GT$$u20$as$u20$core..slice..index..SliceIndex$LT$$u5b$T$u5d$$GT$$GT$5index17hfc3b1ee827cda650E', symObjAddr: 0x1DC, symBinAddr: 0xE098, symSize: 0x90 }
  - { offset: 0x8DCED, size: 0x8, addend: 0x0, symName: '__ZN110_$LT$core..ops..range..RangeFrom$LT$usize$GT$$u20$as$u20$core..slice..index..SliceIndex$LT$$u5b$T$u5d$$GT$$GT$9index_mut17h73a85cd9d108fc9fE', symObjAddr: 0x26C, symBinAddr: 0xE128, symSize: 0xA8 }
  - { offset: 0x8EED7, size: 0x8, addend: 0x0, symName: __ZN5tokio7runtime7context13set_scheduler17h02b441af0ca4b44cE, symObjAddr: 0x0, symBinAddr: 0xE1D0, symSize: 0x48 }
  - { offset: 0x8F0EB, size: 0x8, addend: 0x0, symName: __ZN5tokio7runtime7context13set_scheduler17h02b441af0ca4b44cE, symObjAddr: 0x0, symBinAddr: 0xE1D0, symSize: 0x48 }
  - { offset: 0x8F138, size: 0x8, addend: 0x0, symName: __ZN5tokio7runtime7context13set_scheduler17h3cb0f1aee84a478fE, symObjAddr: 0x48, symBinAddr: 0xE218, symSize: 0x48 }
  - { offset: 0x8F185, size: 0x8, addend: 0x0, symName: __ZN5tokio7runtime7context13set_scheduler17h5ec69888d565ba47E, symObjAddr: 0x90, symBinAddr: 0xE260, symSize: 0x48 }
  - { offset: 0x8F1D2, size: 0x8, addend: 0x0, symName: __ZN5tokio7runtime7context13set_scheduler17ha37764ed0c392a93E, symObjAddr: 0xD8, symBinAddr: 0xE2A8, symSize: 0x48 }
  - { offset: 0x8F21F, size: 0x8, addend: 0x0, symName: __ZN5tokio7runtime7context13set_scheduler17hb056e5056c1a16bdE, symObjAddr: 0x120, symBinAddr: 0xE2F0, symSize: 0x48 }
  - { offset: 0x8F26C, size: 0x8, addend: 0x0, symName: __ZN5tokio7runtime7context13set_scheduler17hcd7c7fe03d31aac1E, symObjAddr: 0x168, symBinAddr: 0xE338, symSize: 0x48 }
  - { offset: 0x8F2B9, size: 0x8, addend: 0x0, symName: __ZN5tokio7runtime7context13set_scheduler17hd4bf5d22743daf36E, symObjAddr: 0x1B0, symBinAddr: 0xE380, symSize: 0x48 }
  - { offset: 0x8F306, size: 0x8, addend: 0x0, symName: __ZN5tokio7runtime7context13set_scheduler17hee665b55ca16a5c6E, symObjAddr: 0x1F8, symBinAddr: 0xE3C8, symSize: 0x48 }
  - { offset: 0x8F358, size: 0x8, addend: 0x0, symName: '__ZN5tokio7runtime7context13set_scheduler28_$u7b$$u7b$closure$u7d$$u7d$17h1ba025e87f39806bE', symObjAddr: 0x240, symBinAddr: 0xE410, symSize: 0x40 }
  - { offset: 0x8F3B6, size: 0x8, addend: 0x0, symName: '__ZN5tokio7runtime7context13set_scheduler28_$u7b$$u7b$closure$u7d$$u7d$17h7af1b8270b734c3bE', symObjAddr: 0x280, symBinAddr: 0xE450, symSize: 0x40 }
  - { offset: 0x8F414, size: 0x8, addend: 0x0, symName: '__ZN5tokio7runtime7context13set_scheduler28_$u7b$$u7b$closure$u7d$$u7d$17hb4027ddd5663e93cE', symObjAddr: 0x2C0, symBinAddr: 0xE490, symSize: 0x40 }
  - { offset: 0x8F472, size: 0x8, addend: 0x0, symName: '__ZN5tokio7runtime7context13set_scheduler28_$u7b$$u7b$closure$u7d$$u7d$17hb40864e7e70ad08fE', symObjAddr: 0x300, symBinAddr: 0xE4D0, symSize: 0x40 }
  - { offset: 0x8F4D0, size: 0x8, addend: 0x0, symName: '__ZN5tokio7runtime7context13set_scheduler28_$u7b$$u7b$closure$u7d$$u7d$17hbb8b4c9a65eb18f8E', symObjAddr: 0x340, symBinAddr: 0xE510, symSize: 0x40 }
  - { offset: 0x8F52E, size: 0x8, addend: 0x0, symName: '__ZN5tokio7runtime7context13set_scheduler28_$u7b$$u7b$closure$u7d$$u7d$17hc62205badae51756E', symObjAddr: 0x380, symBinAddr: 0xE550, symSize: 0x40 }
  - { offset: 0x8F58C, size: 0x8, addend: 0x0, symName: '__ZN5tokio7runtime7context13set_scheduler28_$u7b$$u7b$closure$u7d$$u7d$17hddca92ef5cbd53f8E', symObjAddr: 0x3C0, symBinAddr: 0xE590, symSize: 0x40 }
  - { offset: 0x8F5EA, size: 0x8, addend: 0x0, symName: '__ZN5tokio7runtime7context13set_scheduler28_$u7b$$u7b$closure$u7d$$u7d$17hf79baf3eb0a7d672E', symObjAddr: 0x400, symBinAddr: 0xE5D0, symSize: 0x40 }
  - { offset: 0x8F649, size: 0x8, addend: 0x0, symName: __ZN5tokio7runtime7context6budget17h124570566d29168aE, symObjAddr: 0x440, symBinAddr: 0xE610, symSize: 0x30 }
  - { offset: 0x8F687, size: 0x8, addend: 0x0, symName: __ZN5tokio7runtime7context6budget17h16222f9d483f5046E, symObjAddr: 0x470, symBinAddr: 0xE640, symSize: 0x30 }
  - { offset: 0x8F6C5, size: 0x8, addend: 0x0, symName: __ZN5tokio7runtime7context6budget17h184a1c483f4106b7E, symObjAddr: 0x4A0, symBinAddr: 0xE670, symSize: 0x30 }
  - { offset: 0x8F703, size: 0x8, addend: 0x0, symName: __ZN5tokio7runtime7context6budget17h2ed26e7929f33966E, symObjAddr: 0x4D0, symBinAddr: 0xE6A0, symSize: 0x30 }
  - { offset: 0x8F741, size: 0x8, addend: 0x0, symName: __ZN5tokio7runtime7context6budget17h3293485264c136afE, symObjAddr: 0x500, symBinAddr: 0xE6D0, symSize: 0x30 }
  - { offset: 0x8F77F, size: 0x8, addend: 0x0, symName: __ZN5tokio7runtime7context6budget17h46fe434fe0e1e892E, symObjAddr: 0x530, symBinAddr: 0xE700, symSize: 0x30 }
  - { offset: 0x8F7BD, size: 0x8, addend: 0x0, symName: __ZN5tokio7runtime7context6budget17h5dc916e8e262a549E, symObjAddr: 0x560, symBinAddr: 0xE730, symSize: 0x30 }
  - { offset: 0x8F7FB, size: 0x8, addend: 0x0, symName: __ZN5tokio7runtime7context6budget17h64265854548e6bfbE, symObjAddr: 0x590, symBinAddr: 0xE760, symSize: 0x30 }
  - { offset: 0x8F839, size: 0x8, addend: 0x0, symName: __ZN5tokio7runtime7context6budget17h68cdd2178acda1c7E, symObjAddr: 0x5C0, symBinAddr: 0xE790, symSize: 0x30 }
  - { offset: 0x8F877, size: 0x8, addend: 0x0, symName: __ZN5tokio7runtime7context6budget17h73a2d4f9eae62516E, symObjAddr: 0x5F0, symBinAddr: 0xE7C0, symSize: 0x30 }
  - { offset: 0x8F8B5, size: 0x8, addend: 0x0, symName: __ZN5tokio7runtime7context6budget17h81c378d3a31d9986E, symObjAddr: 0x620, symBinAddr: 0xE7F0, symSize: 0x30 }
  - { offset: 0x8F8F3, size: 0x8, addend: 0x0, symName: __ZN5tokio7runtime7context6budget17h863ccc77950843e2E, symObjAddr: 0x650, symBinAddr: 0xE820, symSize: 0x30 }
  - { offset: 0x8F931, size: 0x8, addend: 0x0, symName: __ZN5tokio7runtime7context6budget17h88b4fcffe111095eE, symObjAddr: 0x680, symBinAddr: 0xE850, symSize: 0x30 }
  - { offset: 0x8F96F, size: 0x8, addend: 0x0, symName: __ZN5tokio7runtime7context6budget17ha3f6c816646f3cdaE, symObjAddr: 0x6B0, symBinAddr: 0xE880, symSize: 0x30 }
  - { offset: 0x8F9AD, size: 0x8, addend: 0x0, symName: __ZN5tokio7runtime7context6budget17ha65e3bb2c63011eeE, symObjAddr: 0x6E0, symBinAddr: 0xE8B0, symSize: 0x30 }
  - { offset: 0x8F9EB, size: 0x8, addend: 0x0, symName: __ZN5tokio7runtime7context6budget17ha9cd3c0226bd987eE, symObjAddr: 0x710, symBinAddr: 0xE8E0, symSize: 0x30 }
  - { offset: 0x8FA29, size: 0x8, addend: 0x0, symName: __ZN5tokio7runtime7context6budget17hb708b2f2f5119e6dE, symObjAddr: 0x740, symBinAddr: 0xE910, symSize: 0x30 }
  - { offset: 0x8FA67, size: 0x8, addend: 0x0, symName: __ZN5tokio7runtime7context6budget17hb794bde84b4e34e9E, symObjAddr: 0x770, symBinAddr: 0xE940, symSize: 0x30 }
  - { offset: 0x8FAA5, size: 0x8, addend: 0x0, symName: __ZN5tokio7runtime7context6budget17hb9ddf92808dd2d1fE, symObjAddr: 0x7A0, symBinAddr: 0xE970, symSize: 0x30 }
  - { offset: 0x8FAE3, size: 0x8, addend: 0x0, symName: __ZN5tokio7runtime7context6budget17hbe2a050d67ccf120E, symObjAddr: 0x7D0, symBinAddr: 0xE9A0, symSize: 0x30 }
  - { offset: 0x8FB21, size: 0x8, addend: 0x0, symName: __ZN5tokio7runtime7context6budget17hbe514652f45d2357E, symObjAddr: 0x800, symBinAddr: 0xE9D0, symSize: 0x30 }
  - { offset: 0x8FB5F, size: 0x8, addend: 0x0, symName: __ZN5tokio7runtime7context6budget17hc417a44a1fb37d85E, symObjAddr: 0x830, symBinAddr: 0xEA00, symSize: 0x30 }
  - { offset: 0x8FB9D, size: 0x8, addend: 0x0, symName: __ZN5tokio7runtime7context6budget17hcb5c5c64a3e8f053E, symObjAddr: 0x860, symBinAddr: 0xEA30, symSize: 0x30 }
  - { offset: 0x8FBDB, size: 0x8, addend: 0x0, symName: __ZN5tokio7runtime7context6budget17hcdd9228d21478f4dE, symObjAddr: 0x890, symBinAddr: 0xEA60, symSize: 0x30 }
  - { offset: 0x8FC19, size: 0x8, addend: 0x0, symName: __ZN5tokio7runtime7context6budget17hd24e4c02f59582d1E, symObjAddr: 0x8C0, symBinAddr: 0xEA90, symSize: 0x30 }
  - { offset: 0x8FC57, size: 0x8, addend: 0x0, symName: __ZN5tokio7runtime7context6budget17hd74693445c6f122eE, symObjAddr: 0x8F0, symBinAddr: 0xEAC0, symSize: 0x30 }
  - { offset: 0x8FC95, size: 0x8, addend: 0x0, symName: __ZN5tokio7runtime7context6budget17he46dd6260852e259E, symObjAddr: 0x920, symBinAddr: 0xEAF0, symSize: 0x30 }
  - { offset: 0x8FCD3, size: 0x8, addend: 0x0, symName: __ZN5tokio7runtime7context6budget17he9a2f66287d5399eE, symObjAddr: 0x950, symBinAddr: 0xEB20, symSize: 0x30 }
  - { offset: 0x8FD11, size: 0x8, addend: 0x0, symName: __ZN5tokio7runtime7context6budget17hea72f639d4980f4fE, symObjAddr: 0x980, symBinAddr: 0xEB50, symSize: 0x30 }
  - { offset: 0x8FD4F, size: 0x8, addend: 0x0, symName: __ZN5tokio7runtime7context6budget17hec16e29909f30d0fE, symObjAddr: 0x9B0, symBinAddr: 0xEB80, symSize: 0x30 }
  - { offset: 0x8FD8D, size: 0x8, addend: 0x0, symName: __ZN5tokio7runtime7context6budget17hf1f79883096d9d92E, symObjAddr: 0x9E0, symBinAddr: 0xEBB0, symSize: 0x30 }
  - { offset: 0x8FDCB, size: 0x8, addend: 0x0, symName: __ZN5tokio7runtime7context6budget17hf47a2d9af1e5ea64E, symObjAddr: 0xA10, symBinAddr: 0xEBE0, symSize: 0x30 }
  - { offset: 0x8FE0E, size: 0x8, addend: 0x0, symName: '__ZN5tokio7runtime7context6budget28_$u7b$$u7b$closure$u7d$$u7d$17h0d851ddc237fb568E', symObjAddr: 0xA40, symBinAddr: 0xEC10, symSize: 0x30 }
  - { offset: 0x8FE5B, size: 0x8, addend: 0x0, symName: '__ZN5tokio7runtime7context6budget28_$u7b$$u7b$closure$u7d$$u7d$17h137e33ae39552089E', symObjAddr: 0xA70, symBinAddr: 0xEC40, symSize: 0x30 }
  - { offset: 0x8FEA8, size: 0x8, addend: 0x0, symName: '__ZN5tokio7runtime7context6budget28_$u7b$$u7b$closure$u7d$$u7d$17h1492a989f892bc0bE', symObjAddr: 0xAA0, symBinAddr: 0xEC70, symSize: 0x30 }
  - { offset: 0x8FEF5, size: 0x8, addend: 0x0, symName: '__ZN5tokio7runtime7context6budget28_$u7b$$u7b$closure$u7d$$u7d$17h2accb754d1611c1cE', symObjAddr: 0xAD0, symBinAddr: 0xECA0, symSize: 0x30 }
  - { offset: 0x8FF42, size: 0x8, addend: 0x0, symName: '__ZN5tokio7runtime7context6budget28_$u7b$$u7b$closure$u7d$$u7d$17h3400607d86c05685E', symObjAddr: 0xB00, symBinAddr: 0xECD0, symSize: 0x30 }
  - { offset: 0x8FF8F, size: 0x8, addend: 0x0, symName: '__ZN5tokio7runtime7context6budget28_$u7b$$u7b$closure$u7d$$u7d$17h374d173145604982E', symObjAddr: 0xB30, symBinAddr: 0xED00, symSize: 0x30 }
  - { offset: 0x8FFDC, size: 0x8, addend: 0x0, symName: '__ZN5tokio7runtime7context6budget28_$u7b$$u7b$closure$u7d$$u7d$17h47b70e60c20ad639E', symObjAddr: 0xB60, symBinAddr: 0xED30, symSize: 0x30 }
  - { offset: 0x90029, size: 0x8, addend: 0x0, symName: '__ZN5tokio7runtime7context6budget28_$u7b$$u7b$closure$u7d$$u7d$17h498becc75b8269f2E', symObjAddr: 0xB90, symBinAddr: 0xED60, symSize: 0x30 }
  - { offset: 0x90076, size: 0x8, addend: 0x0, symName: '__ZN5tokio7runtime7context6budget28_$u7b$$u7b$closure$u7d$$u7d$17h5da5963ad8c1b38aE', symObjAddr: 0xBC0, symBinAddr: 0xED90, symSize: 0x30 }
  - { offset: 0x900C3, size: 0x8, addend: 0x0, symName: '__ZN5tokio7runtime7context6budget28_$u7b$$u7b$closure$u7d$$u7d$17h602eb39e94f8435bE', symObjAddr: 0xBF0, symBinAddr: 0xEDC0, symSize: 0x30 }
  - { offset: 0x90110, size: 0x8, addend: 0x0, symName: '__ZN5tokio7runtime7context6budget28_$u7b$$u7b$closure$u7d$$u7d$17h7175e08bbb2dd34aE', symObjAddr: 0xC20, symBinAddr: 0xEDF0, symSize: 0x30 }
  - { offset: 0x9015D, size: 0x8, addend: 0x0, symName: '__ZN5tokio7runtime7context6budget28_$u7b$$u7b$closure$u7d$$u7d$17h77957466326a9d4eE', symObjAddr: 0xC50, symBinAddr: 0xEE20, symSize: 0x30 }
  - { offset: 0x901AA, size: 0x8, addend: 0x0, symName: '__ZN5tokio7runtime7context6budget28_$u7b$$u7b$closure$u7d$$u7d$17h7eb7b9a449a26008E', symObjAddr: 0xC80, symBinAddr: 0xEE50, symSize: 0x30 }
  - { offset: 0x901F7, size: 0x8, addend: 0x0, symName: '__ZN5tokio7runtime7context6budget28_$u7b$$u7b$closure$u7d$$u7d$17h7fec0979c969d942E', symObjAddr: 0xCB0, symBinAddr: 0xEE80, symSize: 0x30 }
  - { offset: 0x90244, size: 0x8, addend: 0x0, symName: '__ZN5tokio7runtime7context6budget28_$u7b$$u7b$closure$u7d$$u7d$17h8f3a57c72c2ef7aaE', symObjAddr: 0xCE0, symBinAddr: 0xEEB0, symSize: 0x30 }
  - { offset: 0x90291, size: 0x8, addend: 0x0, symName: '__ZN5tokio7runtime7context6budget28_$u7b$$u7b$closure$u7d$$u7d$17h969e22897881d6eaE', symObjAddr: 0xD10, symBinAddr: 0xEEE0, symSize: 0x30 }
  - { offset: 0x902DE, size: 0x8, addend: 0x0, symName: '__ZN5tokio7runtime7context6budget28_$u7b$$u7b$closure$u7d$$u7d$17h984860c08b939a69E', symObjAddr: 0xD40, symBinAddr: 0xEF10, symSize: 0x30 }
  - { offset: 0x9032B, size: 0x8, addend: 0x0, symName: '__ZN5tokio7runtime7context6budget28_$u7b$$u7b$closure$u7d$$u7d$17h98eb0888c5f53e9dE', symObjAddr: 0xD70, symBinAddr: 0xEF40, symSize: 0x30 }
  - { offset: 0x90378, size: 0x8, addend: 0x0, symName: '__ZN5tokio7runtime7context6budget28_$u7b$$u7b$closure$u7d$$u7d$17h9fa8aba2e832a365E', symObjAddr: 0xDA0, symBinAddr: 0xEF70, symSize: 0x30 }
  - { offset: 0x903C5, size: 0x8, addend: 0x0, symName: '__ZN5tokio7runtime7context6budget28_$u7b$$u7b$closure$u7d$$u7d$17ha23b9b4969a0baf2E', symObjAddr: 0xDD0, symBinAddr: 0xEFA0, symSize: 0x30 }
  - { offset: 0x90412, size: 0x8, addend: 0x0, symName: '__ZN5tokio7runtime7context6budget28_$u7b$$u7b$closure$u7d$$u7d$17ha6fa101a58c2f820E', symObjAddr: 0xE00, symBinAddr: 0xEFD0, symSize: 0x30 }
  - { offset: 0x9045F, size: 0x8, addend: 0x0, symName: '__ZN5tokio7runtime7context6budget28_$u7b$$u7b$closure$u7d$$u7d$17hacb3b46e89b106eeE', symObjAddr: 0xE30, symBinAddr: 0xF000, symSize: 0x30 }
  - { offset: 0x904AC, size: 0x8, addend: 0x0, symName: '__ZN5tokio7runtime7context6budget28_$u7b$$u7b$closure$u7d$$u7d$17hafe8506e957f3848E', symObjAddr: 0xE60, symBinAddr: 0xF030, symSize: 0x30 }
  - { offset: 0x904F9, size: 0x8, addend: 0x0, symName: '__ZN5tokio7runtime7context6budget28_$u7b$$u7b$closure$u7d$$u7d$17hc3bc65235aa545cdE', symObjAddr: 0xE90, symBinAddr: 0xF060, symSize: 0x30 }
  - { offset: 0x90546, size: 0x8, addend: 0x0, symName: '__ZN5tokio7runtime7context6budget28_$u7b$$u7b$closure$u7d$$u7d$17hc8ce398a87404635E', symObjAddr: 0xEC0, symBinAddr: 0xF090, symSize: 0x30 }
  - { offset: 0x90593, size: 0x8, addend: 0x0, symName: '__ZN5tokio7runtime7context6budget28_$u7b$$u7b$closure$u7d$$u7d$17hcaca460b2e30258bE', symObjAddr: 0xEF0, symBinAddr: 0xF0C0, symSize: 0x30 }
  - { offset: 0x905E0, size: 0x8, addend: 0x0, symName: '__ZN5tokio7runtime7context6budget28_$u7b$$u7b$closure$u7d$$u7d$17hd74a6cc83273e3c3E', symObjAddr: 0xF20, symBinAddr: 0xF0F0, symSize: 0x30 }
  - { offset: 0x9062D, size: 0x8, addend: 0x0, symName: '__ZN5tokio7runtime7context6budget28_$u7b$$u7b$closure$u7d$$u7d$17hed8aa9cbc959b5feE', symObjAddr: 0xF50, symBinAddr: 0xF120, symSize: 0x30 }
  - { offset: 0x9067A, size: 0x8, addend: 0x0, symName: '__ZN5tokio7runtime7context6budget28_$u7b$$u7b$closure$u7d$$u7d$17hf502bd72c402c5d3E', symObjAddr: 0xF80, symBinAddr: 0xF150, symSize: 0x30 }
  - { offset: 0x906C7, size: 0x8, addend: 0x0, symName: '__ZN5tokio7runtime7context6budget28_$u7b$$u7b$closure$u7d$$u7d$17hf6d9841e4680ed90E', symObjAddr: 0xFB0, symBinAddr: 0xF180, symSize: 0x30 }
  - { offset: 0x90714, size: 0x8, addend: 0x0, symName: '__ZN5tokio7runtime7context6budget28_$u7b$$u7b$closure$u7d$$u7d$17hf8805d63622616f6E', symObjAddr: 0xFE0, symBinAddr: 0xF1B0, symSize: 0x30 }
  - { offset: 0x90761, size: 0x8, addend: 0x0, symName: '__ZN5tokio7runtime7context6budget28_$u7b$$u7b$closure$u7d$$u7d$17hfcd171e6fba88834E', symObjAddr: 0x1010, symBinAddr: 0xF1E0, symSize: 0x30 }
  - { offset: 0x9BF7B, size: 0x8, addend: 0x0, symName: '__ZN68_$LT$effect_log_core..types..Outcome$u20$as$u20$core..fmt..Debug$GT$3fmt17h839ad1d9d5ff2ea6E', symObjAddr: 0x0, symBinAddr: 0xF210, symSize: 0x11C }
  - { offset: 0x9C285, size: 0x8, addend: 0x0, symName: '__ZN68_$LT$effect_log_core..types..Outcome$u20$as$u20$core..fmt..Debug$GT$3fmt17h839ad1d9d5ff2ea6E', symObjAddr: 0x0, symBinAddr: 0xF210, symSize: 0x11C }
  - { offset: 0x9C2F1, size: 0x8, addend: 0x0, symName: '__ZN71_$LT$effect_log_core..types..EffectKind$u20$as$u20$core..fmt..Debug$GT$3fmt17hf7df1f6f435422a5E', symObjAddr: 0x11C, symBinAddr: 0xF32C, symSize: 0xF4 }
  - { offset: 0x9C331, size: 0x8, addend: 0x0, symName: '__ZN73_$LT$effect_log_core..types..EffectKind$u20$as$u20$core..clone..Clone$GT$5clone17h5486263f3e3f8903E', symObjAddr: 0x210, symBinAddr: 0xF420, symSize: 0x18 }
  - { offset: 0x9C363, size: 0x8, addend: 0x0, symName: '__ZN79_$LT$effect_log_core..types..RecoveryAction$u20$as$u20$core..cmp..PartialEq$GT$2eq17h4fd3ec487b116190E', symObjAddr: 0x228, symBinAddr: 0xF438, symSize: 0x34 }
  - { offset: 0x9C3DD, size: 0x8, addend: 0x0, symName: '__ZN81_$LT$effect_log_core..types..ReadRecoveryPolicy$u20$as$u20$core..clone..Clone$GT$5clone17h35a328180b5d590bE', symObjAddr: 0x25C, symBinAddr: 0xF46C, symSize: 0x1C }
  - { offset: 0x9C4BE, size: 0x8, addend: 0x0, symName: '__ZN17effect_log_native123_$LT$impl$u20$core..convert..From$LT$effect_log_native..PyEffectKind$GT$$u20$for$u20$effect_log_core..types..EffectKind$GT$4from17h2e36791e47d14f15E', symObjAddr: 0x278, symBinAddr: 0xF488, symSize: 0x94 }
  - { offset: 0x9C5C3, size: 0x8, addend: 0x0, symName: '__ZN62_$LT$rusqlite..OpenFlags$u20$as$u20$core..default..Default$GT$7default17hd8048c2e0a2d0aebE', symObjAddr: 0x0, symBinAddr: 0xF51C, symSize: 0xC4 }
  - { offset: 0x9C5DA, size: 0x8, addend: 0x0, symName: '__ZN62_$LT$rusqlite..OpenFlags$u20$as$u20$core..default..Default$GT$7default17hd8048c2e0a2d0aebE', symObjAddr: 0x0, symBinAddr: 0xF51C, symSize: 0xC4 }
  - { offset: 0x9C633, size: 0x8, addend: 0x0, symName: '__ZN8rusqlite1_71_$LT$impl$u20$core..ops..bit..BitOr$u20$for$u20$rusqlite..OpenFlags$GT$5bitor17h891c7c8d925648cfE', symObjAddr: 0x120, symBinAddr: 0xF63C, symSize: 0x6C }
  - { offset: 0x9C6AA, size: 0x8, addend: 0x0, symName: __ZN8rusqlite1_16InternalBitFlags5union17h18231cb2052d4692E, symObjAddr: 0xC4, symBinAddr: 0xF5E0, symSize: 0x18 }
  - { offset: 0x9C6DC, size: 0x8, addend: 0x0, symName: '__ZN8rusqlite1_37_$LT$impl$u20$rusqlite..OpenFlags$GT$5union17hdcfd794cc5e82eb4E', symObjAddr: 0xDC, symBinAddr: 0xF5F8, symSize: 0x44 }
  - { offset: 0x9C72C, size: 0x8, addend: 0x0, symName: '__ZN4pyo35types10boolobject65_$LT$impl$u20$pyo3..conversion..IntoPyObject$u20$for$u20$bool$GT$13into_pyobject17h71af836718681e20E', symObjAddr: 0x0, symBinAddr: 0xF6A8, symSize: 0x28 }
  - { offset: 0x9D8EF, size: 0x8, addend: 0x0, symName: '__ZN4pyo35types10boolobject65_$LT$impl$u20$pyo3..conversion..IntoPyObject$u20$for$u20$bool$GT$13into_pyobject17h71af836718681e20E', symObjAddr: 0x0, symBinAddr: 0xF6A8, symSize: 0x28 }
  - { offset: 0x9DF0E, size: 0x8, addend: 0x0, symName: __ZN4pyo35types10boolobject6PyBool3new17h24fef0434908d51bE, symObjAddr: 0x28, symBinAddr: 0xF6D0, symSize: 0x50 }
  - { offset: 0x9DF67, size: 0x8, addend: 0x0, symName: '__ZN106_$LT$core..ops..range..Range$LT$usize$GT$$u20$as$u20$core..slice..index..SliceIndex$LT$$u5b$T$u5d$$GT$$GT$13get_unchecked18precondition_check17h856344a9073ca7aaE', symObjAddr: 0x0, symBinAddr: 0xF720, symSize: 0xCC }
  - { offset: 0x9E293, size: 0x8, addend: 0x0, symName: '__ZN106_$LT$core..ops..range..Range$LT$usize$GT$$u20$as$u20$core..slice..index..SliceIndex$LT$$u5b$T$u5d$$GT$$GT$13get_unchecked18precondition_check17h856344a9073ca7aaE', symObjAddr: 0x0, symBinAddr: 0xF720, symSize: 0xCC }
  - { offset: 0x9E30F, size: 0x8, addend: 0x0, symName: '__ZN106_$LT$core..ops..range..Range$LT$usize$GT$$u20$as$u20$core..slice..index..SliceIndex$LT$$u5b$T$u5d$$GT$$GT$17get_unchecked_mut18precondition_check17h214ef0d16561d7b4E', symObjAddr: 0xCC, symBinAddr: 0xF7EC, symSize: 0xCC }
  - { offset: 0x9E391, size: 0x8, addend: 0x0, symName: '__ZN75_$LT$usize$u20$as$u20$core..slice..index..SliceIndex$LT$$u5b$T$u5d$$GT$$GT$13get_unchecked18precondition_check17he38431a0077a6a6dE', symObjAddr: 0x198, symBinAddr: 0xF8B8, symSize: 0xAC }
  - { offset: 0x9E5C5, size: 0x8, addend: 0x0, symName: '__ZN5alloc3vec13in_place_drop20InPlaceDrop$LT$T$GT$3len17hb59e45c4b286032bE', symObjAddr: 0x0, symBinAddr: 0xF964, symSize: 0x84 }
  - { offset: 0x9F3D1, size: 0x8, addend: 0x0, symName: '__ZN5alloc3vec13in_place_drop20InPlaceDrop$LT$T$GT$3len17hb59e45c4b286032bE', symObjAddr: 0x0, symBinAddr: 0xF964, symSize: 0x84 }
  - { offset: 0x9F490, size: 0x8, addend: 0x0, symName: '__ZN4pyo36pycell14PyRef$LT$T$GT$10try_borrow17h2d43f4a7e4808613E', symObjAddr: 0x0, symBinAddr: 0xF9E8, symSize: 0x4C }
  - { offset: 0xA2CA1, size: 0x8, addend: 0x0, symName: '__ZN50_$LT$T$u20$as$u20$core..convert..Into$LT$U$GT$$GT$4into17hf7b22b464acb14a5E', symObjAddr: 0x1D0, symBinAddr: 0xFBB8, symSize: 0x1C }
  - { offset: 0xA4D20, size: 0x8, addend: 0x0, symName: '__ZN4pyo36pycell14PyRef$LT$T$GT$10try_borrow28_$u7b$$u7b$closure$u7d$$u7d$17h042f52e9c9fcd924E', symObjAddr: 0xE4, symBinAddr: 0xFACC, symSize: 0x24 }
  - { offset: 0xA4D64, size: 0x8, addend: 0x0, symName: '__ZN4pyo36pycell14PyRef$LT$T$GT$10try_borrow28_$u7b$$u7b$closure$u7d$$u7d$17h7d9a816676a2e035E', symObjAddr: 0x108, symBinAddr: 0xFAF0, symSize: 0x24 }
  - { offset: 0xA4DA8, size: 0x8, addend: 0x0, symName: '__ZN4pyo36pycell14PyRef$LT$T$GT$10try_borrow28_$u7b$$u7b$closure$u7d$$u7d$17had510b506ca1f7c7E', symObjAddr: 0x12C, symBinAddr: 0xFB14, symSize: 0x24 }
  - { offset: 0xA4DF3, size: 0x8, addend: 0x0, symName: '__ZN72_$LT$pyo3..pycell..PyRef$LT$T$GT$$u20$as$u20$core..ops..deref..Deref$GT$5deref17h5c9cd7def9c261feE', symObjAddr: 0x254, symBinAddr: 0xFC3C, symSize: 0x74 }
  - { offset: 0xA4E2A, size: 0x8, addend: 0x0, symName: '__ZN72_$LT$pyo3..pycell..PyRef$LT$T$GT$$u20$as$u20$core..ops..deref..Deref$GT$5deref17h9778215e5b6135ebE', symObjAddr: 0x2C8, symBinAddr: 0xFCB0, symSize: 0x74 }
  - { offset: 0xA4E61, size: 0x8, addend: 0x0, symName: '__ZN72_$LT$pyo3..pycell..PyRef$LT$T$GT$$u20$as$u20$core..ops..deref..Deref$GT$5deref17hc9d864dd1785cfa7E', symObjAddr: 0x33C, symBinAddr: 0xFD24, symSize: 0x78 }
  - { offset: 0xA53B3, size: 0x8, addend: 0x0, symName: '__ZN57_$LT$T$u20$as$u20$pyo3..conversion..FromPyObjectBound$GT$20from_py_object_bound17h7adecd220ea6a0e4E', symObjAddr: 0x1EC, symBinAddr: 0xFBD4, symSize: 0x34 }
  - { offset: 0xA53EA, size: 0x8, addend: 0x0, symName: '__ZN57_$LT$T$u20$as$u20$pyo3..conversion..FromPyObjectBound$GT$20from_py_object_bound17he5a8c0ce07cd0135E', symObjAddr: 0x220, symBinAddr: 0xFC08, symSize: 0x34 }
  - { offset: 0xA5427, size: 0x8, addend: 0x0, symName: '__ZN79_$LT$pyo3..pycell..PyRef$LT$T$GT$$u20$as$u20$pyo3..conversion..FromPyObject$GT$13extract_bound17hcfa1ff6982c48c1bE', symObjAddr: 0x3B4, symBinAddr: 0xFD9C, symSize: 0x94 }
  - { offset: 0xA547C, size: 0x8, addend: 0x0, symName: '__ZN79_$LT$pyo3..pycell..PyRef$LT$T$GT$$u20$as$u20$pyo3..conversion..FromPyObject$GT$13extract_bound17heca350cfc83e3b2bE', symObjAddr: 0x448, symBinAddr: 0xFE30, symSize: 0x94 }
  - { offset: 0xA5A7C, size: 0x8, addend: 0x0, symName: '__ZN4pyo36pycell14PyRef$LT$T$GT$10try_borrow17h2d43f4a7e4808613E', symObjAddr: 0x0, symBinAddr: 0xF9E8, symSize: 0x4C }
  - { offset: 0xA833B, size: 0x8, addend: 0x0, symName: '__ZN4pyo36pycell14PyRef$LT$T$GT$10try_borrow17h5b25e86038b9f57bE', symObjAddr: 0x4C, symBinAddr: 0xFA34, symSize: 0x4C }
  - { offset: 0xA8392, size: 0x8, addend: 0x0, symName: '__ZN4pyo36pycell14PyRef$LT$T$GT$10try_borrow17hba7413a7289bfc20E', symObjAddr: 0x98, symBinAddr: 0xFA80, symSize: 0x4C }
  - { offset: 0xA8407, size: 0x8, addend: 0x0, symName: '__ZN4pyo36pycell14PyRef$LT$T$GT$6borrow17h37e773cbcfcd22b1E', symObjAddr: 0x150, symBinAddr: 0xFB38, symSize: 0x40 }
  - { offset: 0xA8433, size: 0x8, addend: 0x0, symName: '__ZN4pyo36pycell14PyRef$LT$T$GT$6borrow17hd4b21bcb359b10c9E', symObjAddr: 0x190, symBinAddr: 0xFB78, symSize: 0x40 }
  - { offset: 0xA8558, size: 0x8, addend: 0x0, symName: '__ZN5tokio4loom3std11unsafe_cell19UnsafeCell$LT$T$GT$3new17h1fed6a6c3ba0fd90E', symObjAddr: 0x0, symBinAddr: 0xFEC4, symSize: 0x48 }
  - { offset: 0xA8F44, size: 0x8, addend: 0x0, symName: '__ZN5tokio4loom3std11unsafe_cell19UnsafeCell$LT$T$GT$3new17h1fed6a6c3ba0fd90E', symObjAddr: 0x0, symBinAddr: 0xFEC4, symSize: 0x48 }
  - { offset: 0xA8FAC, size: 0x8, addend: 0x0, symName: '__ZN106_$LT$core..result..Result$LT$T$C$E$GT$$u20$as$u20$pyo3..impl_..callback..IntoPyCallbackOutput$LT$U$GT$$GT$7convert17h46ca2b1b86a98a0fE', symObjAddr: 0x0, symBinAddr: 0xFF0C, symSize: 0xA8 }
  - { offset: 0xA9B6C, size: 0x8, addend: 0x0, symName: '__ZN106_$LT$core..result..Result$LT$T$C$E$GT$$u20$as$u20$pyo3..impl_..callback..IntoPyCallbackOutput$LT$U$GT$$GT$7convert17h46ca2b1b86a98a0fE', symObjAddr: 0x0, symBinAddr: 0xFF0C, symSize: 0xA8 }
  - { offset: 0xA9C07, size: 0x8, addend: 0x0, symName: '__ZN106_$LT$core..result..Result$LT$T$C$E$GT$$u20$as$u20$pyo3..impl_..callback..IntoPyCallbackOutput$LT$U$GT$$GT$7convert17ha83d2507ce82f14dE', symObjAddr: 0xA8, symBinAddr: 0xFFB4, symSize: 0xA0 }
  - { offset: 0xAC997, size: 0x8, addend: 0x0, symName: '__ZN153_$LT$core..result..Result$LT$T$C$F$GT$$u20$as$u20$core..ops..try_trait..FromResidual$LT$core..result..Result$LT$core..convert..Infallible$C$E$GT$$GT$$GT$13from_residual17h016dc61a1e745b70E', symObjAddr: 0x148, symBinAddr: 0x10054, symSize: 0x18 }
  - { offset: 0xAC9FE, size: 0x8, addend: 0x0, symName: '__ZN153_$LT$core..result..Result$LT$T$C$F$GT$$u20$as$u20$core..ops..try_trait..FromResidual$LT$core..result..Result$LT$core..convert..Infallible$C$E$GT$$GT$$GT$13from_residual17h0613bdbbb6e6915aE', symObjAddr: 0x160, symBinAddr: 0x1006C, symSize: 0x6C }
  - { offset: 0xACA84, size: 0x8, addend: 0x0, symName: '__ZN153_$LT$core..result..Result$LT$T$C$F$GT$$u20$as$u20$core..ops..try_trait..FromResidual$LT$core..result..Result$LT$core..convert..Infallible$C$E$GT$$GT$$GT$13from_residual17h08c404e07e84eb45E', symObjAddr: 0x1CC, symBinAddr: 0x100D8, symSize: 0x6C }
  - { offset: 0xACB0A, size: 0x8, addend: 0x0, symName: '__ZN153_$LT$core..result..Result$LT$T$C$F$GT$$u20$as$u20$core..ops..try_trait..FromResidual$LT$core..result..Result$LT$core..convert..Infallible$C$E$GT$$GT$$GT$13from_residual17h1206b76131c621b8E', symObjAddr: 0x238, symBinAddr: 0x10144, symSize: 0x1C }
  - { offset: 0xACB71, size: 0x8, addend: 0x0, symName: '__ZN153_$LT$core..result..Result$LT$T$C$F$GT$$u20$as$u20$core..ops..try_trait..FromResidual$LT$core..result..Result$LT$core..convert..Infallible$C$E$GT$$GT$$GT$13from_residual17h15aec42dfbcb753eE', symObjAddr: 0x254, symBinAddr: 0x10160, symSize: 0x5C }
  - { offset: 0xACBF7, size: 0x8, addend: 0x0, symName: '__ZN153_$LT$core..result..Result$LT$T$C$F$GT$$u20$as$u20$core..ops..try_trait..FromResidual$LT$core..result..Result$LT$core..convert..Infallible$C$E$GT$$GT$$GT$13from_residual17h190e7653802ba173E', symObjAddr: 0x2B0, symBinAddr: 0x101BC, symSize: 0x3C }
  - { offset: 0xACC7C, size: 0x8, addend: 0x0, symName: '__ZN153_$LT$core..result..Result$LT$T$C$F$GT$$u20$as$u20$core..ops..try_trait..FromResidual$LT$core..result..Result$LT$core..convert..Infallible$C$E$GT$$GT$$GT$13from_residual17h20cf8d4c0f8aa85eE', symObjAddr: 0x2EC, symBinAddr: 0x101F8, symSize: 0x64 }
  - { offset: 0xACCE4, size: 0x8, addend: 0x0, symName: '__ZN153_$LT$core..result..Result$LT$T$C$F$GT$$u20$as$u20$core..ops..try_trait..FromResidual$LT$core..result..Result$LT$core..convert..Infallible$C$E$GT$$GT$$GT$13from_residual17h24be72045b49c151E', symObjAddr: 0x350, symBinAddr: 0x1025C, symSize: 0x1C }
  - { offset: 0xACD4B, size: 0x8, addend: 0x0, symName: '__ZN153_$LT$core..result..Result$LT$T$C$F$GT$$u20$as$u20$core..ops..try_trait..FromResidual$LT$core..result..Result$LT$core..convert..Infallible$C$E$GT$$GT$$GT$13from_residual17h29ec485eee64c4f8E', symObjAddr: 0x36C, symBinAddr: 0x10278, symSize: 0x6C }
  - { offset: 0xACDD1, size: 0x8, addend: 0x0, symName: '__ZN153_$LT$core..result..Result$LT$T$C$F$GT$$u20$as$u20$core..ops..try_trait..FromResidual$LT$core..result..Result$LT$core..convert..Infallible$C$E$GT$$GT$$GT$13from_residual17h3222cf7ecb9b927eE', symObjAddr: 0x3E0, symBinAddr: 0x102E4, symSize: 0x6C }
  - { offset: 0xACE57, size: 0x8, addend: 0x0, symName: '__ZN153_$LT$core..result..Result$LT$T$C$F$GT$$u20$as$u20$core..ops..try_trait..FromResidual$LT$core..result..Result$LT$core..convert..Infallible$C$E$GT$$GT$$GT$13from_residual17h40ec421ef8f6dfbcE', symObjAddr: 0x44C, symBinAddr: 0x10350, symSize: 0x6C }
  - { offset: 0xACEDD, size: 0x8, addend: 0x0, symName: '__ZN153_$LT$core..result..Result$LT$T$C$F$GT$$u20$as$u20$core..ops..try_trait..FromResidual$LT$core..result..Result$LT$core..convert..Infallible$C$E$GT$$GT$$GT$13from_residual17h451142249e8bcde1E', symObjAddr: 0x4B8, symBinAddr: 0x103BC, symSize: 0x1C }
  - { offset: 0xACF44, size: 0x8, addend: 0x0, symName: '__ZN153_$LT$core..result..Result$LT$T$C$F$GT$$u20$as$u20$core..ops..try_trait..FromResidual$LT$core..result..Result$LT$core..convert..Infallible$C$E$GT$$GT$$GT$13from_residual17h47521b86dd197332E', symObjAddr: 0x4D4, symBinAddr: 0x103D8, symSize: 0x1C }
  - { offset: 0xACFAB, size: 0x8, addend: 0x0, symName: '__ZN153_$LT$core..result..Result$LT$T$C$F$GT$$u20$as$u20$core..ops..try_trait..FromResidual$LT$core..result..Result$LT$core..convert..Infallible$C$E$GT$$GT$$GT$13from_residual17h576303bfffbcca70E', symObjAddr: 0x4F0, symBinAddr: 0x103F4, symSize: 0x6C }
  - { offset: 0xAD031, size: 0x8, addend: 0x0, symName: '__ZN153_$LT$core..result..Result$LT$T$C$F$GT$$u20$as$u20$core..ops..try_trait..FromResidual$LT$core..result..Result$LT$core..convert..Infallible$C$E$GT$$GT$$GT$13from_residual17h5a62d206940a1a71E', symObjAddr: 0x55C, symBinAddr: 0x10460, symSize: 0x18 }
  - { offset: 0xAD098, size: 0x8, addend: 0x0, symName: '__ZN153_$LT$core..result..Result$LT$T$C$F$GT$$u20$as$u20$core..ops..try_trait..FromResidual$LT$core..result..Result$LT$core..convert..Infallible$C$E$GT$$GT$$GT$13from_residual17h5e33c8f2e94cde7bE', symObjAddr: 0x574, symBinAddr: 0x10478, symSize: 0x6C }
  - { offset: 0xAD11E, size: 0x8, addend: 0x0, symName: '__ZN153_$LT$core..result..Result$LT$T$C$F$GT$$u20$as$u20$core..ops..try_trait..FromResidual$LT$core..result..Result$LT$core..convert..Infallible$C$E$GT$$GT$$GT$13from_residual17h61fd45671a632882E', symObjAddr: 0x5E0, symBinAddr: 0x104E4, symSize: 0x4C }
  - { offset: 0xAD185, size: 0x8, addend: 0x0, symName: '__ZN153_$LT$core..result..Result$LT$T$C$F$GT$$u20$as$u20$core..ops..try_trait..FromResidual$LT$core..result..Result$LT$core..convert..Infallible$C$E$GT$$GT$$GT$13from_residual17h64312e652acccbcfE', symObjAddr: 0x62C, symBinAddr: 0x10530, symSize: 0x6C }
  - { offset: 0xAD20B, size: 0x8, addend: 0x0, symName: '__ZN153_$LT$core..result..Result$LT$T$C$F$GT$$u20$as$u20$core..ops..try_trait..FromResidual$LT$core..result..Result$LT$core..convert..Infallible$C$E$GT$$GT$$GT$13from_residual17h7bf6ca0489d599f7E', symObjAddr: 0x698, symBinAddr: 0x1059C, symSize: 0x68 }
  - { offset: 0xAD291, size: 0x8, addend: 0x0, symName: '__ZN153_$LT$core..result..Result$LT$T$C$F$GT$$u20$as$u20$core..ops..try_trait..FromResidual$LT$core..result..Result$LT$core..convert..Infallible$C$E$GT$$GT$$GT$13from_residual17h7c36a06ac84d4bc2E', symObjAddr: 0x700, symBinAddr: 0x10604, symSize: 0x1C }
  - { offset: 0xAD2F8, size: 0x8, addend: 0x0, symName: '__ZN153_$LT$core..result..Result$LT$T$C$F$GT$$u20$as$u20$core..ops..try_trait..FromResidual$LT$core..result..Result$LT$core..convert..Infallible$C$E$GT$$GT$$GT$13from_residual17h82c8cf990d35c9f8E', symObjAddr: 0x71C, symBinAddr: 0x10620, symSize: 0x64 }
  - { offset: 0xAD360, size: 0x8, addend: 0x0, symName: '__ZN153_$LT$core..result..Result$LT$T$C$F$GT$$u20$as$u20$core..ops..try_trait..FromResidual$LT$core..result..Result$LT$core..convert..Infallible$C$E$GT$$GT$$GT$13from_residual17h9a5ef90fa16c929eE', symObjAddr: 0x780, symBinAddr: 0x10684, symSize: 0x6C }
  - { offset: 0xAD3E6, size: 0x8, addend: 0x0, symName: '__ZN153_$LT$core..result..Result$LT$T$C$F$GT$$u20$as$u20$core..ops..try_trait..FromResidual$LT$core..result..Result$LT$core..convert..Infallible$C$E$GT$$GT$$GT$13from_residual17ha1bada6ace9e50caE', symObjAddr: 0x7EC, symBinAddr: 0x106F0, symSize: 0x6C }
  - { offset: 0xAD46C, size: 0x8, addend: 0x0, symName: '__ZN153_$LT$core..result..Result$LT$T$C$F$GT$$u20$as$u20$core..ops..try_trait..FromResidual$LT$core..result..Result$LT$core..convert..Infallible$C$E$GT$$GT$$GT$13from_residual17hadffebd3613d4d6cE', symObjAddr: 0x858, symBinAddr: 0x1075C, symSize: 0x18 }
  - { offset: 0xAD4D3, size: 0x8, addend: 0x0, symName: '__ZN153_$LT$core..result..Result$LT$T$C$F$GT$$u20$as$u20$core..ops..try_trait..FromResidual$LT$core..result..Result$LT$core..convert..Infallible$C$E$GT$$GT$$GT$13from_residual17hbff7dca238b4f7d4E', symObjAddr: 0x870, symBinAddr: 0x10774, symSize: 0x64 }
  - { offset: 0xAD53B, size: 0x8, addend: 0x0, symName: '__ZN153_$LT$core..result..Result$LT$T$C$F$GT$$u20$as$u20$core..ops..try_trait..FromResidual$LT$core..result..Result$LT$core..convert..Infallible$C$E$GT$$GT$$GT$13from_residual17hc0510c873f32cc90E', symObjAddr: 0x8D4, symBinAddr: 0x107D8, symSize: 0x6C }
  - { offset: 0xAD5C1, size: 0x8, addend: 0x0, symName: '__ZN153_$LT$core..result..Result$LT$T$C$F$GT$$u20$as$u20$core..ops..try_trait..FromResidual$LT$core..result..Result$LT$core..convert..Infallible$C$E$GT$$GT$$GT$13from_residual17hd516380bc2c243a1E', symObjAddr: 0x940, symBinAddr: 0x10844, symSize: 0x5C }
  - { offset: 0xAD647, size: 0x8, addend: 0x0, symName: '__ZN153_$LT$core..result..Result$LT$T$C$F$GT$$u20$as$u20$core..ops..try_trait..FromResidual$LT$core..result..Result$LT$core..convert..Infallible$C$E$GT$$GT$$GT$13from_residual17hf17e8bc4dbdfb1d4E', symObjAddr: 0x99C, symBinAddr: 0x108A0, symSize: 0x5C }
  - { offset: 0xADD26, size: 0x8, addend: 0x0, symName: '__ZN4core6result23Result$LT$$RF$T$C$E$GT$6cloned28_$u7b$$u7b$closure$u7d$$u7d$17h3cbd79e705b76aecE', symObjAddr: 0x3A60, symBinAddr: 0x13964, symSize: 0x24 }
  - { offset: 0xADD71, size: 0x8, addend: 0x0, symName: '__ZN4core6result23Result$LT$$RF$T$C$E$GT$6cloned28_$u7b$$u7b$closure$u7d$$u7d$17ha5c6b7245ab83322E', symObjAddr: 0x3A84, symBinAddr: 0x13988, symSize: 0x24 }
  - { offset: 0xB14E7, size: 0x8, addend: 0x0, symName: '__ZN79_$LT$core..result..Result$LT$T$C$E$GT$$u20$as$u20$core..ops..try_trait..Try$GT$11from_output17h5491810cdae73151E', symObjAddr: 0x3AA8, symBinAddr: 0x139AC, symSize: 0x2C }
  - { offset: 0xB1527, size: 0x8, addend: 0x0, symName: '__ZN79_$LT$core..result..Result$LT$T$C$E$GT$$u20$as$u20$core..ops..try_trait..Try$GT$6branch17h0102be24d1b86530E', symObjAddr: 0x3AD4, symBinAddr: 0x139D8, symSize: 0xA0 }
  - { offset: 0xB15A4, size: 0x8, addend: 0x0, symName: '__ZN79_$LT$core..result..Result$LT$T$C$E$GT$$u20$as$u20$core..ops..try_trait..Try$GT$6branch17h08fbe7a460ee3526E', symObjAddr: 0x3B74, symBinAddr: 0x13A78, symSize: 0xA0 }
  - { offset: 0xB1621, size: 0x8, addend: 0x0, symName: '__ZN79_$LT$core..result..Result$LT$T$C$E$GT$$u20$as$u20$core..ops..try_trait..Try$GT$6branch17h0a80a8dc7879bd65E', symObjAddr: 0x3C14, symBinAddr: 0x13B18, symSize: 0xA0 }
  - { offset: 0xB169E, size: 0x8, addend: 0x0, symName: '__ZN79_$LT$core..result..Result$LT$T$C$E$GT$$u20$as$u20$core..ops..try_trait..Try$GT$6branch17h134ded0e4414cb55E', symObjAddr: 0x3CB4, symBinAddr: 0x13BB8, symSize: 0xB4 }
  - { offset: 0xB171C, size: 0x8, addend: 0x0, symName: '__ZN79_$LT$core..result..Result$LT$T$C$E$GT$$u20$as$u20$core..ops..try_trait..Try$GT$6branch17h1480be16b812d4acE', symObjAddr: 0x3D68, symBinAddr: 0x13C6C, symSize: 0xA4 }
  - { offset: 0xB1799, size: 0x8, addend: 0x0, symName: '__ZN79_$LT$core..result..Result$LT$T$C$E$GT$$u20$as$u20$core..ops..try_trait..Try$GT$6branch17h243013799d663b17E', symObjAddr: 0x3E0C, symBinAddr: 0x13D10, symSize: 0xB4 }
  - { offset: 0xB1817, size: 0x8, addend: 0x0, symName: '__ZN79_$LT$core..result..Result$LT$T$C$E$GT$$u20$as$u20$core..ops..try_trait..Try$GT$6branch17h26e887f9388ed44fE', symObjAddr: 0x3EC0, symBinAddr: 0x13DC4, symSize: 0x90 }
  - { offset: 0xB1894, size: 0x8, addend: 0x0, symName: '__ZN79_$LT$core..result..Result$LT$T$C$E$GT$$u20$as$u20$core..ops..try_trait..Try$GT$6branch17h2e9a3512ed2ea9d6E', symObjAddr: 0x3F50, symBinAddr: 0x13E54, symSize: 0xA0 }
  - { offset: 0xB1911, size: 0x8, addend: 0x0, symName: '__ZN79_$LT$core..result..Result$LT$T$C$E$GT$$u20$as$u20$core..ops..try_trait..Try$GT$6branch17h3cc8d86e5a480ed1E', symObjAddr: 0x3FF0, symBinAddr: 0x13EF4, symSize: 0xA0 }
  - { offset: 0xB198E, size: 0x8, addend: 0x0, symName: '__ZN79_$LT$core..result..Result$LT$T$C$E$GT$$u20$as$u20$core..ops..try_trait..Try$GT$6branch17h3da7153fe22243b9E', symObjAddr: 0x4090, symBinAddr: 0x13F94, symSize: 0xCC }
  - { offset: 0xB1A0D, size: 0x8, addend: 0x0, symName: '__ZN79_$LT$core..result..Result$LT$T$C$E$GT$$u20$as$u20$core..ops..try_trait..Try$GT$6branch17h4485a90ecb4e2bd6E', symObjAddr: 0x415C, symBinAddr: 0x14060, symSize: 0xAC }
  - { offset: 0xB1A8A, size: 0x8, addend: 0x0, symName: '__ZN79_$LT$core..result..Result$LT$T$C$E$GT$$u20$as$u20$core..ops..try_trait..Try$GT$6branch17h5401577e1d1fa176E', symObjAddr: 0x4208, symBinAddr: 0x1410C, symSize: 0xCC }
  - { offset: 0xB1B08, size: 0x8, addend: 0x0, symName: '__ZN79_$LT$core..result..Result$LT$T$C$E$GT$$u20$as$u20$core..ops..try_trait..Try$GT$6branch17h54a55d42a853d17fE', symObjAddr: 0x42D4, symBinAddr: 0x141D8, symSize: 0xCC }
  - { offset: 0xB1B87, size: 0x8, addend: 0x0, symName: '__ZN79_$LT$core..result..Result$LT$T$C$E$GT$$u20$as$u20$core..ops..try_trait..Try$GT$6branch17h561d97974dc85d92E', symObjAddr: 0x43A0, symBinAddr: 0x142A4, symSize: 0xB0 }
  - { offset: 0xB1C04, size: 0x8, addend: 0x0, symName: '__ZN79_$LT$core..result..Result$LT$T$C$E$GT$$u20$as$u20$core..ops..try_trait..Try$GT$6branch17h5dea542e61a8d7efE', symObjAddr: 0x4450, symBinAddr: 0x14354, symSize: 0xA0 }
  - { offset: 0xB1C81, size: 0x8, addend: 0x0, symName: '__ZN79_$LT$core..result..Result$LT$T$C$E$GT$$u20$as$u20$core..ops..try_trait..Try$GT$6branch17h5e0e005216d863daE', symObjAddr: 0x44F0, symBinAddr: 0x143F4, symSize: 0xCC }
  - { offset: 0xB1CFF, size: 0x8, addend: 0x0, symName: '__ZN79_$LT$core..result..Result$LT$T$C$E$GT$$u20$as$u20$core..ops..try_trait..Try$GT$6branch17h5fdc36d2445eb857E', symObjAddr: 0x45BC, symBinAddr: 0x144C0, symSize: 0x88 }
  - { offset: 0xB1D7D, size: 0x8, addend: 0x0, symName: '__ZN79_$LT$core..result..Result$LT$T$C$E$GT$$u20$as$u20$core..ops..try_trait..Try$GT$6branch17h6d30301c05359762E', symObjAddr: 0x4644, symBinAddr: 0x14548, symSize: 0xCC }
  - { offset: 0xB1DFB, size: 0x8, addend: 0x0, symName: '__ZN79_$LT$core..result..Result$LT$T$C$E$GT$$u20$as$u20$core..ops..try_trait..Try$GT$6branch17h739ba960db38d764E', symObjAddr: 0x4710, symBinAddr: 0x14614, symSize: 0x90 }
  - { offset: 0xB1E79, size: 0x8, addend: 0x0, symName: '__ZN79_$LT$core..result..Result$LT$T$C$E$GT$$u20$as$u20$core..ops..try_trait..Try$GT$6branch17h79f13e4111c36a41E', symObjAddr: 0x47A0, symBinAddr: 0x146A4, symSize: 0x44 }
  - { offset: 0xB1EF5, size: 0x8, addend: 0x0, symName: '__ZN79_$LT$core..result..Result$LT$T$C$E$GT$$u20$as$u20$core..ops..try_trait..Try$GT$6branch17h7de2399ddaf5c022E', symObjAddr: 0x47E4, symBinAddr: 0x146E8, symSize: 0xA0 }
  - { offset: 0xB1F72, size: 0x8, addend: 0x0, symName: '__ZN79_$LT$core..result..Result$LT$T$C$E$GT$$u20$as$u20$core..ops..try_trait..Try$GT$6branch17h7f29dc7b44370849E', symObjAddr: 0x4884, symBinAddr: 0x14788, symSize: 0xB4 }
  - { offset: 0xB1FF0, size: 0x8, addend: 0x0, symName: '__ZN79_$LT$core..result..Result$LT$T$C$E$GT$$u20$as$u20$core..ops..try_trait..Try$GT$6branch17h88b7ced4b31b5e3aE', symObjAddr: 0x4938, symBinAddr: 0x1483C, symSize: 0xA0 }
  - { offset: 0xB206D, size: 0x8, addend: 0x0, symName: '__ZN79_$LT$core..result..Result$LT$T$C$E$GT$$u20$as$u20$core..ops..try_trait..Try$GT$6branch17h8900207f95c30545E', symObjAddr: 0x49D8, symBinAddr: 0x148DC, symSize: 0x88 }
  - { offset: 0xB20EB, size: 0x8, addend: 0x0, symName: '__ZN79_$LT$core..result..Result$LT$T$C$E$GT$$u20$as$u20$core..ops..try_trait..Try$GT$6branch17h8c214eef0fce1c0aE', symObjAddr: 0x4A60, symBinAddr: 0x14964, symSize: 0x74 }
  - { offset: 0xB2169, size: 0x8, addend: 0x0, symName: '__ZN79_$LT$core..result..Result$LT$T$C$E$GT$$u20$as$u20$core..ops..try_trait..Try$GT$6branch17h916276b885707c93E', symObjAddr: 0x4AD4, symBinAddr: 0x149D8, symSize: 0xA4 }
  - { offset: 0xB21E7, size: 0x8, addend: 0x0, symName: '__ZN79_$LT$core..result..Result$LT$T$C$E$GT$$u20$as$u20$core..ops..try_trait..Try$GT$6branch17h9380394ebfb95056E', symObjAddr: 0x4B78, symBinAddr: 0x14A7C, symSize: 0x3C }
  - { offset: 0xB2245, size: 0x8, addend: 0x0, symName: '__ZN79_$LT$core..result..Result$LT$T$C$E$GT$$u20$as$u20$core..ops..try_trait..Try$GT$6branch17h9b6067b934ab7029E', symObjAddr: 0x4BB4, symBinAddr: 0x14AB8, symSize: 0xA0 }
  - { offset: 0xB22C2, size: 0x8, addend: 0x0, symName: '__ZN79_$LT$core..result..Result$LT$T$C$E$GT$$u20$as$u20$core..ops..try_trait..Try$GT$6branch17ha47e14dbe41023d1E', symObjAddr: 0x4C54, symBinAddr: 0x14B58, symSize: 0xB4 }
  - { offset: 0xB2340, size: 0x8, addend: 0x0, symName: '__ZN79_$LT$core..result..Result$LT$T$C$E$GT$$u20$as$u20$core..ops..try_trait..Try$GT$6branch17ha560cd5bbe3baf26E', symObjAddr: 0x4D08, symBinAddr: 0x14C0C, symSize: 0xB8 }
  - { offset: 0xB23BE, size: 0x8, addend: 0x0, symName: '__ZN79_$LT$core..result..Result$LT$T$C$E$GT$$u20$as$u20$core..ops..try_trait..Try$GT$6branch17hba45cb3b3444e74cE', symObjAddr: 0x4DC0, symBinAddr: 0x14CC4, symSize: 0xD4 }
  - { offset: 0xB243C, size: 0x8, addend: 0x0, symName: '__ZN79_$LT$core..result..Result$LT$T$C$E$GT$$u20$as$u20$core..ops..try_trait..Try$GT$6branch17hc38310be261c43d3E', symObjAddr: 0x4E94, symBinAddr: 0x14D98, symSize: 0xA0 }
  - { offset: 0xB24B9, size: 0x8, addend: 0x0, symName: '__ZN79_$LT$core..result..Result$LT$T$C$E$GT$$u20$as$u20$core..ops..try_trait..Try$GT$6branch17hdfc60db7eca1e19fE', symObjAddr: 0x4F34, symBinAddr: 0x14E38, symSize: 0xAC }
  - { offset: 0xB2536, size: 0x8, addend: 0x0, symName: '__ZN79_$LT$core..result..Result$LT$T$C$E$GT$$u20$as$u20$core..ops..try_trait..Try$GT$6branch17hf303ba9a5aef3995E', symObjAddr: 0x4FE0, symBinAddr: 0x14EE4, symSize: 0xC8 }
  - { offset: 0xB25B5, size: 0x8, addend: 0x0, symName: '__ZN79_$LT$core..result..Result$LT$T$C$E$GT$$u20$as$u20$core..ops..try_trait..Try$GT$6branch17hf7ee0aa824416bb0E', symObjAddr: 0x50A8, symBinAddr: 0x14FAC, symSize: 0xB8 }
  - { offset: 0xB2633, size: 0x8, addend: 0x0, symName: '__ZN79_$LT$core..result..Result$LT$T$C$E$GT$$u20$as$u20$core..ops..try_trait..Try$GT$6branch17hfa2cef8969f5e815E', symObjAddr: 0x5160, symBinAddr: 0x15064, symSize: 0xA0 }
  - { offset: 0xBA8E9, size: 0x8, addend: 0x0, symName: '__ZN4core6result19Result$LT$T$C$E$GT$14unwrap_or_else17h02adceb231d0eb74E', symObjAddr: 0x9F8, symBinAddr: 0x108FC, symSize: 0x90 }
  - { offset: 0xBA9A1, size: 0x8, addend: 0x0, symName: '__ZN4core6result19Result$LT$T$C$E$GT$14unwrap_or_else17h0bb3de87e22db495E', symObjAddr: 0xA88, symBinAddr: 0x1098C, symSize: 0x88 }
  - { offset: 0xBAA2B, size: 0x8, addend: 0x0, symName: '__ZN4core6result19Result$LT$T$C$E$GT$14unwrap_or_else17h68878d5c094d51cdE', symObjAddr: 0xB10, symBinAddr: 0x10A14, symSize: 0x3C }
  - { offset: 0xBAA96, size: 0x8, addend: 0x0, symName: '__ZN4core6result19Result$LT$T$C$E$GT$14unwrap_or_else17hca79e233614a94e6E', symObjAddr: 0xB4C, symBinAddr: 0x10A50, symSize: 0x90 }
  - { offset: 0xBAB20, size: 0x8, addend: 0x0, symName: '__ZN4core6result19Result$LT$T$C$E$GT$14unwrap_or_else17hcf6bb344ba07a2e2E', symObjAddr: 0xBDC, symBinAddr: 0x10AE0, symSize: 0x90 }
  - { offset: 0xBABAA, size: 0x8, addend: 0x0, symName: '__ZN4core6result19Result$LT$T$C$E$GT$14unwrap_or_else17hd7cabf1ec8c31198E', symObjAddr: 0xC6C, symBinAddr: 0x10B70, symSize: 0x3C }
  - { offset: 0xBB0C4, size: 0x8, addend: 0x0, symName: '__ZN4core6result19Result$LT$T$C$E$GT$17unwrap_or_default17h43f02adcba2b2e5cE', symObjAddr: 0xCA8, symBinAddr: 0x10BAC, symSize: 0xEC }
  - { offset: 0xBB132, size: 0x8, addend: 0x0, symName: '__ZN4core6result19Result$LT$T$C$E$GT$3map17h02f95e9338c9083fE', symObjAddr: 0xD94, symBinAddr: 0x10C98, symSize: 0x88 }
  - { offset: 0xBB1DD, size: 0x8, addend: 0x0, symName: '__ZN4core6result19Result$LT$T$C$E$GT$3map17h0a580e3616eb3112E', symObjAddr: 0xE1C, symBinAddr: 0x10D20, symSize: 0x38 }
  - { offset: 0xBB860, size: 0x8, addend: 0x0, symName: '__ZN4core6result19Result$LT$T$C$E$GT$3map17h229c0c1500846bc9E', symObjAddr: 0xE54, symBinAddr: 0x10D58, symSize: 0xCC }
  - { offset: 0xBB95E, size: 0x8, addend: 0x0, symName: '__ZN4core6result19Result$LT$T$C$E$GT$3map17h3d4c7319bad9b985E', symObjAddr: 0xF20, symBinAddr: 0x10E24, symSize: 0x94 }
  - { offset: 0xBC19C, size: 0x8, addend: 0x0, symName: '__ZN4core6result19Result$LT$T$C$E$GT$3map17h477892d666ade13aE', symObjAddr: 0xFB4, symBinAddr: 0x10EB8, symSize: 0x90 }
  - { offset: 0xBC247, size: 0x8, addend: 0x0, symName: '__ZN4core6result19Result$LT$T$C$E$GT$3map17h4a5d1f180f0f861dE', symObjAddr: 0x1044, symBinAddr: 0x10F48, symSize: 0x90 }
  - { offset: 0xBCCB1, size: 0x8, addend: 0x0, symName: '__ZN4core6result19Result$LT$T$C$E$GT$3map17h4b6f5c66941ccee2E', symObjAddr: 0x10D4, symBinAddr: 0x10FD8, symSize: 0x54 }
  - { offset: 0xBCD5B, size: 0x8, addend: 0x0, symName: '__ZN4core6result19Result$LT$T$C$E$GT$3map17h60cd28e848147ac8E', symObjAddr: 0x1128, symBinAddr: 0x1102C, symSize: 0x90 }
  - { offset: 0xBCDFB, size: 0x8, addend: 0x0, symName: '__ZN4core6result19Result$LT$T$C$E$GT$3map17h6487439313c43e53E', symObjAddr: 0x11B8, symBinAddr: 0x110BC, symSize: 0x54 }
  - { offset: 0xBCEA5, size: 0x8, addend: 0x0, symName: '__ZN4core6result19Result$LT$T$C$E$GT$3map17h806b76178fa59a63E', symObjAddr: 0x120C, symBinAddr: 0x11110, symSize: 0x38 }
  - { offset: 0xBCF19, size: 0x8, addend: 0x0, symName: '__ZN4core6result19Result$LT$T$C$E$GT$3map17h999c5eb9df0cd7a3E', symObjAddr: 0x1244, symBinAddr: 0x11148, symSize: 0x54 }
  - { offset: 0xBCFC3, size: 0x8, addend: 0x0, symName: '__ZN4core6result19Result$LT$T$C$E$GT$3map17h9d1ab826c8e49295E', symObjAddr: 0x1298, symBinAddr: 0x1119C, symSize: 0x38 }
  - { offset: 0xBD037, size: 0x8, addend: 0x0, symName: '__ZN4core6result19Result$LT$T$C$E$GT$3map17ha5ead2ddae4a3582E', symObjAddr: 0x12D0, symBinAddr: 0x111D4, symSize: 0x88 }
  - { offset: 0xBD0CA, size: 0x8, addend: 0x0, symName: '__ZN4core6result19Result$LT$T$C$E$GT$3map17haacf0f7b45b6ab0dE', symObjAddr: 0x1358, symBinAddr: 0x1125C, symSize: 0xA4 }
  - { offset: 0xBD15D, size: 0x8, addend: 0x0, symName: '__ZN4core6result19Result$LT$T$C$E$GT$3map17hb07a1c69fb17da6aE', symObjAddr: 0x13FC, symBinAddr: 0x11300, symSize: 0x90 }
  - { offset: 0xBD208, size: 0x8, addend: 0x0, symName: '__ZN4core6result19Result$LT$T$C$E$GT$3map17hb595d19762d91b25E', symObjAddr: 0x148C, symBinAddr: 0x11390, symSize: 0x90 }
  - { offset: 0xBD29B, size: 0x8, addend: 0x0, symName: '__ZN4core6result19Result$LT$T$C$E$GT$3map17hc36d734ed826fefeE', symObjAddr: 0x151C, symBinAddr: 0x11420, symSize: 0x90 }
  - { offset: 0xBD33B, size: 0x8, addend: 0x0, symName: '__ZN4core6result19Result$LT$T$C$E$GT$3map17hea3e4e5474c076c9E', symObjAddr: 0x15AC, symBinAddr: 0x114B0, symSize: 0x88 }
  - { offset: 0xBD3E6, size: 0x8, addend: 0x0, symName: '__ZN4core6result19Result$LT$T$C$E$GT$3map17hf8f09db23f3ba697E', symObjAddr: 0x1634, symBinAddr: 0x11538, symSize: 0x90 }
  - { offset: 0xBD498, size: 0x8, addend: 0x0, symName: '__ZN4core6result19Result$LT$T$C$E$GT$6expect17h1c6c1fa1a5acb483E', symObjAddr: 0x16C4, symBinAddr: 0x115C8, symSize: 0xA4 }
  - { offset: 0xBD4FB, size: 0x8, addend: 0x0, symName: '__ZN4core6result19Result$LT$T$C$E$GT$6expect17h381aae4ec1dc0084E', symObjAddr: 0x1768, symBinAddr: 0x1166C, symSize: 0xA0 }
  - { offset: 0xBD55E, size: 0x8, addend: 0x0, symName: '__ZN4core6result19Result$LT$T$C$E$GT$6expect17h745325185fab8e90E', symObjAddr: 0x1808, symBinAddr: 0x1170C, symSize: 0xA4 }
  - { offset: 0xBD5C1, size: 0x8, addend: 0x0, symName: '__ZN4core6result19Result$LT$T$C$E$GT$6expect17h7a3b53cf1f85740eE', symObjAddr: 0x18AC, symBinAddr: 0x117B0, symSize: 0x8C }
  - { offset: 0xBD623, size: 0x8, addend: 0x0, symName: '__ZN4core6result19Result$LT$T$C$E$GT$6expect17ha37c26afee459426E', symObjAddr: 0x1938, symBinAddr: 0x1183C, symSize: 0xA4 }
  - { offset: 0xBD686, size: 0x8, addend: 0x0, symName: '__ZN4core6result19Result$LT$T$C$E$GT$6expect17ha60e63629ea1ddafE', symObjAddr: 0x19DC, symBinAddr: 0x118E0, symSize: 0xA4 }
  - { offset: 0xBD6E9, size: 0x8, addend: 0x0, symName: '__ZN4core6result19Result$LT$T$C$E$GT$6expect17haa14b76fe64febeaE', symObjAddr: 0x1A80, symBinAddr: 0x11984, symSize: 0xA0 }
  - { offset: 0xBD74C, size: 0x8, addend: 0x0, symName: '__ZN4core6result19Result$LT$T$C$E$GT$6expect17hc566d1d413d2e23cE', symObjAddr: 0x1B20, symBinAddr: 0x11A24, symSize: 0x8C }
  - { offset: 0xBD7AE, size: 0x8, addend: 0x0, symName: '__ZN4core6result19Result$LT$T$C$E$GT$6expect17hd9efb54c8fc0545cE', symObjAddr: 0x1BAC, symBinAddr: 0x11AB0, symSize: 0xA4 }
  - { offset: 0xBD811, size: 0x8, addend: 0x0, symName: '__ZN4core6result19Result$LT$T$C$E$GT$6expect17heba7a358a24976ebE', symObjAddr: 0x1C50, symBinAddr: 0x11B54, symSize: 0xA0 }
  - { offset: 0xBD874, size: 0x8, addend: 0x0, symName: '__ZN4core6result19Result$LT$T$C$E$GT$6expect17hf0835f0b0be6e8f7E', symObjAddr: 0x1CF0, symBinAddr: 0x11BF4, symSize: 0xA4 }
  - { offset: 0xBD909, size: 0x8, addend: 0x0, symName: '__ZN4core6result19Result$LT$T$C$E$GT$6is_err17h50abc13409ab2602E', symObjAddr: 0x1D94, symBinAddr: 0x11C98, symSize: 0x20 }
  - { offset: 0xBD95C, size: 0x8, addend: 0x0, symName: '__ZN4core6result19Result$LT$T$C$E$GT$7map_err17h06da290719cd587fE', symObjAddr: 0x1DB4, symBinAddr: 0x11CB8, symSize: 0xA8 }
  - { offset: 0xBDA07, size: 0x8, addend: 0x0, symName: '__ZN4core6result19Result$LT$T$C$E$GT$7map_err17h0bee4bd3e3404d98E', symObjAddr: 0x1E5C, symBinAddr: 0x11D60, symSize: 0x88 }
  - { offset: 0xBDAB2, size: 0x8, addend: 0x0, symName: '__ZN4core6result19Result$LT$T$C$E$GT$7map_err17h0ce7cdc30c01e52eE', symObjAddr: 0x1EE4, symBinAddr: 0x11DE8, symSize: 0xDC }
  - { offset: 0xBDB46, size: 0x8, addend: 0x0, symName: '__ZN4core6result19Result$LT$T$C$E$GT$7map_err17h12f3a6b6aebc85feE', symObjAddr: 0x1FC0, symBinAddr: 0x11EC4, symSize: 0xE4 }
  - { offset: 0xBDC10, size: 0x8, addend: 0x0, symName: '__ZN4core6result19Result$LT$T$C$E$GT$7map_err17h13929b9f3aa027fbE', symObjAddr: 0x20A4, symBinAddr: 0x11FA8, symSize: 0xC8 }
  - { offset: 0xBDCA3, size: 0x8, addend: 0x0, symName: '__ZN4core6result19Result$LT$T$C$E$GT$7map_err17h1d77fbc08f329bd2E', symObjAddr: 0x216C, symBinAddr: 0x12070, symSize: 0xA8 }
  - { offset: 0xBDD36, size: 0x8, addend: 0x0, symName: '__ZN4core6result19Result$LT$T$C$E$GT$7map_err17h2f7441e0e75f8a7fE', symObjAddr: 0x2214, symBinAddr: 0x12118, symSize: 0xA8 }
  - { offset: 0xBDDC9, size: 0x8, addend: 0x0, symName: '__ZN4core6result19Result$LT$T$C$E$GT$7map_err17h323bd4de328b7068E', symObjAddr: 0x22BC, symBinAddr: 0x121C0, symSize: 0xAC }
  - { offset: 0xBDE74, size: 0x8, addend: 0x0, symName: '__ZN4core6result19Result$LT$T$C$E$GT$7map_err17h36293263a82e5cd5E', symObjAddr: 0x2368, symBinAddr: 0x1226C, symSize: 0xB0 }
  - { offset: 0xBDF07, size: 0x8, addend: 0x0, symName: '__ZN4core6result19Result$LT$T$C$E$GT$7map_err17h3be0cc48e24c8e70E', symObjAddr: 0x2418, symBinAddr: 0x1231C, symSize: 0xB0 }
  - { offset: 0xBDF9A, size: 0x8, addend: 0x0, symName: '__ZN4core6result19Result$LT$T$C$E$GT$7map_err17h3f2bde7e3c1a1f3bE', symObjAddr: 0x24C8, symBinAddr: 0x123CC, symSize: 0xAC }
  - { offset: 0xBE045, size: 0x8, addend: 0x0, symName: '__ZN4core6result19Result$LT$T$C$E$GT$7map_err17h4725bb723e18a703E', symObjAddr: 0x2574, symBinAddr: 0x12478, symSize: 0x84 }
  - { offset: 0xBE0D7, size: 0x8, addend: 0x0, symName: '__ZN4core6result19Result$LT$T$C$E$GT$7map_err17h6633a68616d154a0E', symObjAddr: 0x25F8, symBinAddr: 0x124FC, symSize: 0xB0 }
  - { offset: 0xBE16A, size: 0x8, addend: 0x0, symName: '__ZN4core6result19Result$LT$T$C$E$GT$7map_err17h67745301a980ae4bE', symObjAddr: 0x26A8, symBinAddr: 0x125AC, symSize: 0xB8 }
  - { offset: 0xBE1FE, size: 0x8, addend: 0x0, symName: '__ZN4core6result19Result$LT$T$C$E$GT$7map_err17h6a59e0de46f5f3b9E', symObjAddr: 0x2760, symBinAddr: 0x12664, symSize: 0xE0 }
  - { offset: 0xBE293, size: 0x8, addend: 0x0, symName: '__ZN4core6result19Result$LT$T$C$E$GT$7map_err17h7a72302b0be0251bE', symObjAddr: 0x2840, symBinAddr: 0x12744, symSize: 0xE0 }
  - { offset: 0xBE340, size: 0x8, addend: 0x0, symName: '__ZN4core6result19Result$LT$T$C$E$GT$7map_err17h7ac19d4c4d446adaE', symObjAddr: 0x2920, symBinAddr: 0x12824, symSize: 0x30 }
  - { offset: 0xBE3B6, size: 0x8, addend: 0x0, symName: '__ZN4core6result19Result$LT$T$C$E$GT$7map_err17h7d6cf92c701c7d7dE', symObjAddr: 0x2950, symBinAddr: 0x12854, symSize: 0xBC }
  - { offset: 0xBE449, size: 0x8, addend: 0x0, symName: '__ZN4core6result19Result$LT$T$C$E$GT$7map_err17h7e4274e017a32e72E', symObjAddr: 0x2A0C, symBinAddr: 0x12910, symSize: 0xAC }
  - { offset: 0xBE4E9, size: 0x8, addend: 0x0, symName: '__ZN4core6result19Result$LT$T$C$E$GT$7map_err17h820d7987c3624ff4E', symObjAddr: 0x2AB8, symBinAddr: 0x129BC, symSize: 0xB0 }
  - { offset: 0xBE57C, size: 0x8, addend: 0x0, symName: '__ZN4core6result19Result$LT$T$C$E$GT$7map_err17h842bb21c7fb1e510E', symObjAddr: 0x2B68, symBinAddr: 0x12A6C, symSize: 0xE0 }
  - { offset: 0xBE611, size: 0x8, addend: 0x0, symName: '__ZN4core6result19Result$LT$T$C$E$GT$7map_err17h933cc74691f0d7cbE', symObjAddr: 0x2C48, symBinAddr: 0x12B4C, symSize: 0xB8 }
  - { offset: 0xBE6A4, size: 0x8, addend: 0x0, symName: '__ZN4core6result19Result$LT$T$C$E$GT$7map_err17h99d5426322f15753E', symObjAddr: 0x2D00, symBinAddr: 0x12C04, symSize: 0x94 }
  - { offset: 0xBE74F, size: 0x8, addend: 0x0, symName: '__ZN4core6result19Result$LT$T$C$E$GT$7map_err17h9e20ca637cbf0592E', symObjAddr: 0x2D94, symBinAddr: 0x12C98, symSize: 0xB8 }
  - { offset: 0xBE7E2, size: 0x8, addend: 0x0, symName: '__ZN4core6result19Result$LT$T$C$E$GT$7map_err17hac92c0419c0adbadE', symObjAddr: 0x2E4C, symBinAddr: 0x12D50, symSize: 0xB8 }
  - { offset: 0xBE875, size: 0x8, addend: 0x0, symName: '__ZN4core6result19Result$LT$T$C$E$GT$7map_err17hafd1413e52fd594cE', symObjAddr: 0x2F04, symBinAddr: 0x12E08, symSize: 0xA8 }
  - { offset: 0xBE908, size: 0x8, addend: 0x0, symName: '__ZN4core6result19Result$LT$T$C$E$GT$7map_err17hb404f437ffe452beE', symObjAddr: 0x2FAC, symBinAddr: 0x12EB0, symSize: 0x84 }
  - { offset: 0xBE99A, size: 0x8, addend: 0x0, symName: '__ZN4core6result19Result$LT$T$C$E$GT$7map_err17hb5138d72a67218c1E', symObjAddr: 0x3030, symBinAddr: 0x12F34, symSize: 0x78 }
  - { offset: 0xBEA2D, size: 0x8, addend: 0x0, symName: '__ZN4core6result19Result$LT$T$C$E$GT$7map_err17hb845fdf08b141997E', symObjAddr: 0x30A8, symBinAddr: 0x12FAC, symSize: 0xE0 }
  - { offset: 0xBEAC2, size: 0x8, addend: 0x0, symName: '__ZN4core6result19Result$LT$T$C$E$GT$7map_err17hbe5a242ca4cc503cE', symObjAddr: 0x3188, symBinAddr: 0x1308C, symSize: 0xA0 }
  - { offset: 0xBEB62, size: 0x8, addend: 0x0, symName: '__ZN4core6result19Result$LT$T$C$E$GT$7map_err17hd05c1056f2eaabb2E', symObjAddr: 0x3228, symBinAddr: 0x1312C, symSize: 0xA4 }
  - { offset: 0xBEBF5, size: 0x8, addend: 0x0, symName: '__ZN4core6result19Result$LT$T$C$E$GT$7map_err17hd30ded3654ef8ff4E', symObjAddr: 0x32CC, symBinAddr: 0x131D0, symSize: 0x94 }
  - { offset: 0xBEC88, size: 0x8, addend: 0x0, symName: '__ZN4core6result19Result$LT$T$C$E$GT$7or_else17h75b56eb59978e389E', symObjAddr: 0x3360, symBinAddr: 0x13264, symSize: 0x9C }
  - { offset: 0xBED3B, size: 0x8, addend: 0x0, symName: '__ZN4core6result19Result$LT$T$C$E$GT$8and_then17h462e5c11baa134b6E', symObjAddr: 0x33FC, symBinAddr: 0x13300, symSize: 0xA0 }
  - { offset: 0xBEDE1, size: 0x8, addend: 0x0, symName: '__ZN4core6result19Result$LT$T$C$E$GT$8and_then17h60e6dbb834faf60dE', symObjAddr: 0x349C, symBinAddr: 0x133A0, symSize: 0xAC }
  - { offset: 0xBEE76, size: 0x8, addend: 0x0, symName: '__ZN4core6result19Result$LT$T$C$E$GT$8and_then17h66ae046d0d6e806dE', symObjAddr: 0x3548, symBinAddr: 0x1344C, symSize: 0xAC }
  - { offset: 0xBEF0B, size: 0x8, addend: 0x0, symName: '__ZN4core6result19Result$LT$T$C$E$GT$8and_then17h873e8c1658f9e92dE', symObjAddr: 0x35F4, symBinAddr: 0x134F8, symSize: 0x98 }
  - { offset: 0xBEFB1, size: 0x8, addend: 0x0, symName: '__ZN4core6result19Result$LT$T$C$E$GT$8and_then17ha1a50c8b8a9a40fdE', symObjAddr: 0x368C, symBinAddr: 0x13590, symSize: 0xA0 }
  - { offset: 0xBF044, size: 0x8, addend: 0x0, symName: '__ZN4core6result19Result$LT$T$C$E$GT$8and_then17hc047209a9ad13fa8E', symObjAddr: 0x372C, symBinAddr: 0x13630, symSize: 0x88 }
  - { offset: 0xBF0D7, size: 0x8, addend: 0x0, symName: '__ZN4core6result19Result$LT$T$C$E$GT$8and_then17hdfe1fc95d51c9728E', symObjAddr: 0x37B4, symBinAddr: 0x136B8, symSize: 0xAC }
  - { offset: 0xBF16C, size: 0x8, addend: 0x0, symName: '__ZN4core6result19Result$LT$T$C$E$GT$8and_then17hedce5087cf50bdecE', symObjAddr: 0x3860, symBinAddr: 0x13764, symSize: 0x94 }
  - { offset: 0xBF1FF, size: 0x8, addend: 0x0, symName: '__ZN4core6result19Result$LT$T$C$E$GT$9unwrap_or17h30eef91e4186d0bdE', symObjAddr: 0x38F4, symBinAddr: 0x137F8, symSize: 0x70 }
  - { offset: 0xBF262, size: 0x8, addend: 0x0, symName: '__ZN4core6result19Result$LT$T$C$E$GT$9unwrap_or17hb02c928fec939542E', symObjAddr: 0x3964, symBinAddr: 0x13868, symSize: 0xD4 }
  - { offset: 0xBF2C6, size: 0x8, addend: 0x0, symName: '__ZN4core6result23Result$LT$$RF$T$C$E$GT$6cloned17h197ab09d96c54196E', symObjAddr: 0x3A38, symBinAddr: 0x1393C, symSize: 0x14 }
  - { offset: 0xBF2FC, size: 0x8, addend: 0x0, symName: '__ZN4core6result23Result$LT$$RF$T$C$E$GT$6cloned17h1a1bf28ed66ca516E', symObjAddr: 0x3A4C, symBinAddr: 0x13950, symSize: 0x14 }
  - { offset: 0xBF3AF, size: 0x8, addend: 0x0, symName: __ZN4pyo36marker6Python8with_gil17h2490ba72b0135357E, symObjAddr: 0x0, symBinAddr: 0x15104, symSize: 0xDC }
  - { offset: 0xC13AD, size: 0x8, addend: 0x0, symName: __ZN4pyo36marker6Python8with_gil17h2490ba72b0135357E, symObjAddr: 0x0, symBinAddr: 0x15104, symSize: 0xDC }
  - { offset: 0xC1AF9, size: 0x8, addend: 0x0, symName: __ZN4pyo36marker6Python8with_gil17h2e4bb28bbab074dcE, symObjAddr: 0xDC, symBinAddr: 0x151E0, symSize: 0xE8 }
  - { offset: 0xC1B44, size: 0x8, addend: 0x0, symName: __ZN4pyo36marker6Python8with_gil17h5483da6acd877ccaE, symObjAddr: 0x1C4, symBinAddr: 0x152C8, symSize: 0xDC }
  - { offset: 0xC1B8F, size: 0x8, addend: 0x0, symName: __ZN4pyo36marker6Python8with_gil17hfe46663a0969d2e4E, symObjAddr: 0x2A0, symBinAddr: 0x153A4, symSize: 0xE8 }
  - { offset: 0xC1BF8, size: 0x8, addend: 0x0, symName: '__ZN17effect_log_native176_$LT$impl$u20$pyo3..impl_..pyclass..PyMethods$LT$effect_log_native..PyToolDef$GT$$u20$for$u20$pyo3..impl_..pyclass..PyClassImplCollector$LT$effect_log_native..PyToolDef$GT$$GT$10py_methods17h56eefb9ad77afc93E', symObjAddr: 0x0, symBinAddr: 0x1548C, symSize: 0x14 }
  - { offset: 0xC51DF, size: 0x8, addend: 0x0, symName: '__ZN17effect_log_native176_$LT$impl$u20$pyo3..impl_..pyclass..PyMethods$LT$effect_log_native..PyToolDef$GT$$u20$for$u20$pyo3..impl_..pyclass..PyClassImplCollector$LT$effect_log_native..PyToolDef$GT$$GT$10py_methods17h56eefb9ad77afc93E', symObjAddr: 0x0, symBinAddr: 0x1548C, symSize: 0x14 }
  - { offset: 0xC522A, size: 0x8, addend: 0x0, symName: '__ZN17effect_log_native176_$LT$impl$u20$pyo3..impl_..pyclass..PyMethods$LT$effect_log_native..PyToolDef$GT$$u20$for$u20$pyo3..impl_..pyclass..PyClassImplCollector$LT$effect_log_native..PyToolDef$GT$$GT$10py_methods5ITEMS10trampoline190_$LT$impl$u20$pyo3..impl_..pyclass..PyClassNewTextSignature$LT$effect_log_native..PyToolDef$GT$$u20$for$u20$pyo3..impl_..pyclass..PyClassImplCollector$LT$effect_log_native..PyToolDef$GT$$GT$18new_text_signature17h6eef2b43a0d08014E', symObjAddr: 0x14, symBinAddr: 0x154A0, symSize: 0x28 }
  - { offset: 0xC526B, size: 0x8, addend: 0x0, symName: '__ZN17effect_log_native180_$LT$impl$u20$pyo3..impl_..pyclass..PyMethods$LT$effect_log_native..PyEffectLog$GT$$u20$for$u20$pyo3..impl_..pyclass..PyClassImplCollector$LT$effect_log_native..PyEffectLog$GT$$GT$10py_methods17hb8ec8224e732773cE', symObjAddr: 0x3C, symBinAddr: 0x154C8, symSize: 0x14 }
  - { offset: 0xC52B6, size: 0x8, addend: 0x0, symName: '__ZN17effect_log_native180_$LT$impl$u20$pyo3..impl_..pyclass..PyMethods$LT$effect_log_native..PyEffectLog$GT$$u20$for$u20$pyo3..impl_..pyclass..PyClassImplCollector$LT$effect_log_native..PyEffectLog$GT$$GT$10py_methods5ITEMS10trampoline194_$LT$impl$u20$pyo3..impl_..pyclass..PyClassNewTextSignature$LT$effect_log_native..PyEffectLog$GT$$u20$for$u20$pyo3..impl_..pyclass..PyClassImplCollector$LT$effect_log_native..PyEffectLog$GT$$GT$18new_text_signature17h1b299fae10071d25E', symObjAddr: 0x50, symBinAddr: 0x154DC, symSize: 0x28 }
  - { offset: 0xCA527, size: 0x8, addend: 0x0, symName: '__ZN4pyo35impl_4wrap62IntoPyObjectConverter$LT$core..result..Result$LT$T$C$E$GT$$GT$12map_into_ptr17h015cca58b915e167E', symObjAddr: 0x0, symBinAddr: 0x15504, symSize: 0x44 }
  - { offset: 0xCBB9B, size: 0x8, addend: 0x0, symName: '__ZN4pyo35impl_4wrap62IntoPyObjectConverter$LT$core..result..Result$LT$T$C$E$GT$$GT$12map_into_ptr28_$u7b$$u7b$closure$u7d$$u7d$17hbb22bbf1e6f8e4cbE', symObjAddr: 0x44, symBinAddr: 0x15548, symSize: 0x30 }
  - { offset: 0xCBC07, size: 0x8, addend: 0x0, symName: __ZN4pyo35impl_4wrap9converter17hd663450b1eda26f3E, symObjAddr: 0xA8, symBinAddr: 0x155AC, symSize: 0x10 }
  - { offset: 0xCBC39, size: 0x8, addend: 0x0, symName: '__ZN81_$LT$pyo3..impl_..wrap..Converter$LT$T$GT$$u20$as$u20$core..ops..deref..Deref$GT$5deref17hf5297c334a287e2bE', symObjAddr: 0xB8, symBinAddr: 0x155BC, symSize: 0x14 }
  - { offset: 0xCBC74, size: 0x8, addend: 0x0, symName: '__ZN91_$LT$pyo3..impl_..wrap..EmptyTupleConverter$LT$T$GT$$u20$as$u20$core..ops..deref..Deref$GT$5deref17he607b58d394be781E', symObjAddr: 0xCC, symBinAddr: 0x155D0, symSize: 0x14 }
  - { offset: 0xCC617, size: 0x8, addend: 0x0, symName: '__ZN4pyo35impl_4wrap62IntoPyObjectConverter$LT$core..result..Result$LT$T$C$E$GT$$GT$12map_into_ptr17h015cca58b915e167E', symObjAddr: 0x0, symBinAddr: 0x15504, symSize: 0x44 }
  - { offset: 0xCC673, size: 0x8, addend: 0x0, symName: '__ZN4pyo35impl_4wrap62IntoPyObjectConverter$LT$core..result..Result$LT$T$C$E$GT$$GT$4wrap17h7836db1ae1f944aeE', symObjAddr: 0x74, symBinAddr: 0x15578, symSize: 0x34 }
  - { offset: 0xCC708, size: 0x8, addend: 0x0, symName: '__ZN100_$LT$pyo3..pycell..impl_..MutableClass$u20$as$u20$pyo3..pycell..impl_..GetBorrowChecker$LT$T$GT$$GT$14borrow_checker17h2ac2ba8adaf1efafE', symObjAddr: 0x0, symBinAddr: 0x155E4, symSize: 0x14 }
  - { offset: 0xD1992, size: 0x8, addend: 0x0, symName: '__ZN100_$LT$pyo3..pycell..impl_..MutableClass$u20$as$u20$pyo3..pycell..impl_..GetBorrowChecker$LT$T$GT$$GT$14borrow_checker17h2ac2ba8adaf1efafE', symObjAddr: 0x0, symBinAddr: 0x155E4, symSize: 0x14 }
  - { offset: 0xD19C7, size: 0x8, addend: 0x0, symName: '__ZN100_$LT$pyo3..pycell..impl_..MutableClass$u20$as$u20$pyo3..pycell..impl_..GetBorrowChecker$LT$T$GT$$GT$14borrow_checker17h5e62d29b8055a0eeE', symObjAddr: 0x14, symBinAddr: 0x155F8, symSize: 0x14 }
  - { offset: 0xD19FC, size: 0x8, addend: 0x0, symName: '__ZN100_$LT$pyo3..pycell..impl_..MutableClass$u20$as$u20$pyo3..pycell..impl_..GetBorrowChecker$LT$T$GT$$GT$14borrow_checker17hea51657927f24142E', symObjAddr: 0x28, symBinAddr: 0x1560C, symSize: 0x14 }
  - { offset: 0xD1A37, size: 0x8, addend: 0x0, symName: '__ZN113_$LT$pyo3..pycell..impl_..PyClassObject$LT$T$GT$$u20$as$u20$pyo3..pycell..impl_..PyClassObjectLayout$LT$T$GT$$GT$10tp_dealloc17h25c987af8e40434eE', symObjAddr: 0x3C, symBinAddr: 0x15620, symSize: 0xB4 }
  - { offset: 0xD1A9B, size: 0x8, addend: 0x0, symName: '__ZN113_$LT$pyo3..pycell..impl_..PyClassObject$LT$T$GT$$u20$as$u20$pyo3..pycell..impl_..PyClassObjectLayout$LT$T$GT$$GT$10tp_dealloc17h9677f69a115ab1afE', symObjAddr: 0xF0, symBinAddr: 0x156D4, symSize: 0xB4 }
  - { offset: 0xD1AFF, size: 0x8, addend: 0x0, symName: '__ZN113_$LT$pyo3..pycell..impl_..PyClassObject$LT$T$GT$$u20$as$u20$pyo3..pycell..impl_..PyClassObjectLayout$LT$T$GT$$GT$10tp_dealloc17hab52a19c7b565678E', symObjAddr: 0x1A4, symBinAddr: 0x15788, symSize: 0xB4 }
  - { offset: 0xD1B63, size: 0x8, addend: 0x0, symName: '__ZN113_$LT$pyo3..pycell..impl_..PyClassObject$LT$T$GT$$u20$as$u20$pyo3..pycell..impl_..PyClassObjectLayout$LT$T$GT$$GT$17ensure_threadsafe17h1f194d0cb5dd1ca3E', symObjAddr: 0x258, symBinAddr: 0x1583C, symSize: 0x30 }
  - { offset: 0xD1B96, size: 0x8, addend: 0x0, symName: '__ZN113_$LT$pyo3..pycell..impl_..PyClassObject$LT$T$GT$$u20$as$u20$pyo3..pycell..impl_..PyClassObjectLayout$LT$T$GT$$GT$17ensure_threadsafe17h8c03b67453844015E', symObjAddr: 0x288, symBinAddr: 0x1586C, symSize: 0x30 }
  - { offset: 0xD1BC9, size: 0x8, addend: 0x0, symName: '__ZN113_$LT$pyo3..pycell..impl_..PyClassObject$LT$T$GT$$u20$as$u20$pyo3..pycell..impl_..PyClassObjectLayout$LT$T$GT$$GT$17ensure_threadsafe17h9dc2f21ff471848dE', symObjAddr: 0x2B8, symBinAddr: 0x1589C, symSize: 0x30 }
  - { offset: 0xD1C02, size: 0x8, addend: 0x0, symName: '__ZN117_$LT$pyo3..pycell..impl_..PyClassObjectBase$LT$U$GT$$u20$as$u20$pyo3..pycell..impl_..PyClassObjectLayout$LT$T$GT$$GT$10tp_dealloc17hc030f287e7ac22e5E', symObjAddr: 0x2E8, symBinAddr: 0x158CC, symSize: 0x270 }
  - { offset: 0xD1D05, size: 0x8, addend: 0x0, symName: '__ZN117_$LT$pyo3..pycell..impl_..PyClassObjectBase$LT$U$GT$$u20$as$u20$pyo3..pycell..impl_..PyClassObjectLayout$LT$T$GT$$GT$17ensure_threadsafe17h65f28f8c17d2a6dbE', symObjAddr: 0x558, symBinAddr: 0x15B3C, symSize: 0x10 }
  - { offset: 0xD25BC, size: 0x8, addend: 0x0, symName: '__ZN4pyo36pycell5impl_22PyClassObject$LT$T$GT$14borrow_checker17hba61ad0bed9288bcE', symObjAddr: 0x568, symBinAddr: 0x15B4C, symSize: 0x24 }
  - { offset: 0xD36FE, size: 0x8, addend: 0x0, symName: '__ZN4pyo36pycell5impl_22PyClassObject$LT$T$GT$14borrow_checker17hd77069119f28117dE', symObjAddr: 0x58C, symBinAddr: 0x15B70, symSize: 0x24 }
  - { offset: 0xD4DF4, size: 0x8, addend: 0x0, symName: '__ZN4pyo36pycell5impl_22PyClassObject$LT$T$GT$14borrow_checker17hf09531fb65ec2257E', symObjAddr: 0x5B0, symBinAddr: 0x15B94, symSize: 0x24 }
  - { offset: 0xD4E2D, size: 0x8, addend: 0x0, symName: '__ZN4pyo36pycell5impl_22PyClassObject$LT$T$GT$7get_ptr17h3b1eb91f706a27f1E', symObjAddr: 0x5D4, symBinAddr: 0x15BB8, symSize: 0x24 }
  - { offset: 0xD4E66, size: 0x8, addend: 0x0, symName: '__ZN4pyo36pycell5impl_22PyClassObject$LT$T$GT$7get_ptr17h90cbcdb9208473f2E', symObjAddr: 0x5F8, symBinAddr: 0x15BDC, symSize: 0x24 }
  - { offset: 0xD4E9F, size: 0x8, addend: 0x0, symName: '__ZN4pyo36pycell5impl_22PyClassObject$LT$T$GT$7get_ptr17hfa089ba8c447b3e7E', symObjAddr: 0x61C, symBinAddr: 0x15C00, symSize: 0x24 }
  - { offset: 0xD4F55, size: 0x8, addend: 0x0, symName: __ZN4core5alloc6layout6Layout25from_size_align_unchecked18precondition_check17h22a6f52ee021feafE, symObjAddr: 0x0, symBinAddr: 0x15C24, symSize: 0xBC }
  - { offset: 0xD5281, size: 0x8, addend: 0x0, symName: __ZN4core5alloc6layout6Layout25from_size_align_unchecked18precondition_check17h22a6f52ee021feafE, symObjAddr: 0x0, symBinAddr: 0x15C24, symSize: 0xBC }
  - { offset: 0xD5491, size: 0x8, addend: 0x0, symName: __ZN15effect_log_core5error14EffectLogError7Storage17hcec0541ef792cfcbE, symObjAddr: 0x0, symBinAddr: 0x15CE0, symSize: 0x20 }
  - { offset: 0xD54B2, size: 0x8, addend: 0x0, symName: __ZN15effect_log_core5error14EffectLogError7Storage17hcec0541ef792cfcbE, symObjAddr: 0x0, symBinAddr: 0x15CE0, symSize: 0x20 }
  - { offset: 0xD591F, size: 0x8, addend: 0x0, symName: __ZN12tracing_core5field7display17h0b15f6db56714a56E, symObjAddr: 0x0, symBinAddr: 0x15D00, symSize: 0x14 }
  - { offset: 0xD5980, size: 0x8, addend: 0x0, symName: __ZN12tracing_core5field7display17h0b15f6db56714a56E, symObjAddr: 0x0, symBinAddr: 0x15D00, symSize: 0x14 }
  - { offset: 0xD59B7, size: 0x8, addend: 0x0, symName: __ZN12tracing_core5field7display17h4ff828bcf3b8b605E, symObjAddr: 0x14, symBinAddr: 0x15D14, symSize: 0x14 }
  - { offset: 0xD59F3, size: 0x8, addend: 0x0, symName: '__ZN52_$LT$$RF$T$u20$as$u20$tracing_core..field..Value$GT$6record17h9e347ebaefea4fd3E', symObjAddr: 0x28, symBinAddr: 0x15D28, symSize: 0x60 }
  - { offset: 0xD5A4A, size: 0x8, addend: 0x0, symName: '__ZN79_$LT$tracing_core..field..DisplayValue$LT$T$GT$$u20$as$u20$core..fmt..Debug$GT$3fmt17h6835079c0cd38889E', symObjAddr: 0x88, symBinAddr: 0x15D88, symSize: 0x2C }
  - { offset: 0xD5A90, size: 0x8, addend: 0x0, symName: '__ZN79_$LT$tracing_core..field..DisplayValue$LT$T$GT$$u20$as$u20$core..fmt..Debug$GT$3fmt17hd421170b63df50e8E', symObjAddr: 0xB4, symBinAddr: 0x15DB4, symSize: 0x2C }
  - { offset: 0xD5ADC, size: 0x8, addend: 0x0, symName: '__ZN81_$LT$tracing_core..field..DisplayValue$LT$T$GT$$u20$as$u20$core..fmt..Display$GT$3fmt17h0463523b3f4bc31eE', symObjAddr: 0xE0, symBinAddr: 0x15DE0, symSize: 0x2C }
  - { offset: 0xD5B22, size: 0x8, addend: 0x0, symName: '__ZN81_$LT$tracing_core..field..DisplayValue$LT$T$GT$$u20$as$u20$core..fmt..Display$GT$3fmt17h48dfe68398a81833E', symObjAddr: 0x10C, symBinAddr: 0x15E0C, symSize: 0x2C }
  - { offset: 0xD5B6E, size: 0x8, addend: 0x0, symName: '__ZN89_$LT$tracing_core..field..DisplayValue$LT$T$GT$$u20$as$u20$tracing_core..field..Value$GT$6record17h13664470208fd7a8E', symObjAddr: 0x138, symBinAddr: 0x15E38, symSize: 0x54 }
  - { offset: 0xD5BBF, size: 0x8, addend: 0x0, symName: '__ZN89_$LT$tracing_core..field..DisplayValue$LT$T$GT$$u20$as$u20$tracing_core..field..Value$GT$6record17h48792080bff25a39E', symObjAddr: 0x18C, symBinAddr: 0x15E8C, symSize: 0x54 }
  - { offset: 0xD60B9, size: 0x8, addend: 0x0, symName: '__ZN111_$LT$T$u20$as$u20$pyo3..impl_..callback..IntoPyCallbackOutput$LT$$BP$mut$u20$pyo3_ffi..object..PyObject$GT$$GT$7convert17h3b314512166c4e35E', symObjAddr: 0x0, symBinAddr: 0x15EE0, symSize: 0x30 }
  - { offset: 0xD7597, size: 0x8, addend: 0x0, symName: '__ZN111_$LT$T$u20$as$u20$pyo3..impl_..callback..IntoPyCallbackOutput$LT$$BP$mut$u20$pyo3_ffi..object..PyObject$GT$$GT$7convert17h3b314512166c4e35E', symObjAddr: 0x0, symBinAddr: 0x15EE0, symSize: 0x30 }
  - { offset: 0xD75E5, size: 0x8, addend: 0x0, symName: '__ZN111_$LT$T$u20$as$u20$pyo3..impl_..callback..IntoPyCallbackOutput$LT$$BP$mut$u20$pyo3_ffi..object..PyObject$GT$$GT$7convert17he8105121a122f443E', symObjAddr: 0x30, symBinAddr: 0x15F10, symSize: 0x38 }
  - { offset: 0xD7634, size: 0x8, addend: 0x0, symName: __ZN4pyo35impl_8callback7convert17h6b00a132aed4f063E, symObjAddr: 0x68, symBinAddr: 0x15F48, symSize: 0x28 }
  - { offset: 0xD768B, size: 0x8, addend: 0x0, symName: __ZN4pyo35impl_8callback7convert17hb346e8e38e66a726E, symObjAddr: 0x90, symBinAddr: 0x15F70, symSize: 0x1C }
  - { offset: 0xD76E3, size: 0x8, addend: 0x0, symName: __ZN4pyo35impl_8callback7convert17hbcf03d24da2d01bfE, symObjAddr: 0xAC, symBinAddr: 0x15F8C, symSize: 0x24 }
  - { offset: 0xD773A, size: 0x8, addend: 0x0, symName: __ZN4pyo35impl_8callback7convert17hf48823a30cdfbd7eE, symObjAddr: 0xD0, symBinAddr: 0x15FB0, symSize: 0x20 }
  - { offset: 0xD80D0, size: 0x8, addend: 0x0, symName: '__ZN5tokio4task4coop11with_budget28_$u7b$$u7b$closure$u7d$$u7d$17h0392952e7b5ee5aeE', symObjAddr: 0x0, symBinAddr: 0x15FD0, symSize: 0x74 }
  - { offset: 0xDEB9C, size: 0x8, addend: 0x0, symName: '__ZN5tokio4task4coop11with_budget28_$u7b$$u7b$closure$u7d$$u7d$17h0392952e7b5ee5aeE', symObjAddr: 0x0, symBinAddr: 0x15FD0, symSize: 0x74 }
  - { offset: 0xDEC07, size: 0x8, addend: 0x0, symName: '__ZN5tokio4task4coop11with_budget28_$u7b$$u7b$closure$u7d$$u7d$17h0dfdb0550bf8a2c5E', symObjAddr: 0x74, symBinAddr: 0x16044, symSize: 0x74 }
  - { offset: 0xDEC72, size: 0x8, addend: 0x0, symName: '__ZN5tokio4task4coop11with_budget28_$u7b$$u7b$closure$u7d$$u7d$17h21f3720c331491c1E', symObjAddr: 0xE8, symBinAddr: 0x160B8, symSize: 0x74 }
  - { offset: 0xDECDD, size: 0x8, addend: 0x0, symName: '__ZN5tokio4task4coop11with_budget28_$u7b$$u7b$closure$u7d$$u7d$17h2f1c0e810ee99e95E', symObjAddr: 0x15C, symBinAddr: 0x1612C, symSize: 0x74 }
  - { offset: 0xDED48, size: 0x8, addend: 0x0, symName: '__ZN5tokio4task4coop11with_budget28_$u7b$$u7b$closure$u7d$$u7d$17h2fbbf5b69ab0b128E', symObjAddr: 0x1D0, symBinAddr: 0x161A0, symSize: 0x74 }
  - { offset: 0xDEDB3, size: 0x8, addend: 0x0, symName: '__ZN5tokio4task4coop11with_budget28_$u7b$$u7b$closure$u7d$$u7d$17h35c94abd5039001dE', symObjAddr: 0x244, symBinAddr: 0x16214, symSize: 0x74 }
  - { offset: 0xDEE1E, size: 0x8, addend: 0x0, symName: '__ZN5tokio4task4coop11with_budget28_$u7b$$u7b$closure$u7d$$u7d$17h41b469ac8f9001e6E', symObjAddr: 0x2B8, symBinAddr: 0x16288, symSize: 0x74 }
  - { offset: 0xDEE89, size: 0x8, addend: 0x0, symName: '__ZN5tokio4task4coop11with_budget28_$u7b$$u7b$closure$u7d$$u7d$17h4827a8991b11f362E', symObjAddr: 0x32C, symBinAddr: 0x162FC, symSize: 0x74 }
  - { offset: 0xDEEF4, size: 0x8, addend: 0x0, symName: '__ZN5tokio4task4coop11with_budget28_$u7b$$u7b$closure$u7d$$u7d$17h4a7579fabbd6ba07E', symObjAddr: 0x3A0, symBinAddr: 0x16370, symSize: 0x74 }
  - { offset: 0xDEF5F, size: 0x8, addend: 0x0, symName: '__ZN5tokio4task4coop11with_budget28_$u7b$$u7b$closure$u7d$$u7d$17h4c4a2e2d57a2de78E', symObjAddr: 0x414, symBinAddr: 0x163E4, symSize: 0x74 }
  - { offset: 0xDEFCA, size: 0x8, addend: 0x0, symName: '__ZN5tokio4task4coop11with_budget28_$u7b$$u7b$closure$u7d$$u7d$17h54a5375cfe523e49E', symObjAddr: 0x488, symBinAddr: 0x16458, symSize: 0x74 }
  - { offset: 0xDF035, size: 0x8, addend: 0x0, symName: '__ZN5tokio4task4coop11with_budget28_$u7b$$u7b$closure$u7d$$u7d$17h588d6e5dfb5cd291E', symObjAddr: 0x4FC, symBinAddr: 0x164CC, symSize: 0x74 }
  - { offset: 0xDF0A0, size: 0x8, addend: 0x0, symName: '__ZN5tokio4task4coop11with_budget28_$u7b$$u7b$closure$u7d$$u7d$17h600120eaa2e57f90E', symObjAddr: 0x570, symBinAddr: 0x16540, symSize: 0x74 }
  - { offset: 0xDF10B, size: 0x8, addend: 0x0, symName: '__ZN5tokio4task4coop11with_budget28_$u7b$$u7b$closure$u7d$$u7d$17h74e2eac1cf9945acE', symObjAddr: 0x5E4, symBinAddr: 0x165B4, symSize: 0x74 }
  - { offset: 0xDF176, size: 0x8, addend: 0x0, symName: '__ZN5tokio4task4coop11with_budget28_$u7b$$u7b$closure$u7d$$u7d$17h899bdec50fcdfc01E', symObjAddr: 0x658, symBinAddr: 0x16628, symSize: 0x74 }
  - { offset: 0xDF1E1, size: 0x8, addend: 0x0, symName: '__ZN5tokio4task4coop11with_budget28_$u7b$$u7b$closure$u7d$$u7d$17h8a79d0c1919507eeE', symObjAddr: 0x6CC, symBinAddr: 0x1669C, symSize: 0x74 }
  - { offset: 0xDF24C, size: 0x8, addend: 0x0, symName: '__ZN5tokio4task4coop11with_budget28_$u7b$$u7b$closure$u7d$$u7d$17h8c0e34579ebab720E', symObjAddr: 0x740, symBinAddr: 0x16710, symSize: 0x74 }
  - { offset: 0xDF2B7, size: 0x8, addend: 0x0, symName: '__ZN5tokio4task4coop11with_budget28_$u7b$$u7b$closure$u7d$$u7d$17h8f3dd2013a234375E', symObjAddr: 0x7B4, symBinAddr: 0x16784, symSize: 0x74 }
  - { offset: 0xDF322, size: 0x8, addend: 0x0, symName: '__ZN5tokio4task4coop11with_budget28_$u7b$$u7b$closure$u7d$$u7d$17h8f9a51367d639670E', symObjAddr: 0x828, symBinAddr: 0x167F8, symSize: 0x74 }
  - { offset: 0xDF38D, size: 0x8, addend: 0x0, symName: '__ZN5tokio4task4coop11with_budget28_$u7b$$u7b$closure$u7d$$u7d$17h99ee382bb50500a8E', symObjAddr: 0x89C, symBinAddr: 0x1686C, symSize: 0x74 }
  - { offset: 0xDF3F8, size: 0x8, addend: 0x0, symName: '__ZN5tokio4task4coop11with_budget28_$u7b$$u7b$closure$u7d$$u7d$17h9d7104815b303bd3E', symObjAddr: 0x910, symBinAddr: 0x168E0, symSize: 0x74 }
  - { offset: 0xDF463, size: 0x8, addend: 0x0, symName: '__ZN5tokio4task4coop11with_budget28_$u7b$$u7b$closure$u7d$$u7d$17ha9ff6823e65d0260E', symObjAddr: 0x984, symBinAddr: 0x16954, symSize: 0x74 }
  - { offset: 0xDF4CE, size: 0x8, addend: 0x0, symName: '__ZN5tokio4task4coop11with_budget28_$u7b$$u7b$closure$u7d$$u7d$17hb48f303252453d61E', symObjAddr: 0x9F8, symBinAddr: 0x169C8, symSize: 0x74 }
  - { offset: 0xDF539, size: 0x8, addend: 0x0, symName: '__ZN5tokio4task4coop11with_budget28_$u7b$$u7b$closure$u7d$$u7d$17hbac6a9560c233740E', symObjAddr: 0xA6C, symBinAddr: 0x16A3C, symSize: 0x74 }
  - { offset: 0xDF5A4, size: 0x8, addend: 0x0, symName: '__ZN5tokio4task4coop11with_budget28_$u7b$$u7b$closure$u7d$$u7d$17hca03d09fb1892aaeE', symObjAddr: 0xAE0, symBinAddr: 0x16AB0, symSize: 0x74 }
  - { offset: 0xDF60F, size: 0x8, addend: 0x0, symName: '__ZN5tokio4task4coop11with_budget28_$u7b$$u7b$closure$u7d$$u7d$17hcaddbca96ad7033cE', symObjAddr: 0xB54, symBinAddr: 0x16B24, symSize: 0x74 }
  - { offset: 0xDF67A, size: 0x8, addend: 0x0, symName: '__ZN5tokio4task4coop11with_budget28_$u7b$$u7b$closure$u7d$$u7d$17hd447bca56cbc7664E', symObjAddr: 0xBC8, symBinAddr: 0x16B98, symSize: 0x74 }
  - { offset: 0xDF6E5, size: 0x8, addend: 0x0, symName: '__ZN5tokio4task4coop11with_budget28_$u7b$$u7b$closure$u7d$$u7d$17hdb4ec9c622fbb0d8E', symObjAddr: 0xC3C, symBinAddr: 0x16C0C, symSize: 0x74 }
  - { offset: 0xDF750, size: 0x8, addend: 0x0, symName: '__ZN5tokio4task4coop11with_budget28_$u7b$$u7b$closure$u7d$$u7d$17he839893c3fde3ea2E', symObjAddr: 0xCB0, symBinAddr: 0x16C80, symSize: 0x74 }
  - { offset: 0xDF7BB, size: 0x8, addend: 0x0, symName: '__ZN5tokio4task4coop11with_budget28_$u7b$$u7b$closure$u7d$$u7d$17hebaa0d3247a58d09E', symObjAddr: 0xD24, symBinAddr: 0x16CF4, symSize: 0x74 }
  - { offset: 0xDF826, size: 0x8, addend: 0x0, symName: '__ZN5tokio4task4coop11with_budget28_$u7b$$u7b$closure$u7d$$u7d$17hec9d1059caff098cE', symObjAddr: 0xD98, symBinAddr: 0x16D68, symSize: 0x74 }
  - { offset: 0xDF891, size: 0x8, addend: 0x0, symName: '__ZN5tokio4task4coop11with_budget28_$u7b$$u7b$closure$u7d$$u7d$17hf5aa1038234c8be8E', symObjAddr: 0xE0C, symBinAddr: 0x16DDC, symSize: 0x74 }
  - { offset: 0xE3748, size: 0x8, addend: 0x0, symName: '__ZN60_$LT$serde_json..number..N$u20$as$u20$core..clone..Clone$GT$5clone17hc889b32c2642a0bfE', symObjAddr: 0x0, symBinAddr: 0x16E50, symSize: 0x1C }
  - { offset: 0xE3764, size: 0x8, addend: 0x0, symName: '__ZN60_$LT$serde_json..number..N$u20$as$u20$core..clone..Clone$GT$5clone17hc889b32c2642a0bfE', symObjAddr: 0x0, symBinAddr: 0x16E50, symSize: 0x1C }
  - { offset: 0xE3796, size: 0x8, addend: 0x0, symName: '__ZN65_$LT$serde_json..number..Number$u20$as$u20$core..clone..Clone$GT$5clone17h0377d3747cdc4717E', symObjAddr: 0x1C, symBinAddr: 0x16E6C, symSize: 0x38 }
  - { offset: 0xE37C8, size: 0x8, addend: 0x0, symName: '__ZN67_$LT$serde_json..number..Number$u20$as$u20$core..cmp..PartialEq$GT$2eq17h8538223c350211f6E', symObjAddr: 0x54, symBinAddr: 0x16EA4, symSize: 0x2C }
  - { offset: 0xE38ED, size: 0x8, addend: 0x0, symName: __ZN5tokio7runtime7runtime7Runtime14block_on_inner17h1c56efd4f6aae768E, symObjAddr: 0x0, symBinAddr: 0x16ED0, symSize: 0x110 }
  - { offset: 0xEDF3E, size: 0x8, addend: 0x0, symName: __ZN5tokio7runtime7runtime7Runtime14block_on_inner17h1c56efd4f6aae768E, symObjAddr: 0x0, symBinAddr: 0x16ED0, symSize: 0x110 }
  - { offset: 0xEE0FD, size: 0x8, addend: 0x0, symName: __ZN5tokio7runtime7runtime7Runtime14block_on_inner17h6648a40f44e143abE, symObjAddr: 0x110, symBinAddr: 0x16FE0, symSize: 0x164 }
  - { offset: 0xEE197, size: 0x8, addend: 0x0, symName: __ZN5tokio7runtime7runtime7Runtime14block_on_inner17h7f70657c5f7322feE, symObjAddr: 0x274, symBinAddr: 0x17144, symSize: 0x164 }
  - { offset: 0xEEC17, size: 0x8, addend: 0x0, symName: __ZN5tokio7runtime7runtime7Runtime14block_on_inner17h8513aae46af6c183E, symObjAddr: 0x3D8, symBinAddr: 0x172A8, symSize: 0x160 }
  - { offset: 0xEECB1, size: 0x8, addend: 0x0, symName: __ZN5tokio7runtime7runtime7Runtime14block_on_inner17h8d1cbd179814df72E, symObjAddr: 0x538, symBinAddr: 0x17408, symSize: 0x160 }
  - { offset: 0xEED58, size: 0x8, addend: 0x0, symName: __ZN5tokio7runtime7runtime7Runtime14block_on_inner17hacd53b96887c6dbeE, symObjAddr: 0x698, symBinAddr: 0x17568, symSize: 0x110 }
  - { offset: 0xEEDFD, size: 0x8, addend: 0x0, symName: __ZN5tokio7runtime7runtime7Runtime14block_on_inner17hbe6e49ae939ef9efE, symObjAddr: 0x7A8, symBinAddr: 0x17678, symSize: 0x110 }
  - { offset: 0xEEEA2, size: 0x8, addend: 0x0, symName: __ZN5tokio7runtime7runtime7Runtime14block_on_inner17hf65848196594f533E, symObjAddr: 0x8B8, symBinAddr: 0x17788, symSize: 0x110 }
  - { offset: 0xEEF3A, size: 0x8, addend: 0x0, symName: __ZN5tokio7runtime7runtime7Runtime8block_on17h115deb9e9473cc91E, symObjAddr: 0x9C8, symBinAddr: 0x17898, symSize: 0x210 }
  - { offset: 0xEEFE0, size: 0x8, addend: 0x0, symName: __ZN5tokio7runtime7runtime7Runtime8block_on17h2057d03a158aefeaE, symObjAddr: 0xBD8, symBinAddr: 0x17AA8, symSize: 0x20C }
  - { offset: 0xEF086, size: 0x8, addend: 0x0, symName: __ZN5tokio7runtime7runtime7Runtime8block_on17h288147fd94483b03E, symObjAddr: 0xDE4, symBinAddr: 0x17CB4, symSize: 0x20C }
  - { offset: 0xEF12C, size: 0x8, addend: 0x0, symName: __ZN5tokio7runtime7runtime7Runtime8block_on17hfe542f88fbd6fe7dE, symObjAddr: 0xFF0, symBinAddr: 0x17EC0, symSize: 0x210 }
  - { offset: 0xEF217, size: 0x8, addend: 0x0, symName: __ZN14tokio_rusqlite10Connection4call17h288ac1d70b5422d9E, symObjAddr: 0x0, symBinAddr: 0x180D0, symSize: 0x1C }
  - { offset: 0xEF271, size: 0x8, addend: 0x0, symName: '__ZN14tokio_rusqlite10Connection4call28_$u7b$$u7b$closure$u7d$$u7d$28_$u7b$$u7b$closure$u7d$$u7d$17h765237aad9df9977E', symObjAddr: 0x4B8, symBinAddr: 0x18588, symSize: 0x28 }
  - { offset: 0xEF2B9, size: 0x8, addend: 0x0, symName: '__ZN14tokio_rusqlite10Connection4call28_$u7b$$u7b$closure$u7d$$u7d$28_$u7b$$u7b$closure$u7d$$u7d$17hcdd0b0d847e6b393E', symObjAddr: 0x4E0, symBinAddr: 0x185B0, symSize: 0x9C }
  - { offset: 0xEF335, size: 0x8, addend: 0x0, symName: '__ZN14tokio_rusqlite10Connection4call28_$u7b$$u7b$closure$u7d$$u7d$28_$u7b$$u7b$closure$u7d$$u7d$17hfd4701375049bb1cE', symObjAddr: 0x57C, symBinAddr: 0x1864C, symSize: 0x18 }
  - { offset: 0xEF476, size: 0x8, addend: 0x0, symName: '__ZN14tokio_rusqlite10Connection4call28_$u7b$$u7b$closure$u7d$$u7d$17h9872be54e9d7ed8fE', symObjAddr: 0x1C, symBinAddr: 0x180EC, symSize: 0x49C }
  - { offset: 0xEF6CC, size: 0x8, addend: 0x0, symName: '__ZN14tokio_rusqlite10Connection4open28_$u7b$$u7b$closure$u7d$$u7d$28_$u7b$$u7b$closure$u7d$$u7d$17h76b53ecd97ea8735E', symObjAddr: 0x810, symBinAddr: 0x188E0, symSize: 0x34 }
  - { offset: 0xEF704, size: 0x8, addend: 0x0, symName: '__ZN14tokio_rusqlite10Connection4open28_$u7b$$u7b$closure$u7d$$u7d$17hf65953ecc65c5672E', symObjAddr: 0x5B8, symBinAddr: 0x18688, symSize: 0x258 }
  - { offset: 0xEF9E1, size: 0x8, addend: 0x0, symName: '__ZN14tokio_rusqlite5start28_$u7b$$u7b$closure$u7d$$u7d$17h1a848113984c5e3aE', symObjAddr: 0x85C, symBinAddr: 0x1892C, symSize: 0x488 }
  - { offset: 0xEFADA, size: 0x8, addend: 0x0, symName: '__ZN14tokio_rusqlite5start28_$u7b$$u7b$closure$u7d$$u7d$28_$u7b$$u7b$closure$u7d$$u7d$17hb86c1130acb2a5b3E', symObjAddr: 0xCE4, symBinAddr: 0x18DB4, symSize: 0x254 }
  - { offset: 0xEFB95, size: 0x8, addend: 0x0, symName: '__ZN14tokio_rusqlite5start28_$u7b$$u7b$closure$u7d$$u7d$28_$u7b$$u7b$closure$u7d$$u7d$17heb13daff405dc035E', symObjAddr: 0xF38, symBinAddr: 0x19008, symSize: 0x18 }
  - { offset: 0xEFBDA, size: 0x8, addend: 0x0, symName: __ZN14tokio_rusqlite5start17h0972e7685c203db2E, symObjAddr: 0x844, symBinAddr: 0x18914, symSize: 0x18 }
  - { offset: 0xF1265, size: 0x8, addend: 0x0, symName: '__ZN59_$LT$F$u20$as$u20$core..future..into_future..IntoFuture$GT$11into_future17h0efa506cafc0fc5aE', symObjAddr: 0xF50, symBinAddr: 0x19020, symSize: 0x18 }
  - { offset: 0xF129A, size: 0x8, addend: 0x0, symName: '__ZN59_$LT$F$u20$as$u20$core..future..into_future..IntoFuture$GT$11into_future17h34dfa72a3a4e34eaE', symObjAddr: 0xF68, symBinAddr: 0x19038, symSize: 0x30 }
  - { offset: 0xF12D0, size: 0x8, addend: 0x0, symName: '__ZN59_$LT$F$u20$as$u20$core..future..into_future..IntoFuture$GT$11into_future17h634faa82ed934affE', symObjAddr: 0xF98, symBinAddr: 0x19068, symSize: 0x30 }
  - { offset: 0xF2CAE, size: 0x8, addend: 0x0, symName: __ZN14tokio_rusqlite10Connection4call17h288ac1d70b5422d9E, symObjAddr: 0x0, symBinAddr: 0x180D0, symSize: 0x1C }
  - { offset: 0xF2D46, size: 0x8, addend: 0x0, symName: __ZN14tokio_rusqlite10Connection4open17habe1144bc8764161E, symObjAddr: 0x594, symBinAddr: 0x18664, symSize: 0x24 }
  - { offset: 0xF32DA, size: 0x8, addend: 0x0, symName: '__ZN15effect_log_core3wal9WalEngine12write_intent28_$u7b$$u7b$closure$u7d$$u7d$17hf47555b9bffba301E', symObjAddr: 0x0, symBinAddr: 0x19098, symSize: 0x234 }
  - { offset: 0xF34F9, size: 0x8, addend: 0x0, symName: '__ZN15effect_log_core3wal9WalEngine12write_intent28_$u7b$$u7b$closure$u7d$$u7d$17hf47555b9bffba301E', symObjAddr: 0x0, symBinAddr: 0x19098, symSize: 0x234 }
  - { offset: 0xF3697, size: 0x8, addend: 0x0, symName: '__ZN15effect_log_core3wal9WalEngine13lookup_intent28_$u7b$$u7b$closure$u7d$$u7d$17h706d70327e3923c9E', symObjAddr: 0x234, symBinAddr: 0x192CC, symSize: 0x264 }
  - { offset: 0xF388B, size: 0x8, addend: 0x0, symName: '__ZN15effect_log_core3wal9WalEngine14advance_cursor28_$u7b$$u7b$closure$u7d$$u7d$17h07000acf86464fc3E', symObjAddr: 0x498, symBinAddr: 0x19530, symSize: 0x2CC }
  - { offset: 0xF3A81, size: 0x8, addend: 0x0, symName: '__ZN15effect_log_core3wal9WalEngine14get_completion28_$u7b$$u7b$closure$u7d$$u7d$17he3bc1a293fd187cbE', symObjAddr: 0x764, symBinAddr: 0x197FC, symSize: 0x238 }
  - { offset: 0xF3C1F, size: 0x8, addend: 0x0, symName: '__ZN15effect_log_core3wal9WalEngine16write_completion28_$u7b$$u7b$closure$u7d$$u7d$17hb83d5c9b04e4505eE', symObjAddr: 0x99C, symBinAddr: 0x19A34, symSize: 0x234 }
  - { offset: 0xF3DBD, size: 0x8, addend: 0x0, symName: '__ZN15effect_log_core3wal9WalEngine7recover28_$u7b$$u7b$closure$u7d$$u7d$17h9c1f945af71f302eE', symObjAddr: 0xBD0, symBinAddr: 0x19C68, symSize: 0xA34 }
  - { offset: 0xF408C, size: 0x8, addend: 0x0, symName: '__ZN15effect_log_core3wal9WalEngine7recover28_$u7b$$u7b$closure$u7d$$u7d$28_$u7b$$u7b$closure$u7d$$u7d$17h0f0d02925ed4524cE', symObjAddr: 0x1604, symBinAddr: 0x1A69C, symSize: 0x50 }
  - { offset: 0xF40D3, size: 0x8, addend: 0x0, symName: '__ZN15effect_log_core3wal9WalEngine7recover28_$u7b$$u7b$closure$u7d$$u7d$28_$u7b$$u7b$closure$u7d$$u7d$17h238a8813bffaf8b2E', symObjAddr: 0x1654, symBinAddr: 0x1A6EC, symSize: 0x1C }
  - { offset: 0xF52C4, size: 0x8, addend: 0x0, symName: '__ZN59_$LT$F$u20$as$u20$core..future..into_future..IntoFuture$GT$11into_future17h0beee50d03af272fE', symObjAddr: 0x1670, symBinAddr: 0x1A708, symSize: 0x30 }
  - { offset: 0xF52FA, size: 0x8, addend: 0x0, symName: '__ZN59_$LT$F$u20$as$u20$core..future..into_future..IntoFuture$GT$11into_future17h559748564c41180bE', symObjAddr: 0x16A0, symBinAddr: 0x1A738, symSize: 0x30 }
  - { offset: 0xF5330, size: 0x8, addend: 0x0, symName: '__ZN59_$LT$F$u20$as$u20$core..future..into_future..IntoFuture$GT$11into_future17h635ce4ae6bb17f15E', symObjAddr: 0x16D0, symBinAddr: 0x1A768, symSize: 0x30 }
  - { offset: 0xF5366, size: 0x8, addend: 0x0, symName: '__ZN59_$LT$F$u20$as$u20$core..future..into_future..IntoFuture$GT$11into_future17h72e49c9a6ee6e77cE', symObjAddr: 0x1700, symBinAddr: 0x1A798, symSize: 0x30 }
  - { offset: 0xF539C, size: 0x8, addend: 0x0, symName: '__ZN59_$LT$F$u20$as$u20$core..future..into_future..IntoFuture$GT$11into_future17h7fe84baa0c34e49aE', symObjAddr: 0x1730, symBinAddr: 0x1A7C8, symSize: 0x30 }
  - { offset: 0xF53D2, size: 0x8, addend: 0x0, symName: '__ZN59_$LT$F$u20$as$u20$core..future..into_future..IntoFuture$GT$11into_future17hc7735c6dac4e409cE', symObjAddr: 0x1760, symBinAddr: 0x1A7F8, symSize: 0x30 }
  - { offset: 0xF6D6C, size: 0x8, addend: 0x0, symName: '__ZN4core3mem13manually_drop21ManuallyDrop$LT$T$GT$4drop17h34958861ea814472E', symObjAddr: 0x0, symBinAddr: 0x1A828, symSize: 0x24 }
  - { offset: 0xFD4F8, size: 0x8, addend: 0x0, symName: '__ZN4core3mem13manually_drop21ManuallyDrop$LT$T$GT$4drop17h34958861ea814472E', symObjAddr: 0x0, symBinAddr: 0x1A828, symSize: 0x24 }
  - { offset: 0xFD530, size: 0x8, addend: 0x0, symName: '__ZN4core3mem13manually_drop21ManuallyDrop$LT$T$GT$4drop17h387ce063f5a59e27E', symObjAddr: 0x24, symBinAddr: 0x1A84C, symSize: 0x10 }
  - { offset: 0xFEC25, size: 0x8, addend: 0x0, symName: '__ZN4core3mem13manually_drop21ManuallyDrop$LT$T$GT$4drop17he06a47b5ae2ea63fE', symObjAddr: 0x34, symBinAddr: 0x1A85C, symSize: 0x24 }
  - { offset: 0xFEC6E, size: 0x8, addend: 0x0, symName: '__ZN5alloc7raw_vec19RawVec$LT$T$C$A$GT$8grow_one17h23d3a18790f85b59E', symObjAddr: 0x0, symBinAddr: 0x1A880, symSize: 0x90 }
  - { offset: 0x1010D1, size: 0x8, addend: 0x0, symName: '__ZN5alloc7raw_vec19RawVec$LT$T$C$A$GT$8grow_one17h23d3a18790f85b59E', symObjAddr: 0x0, symBinAddr: 0x1A880, symSize: 0x90 }
  - { offset: 0x10117F, size: 0x8, addend: 0x0, symName: '__ZN5alloc7raw_vec19RawVec$LT$T$C$A$GT$8grow_one17h416a023e0b70f009E', symObjAddr: 0x90, symBinAddr: 0x1A910, symSize: 0x90 }
  - { offset: 0x1017DC, size: 0x8, addend: 0x0, symName: '__ZN5alloc7raw_vec19RawVec$LT$T$C$A$GT$8grow_one17hdad4b70fd9406628E', symObjAddr: 0x120, symBinAddr: 0x1A9A0, symSize: 0x8C }
  - { offset: 0x101863, size: 0x8, addend: 0x0, symName: '__ZN4core3ptr8non_null16NonNull$LT$T$GT$20offset_from_unsigned17h1829f428544ab607E', symObjAddr: 0x0, symBinAddr: 0x1AA2C, symSize: 0x7C }
  - { offset: 0x1029FC, size: 0x8, addend: 0x0, symName: '__ZN4core3ptr8non_null16NonNull$LT$T$GT$20offset_from_unsigned17h1829f428544ab607E', symObjAddr: 0x0, symBinAddr: 0x1AA2C, symSize: 0x7C }
  - { offset: 0x102B21, size: 0x8, addend: 0x0, symName: '__ZN4core3ptr8non_null16NonNull$LT$T$GT$20offset_from_unsigned17h249c4085ace661ceE', symObjAddr: 0x7C, symBinAddr: 0x1AAA8, symSize: 0x7C }
  - { offset: 0x102C27, size: 0x8, addend: 0x0, symName: '__ZN4core3ptr8non_null16NonNull$LT$T$GT$20offset_from_unsigned17h3e86a1487f8d20aeE', symObjAddr: 0xF8, symBinAddr: 0x1AB24, symSize: 0x7C }
  - { offset: 0x102D2D, size: 0x8, addend: 0x0, symName: '__ZN4core3ptr8non_null16NonNull$LT$T$GT$20offset_from_unsigned17h6dcf0069f72bd5aaE', symObjAddr: 0x174, symBinAddr: 0x1ABA0, symSize: 0x7C }
  - { offset: 0x102E1B, size: 0x8, addend: 0x0, symName: '__ZN4core3cmp5impls55_$LT$impl$u20$core..cmp..PartialEq$u20$for$u20$bool$GT$2eq17h2f7ae9e419043167E', symObjAddr: 0x0, symBinAddr: 0x1AC1C, symSize: 0x34 }
  - { offset: 0x102E3C, size: 0x8, addend: 0x0, symName: '__ZN4core3cmp5impls55_$LT$impl$u20$core..cmp..PartialEq$u20$for$u20$bool$GT$2eq17h2f7ae9e419043167E', symObjAddr: 0x0, symBinAddr: 0x1AC1C, symSize: 0x34 }
  - { offset: 0x102EAF, size: 0x8, addend: 0x0, symName: __ZN8rusqlite5cache14StatementCache13with_capacity17h85ee1bb1e3698067E, symObjAddr: 0x0, symBinAddr: 0x1AC50, symSize: 0x50 }
  - { offset: 0x103B81, size: 0x8, addend: 0x0, symName: __ZN8rusqlite5cache14StatementCache13with_capacity17h85ee1bb1e3698067E, symObjAddr: 0x0, symBinAddr: 0x1AC50, symSize: 0x50 }
  - { offset: 0x103BC1, size: 0x8, addend: 0x0, symName: __ZN4core4task4wake7Context10from_waker17h694c0eb957f16760E, symObjAddr: 0x0, symBinAddr: 0x1ACA0, symSize: 0x40 }
  - { offset: 0x103EC4, size: 0x8, addend: 0x0, symName: __ZN4core4task4wake7Context10from_waker17h694c0eb957f16760E, symObjAddr: 0x0, symBinAddr: 0x1ACA0, symSize: 0x40 }
  - { offset: 0x103F18, size: 0x8, addend: 0x0, symName: __ZN3std5panic12catch_unwind17h238037584d8ee2b5E, symObjAddr: 0x0, symBinAddr: 0x1ACE0, symSize: 0xE0 }
  - { offset: 0x106658, size: 0x8, addend: 0x0, symName: __ZN3std5panic12catch_unwind17h238037584d8ee2b5E, symObjAddr: 0x0, symBinAddr: 0x1ACE0, symSize: 0xE0 }
  - { offset: 0x106721, size: 0x8, addend: 0x0, symName: __ZN3std5panic12catch_unwind17h2829f9bfb01c7325E, symObjAddr: 0xE0, symBinAddr: 0x1ADC0, symSize: 0xDC }
  - { offset: 0x1067CA, size: 0x8, addend: 0x0, symName: __ZN3std5panic12catch_unwind17h292aa221df5672b4E, symObjAddr: 0x1BC, symBinAddr: 0x1AE9C, symSize: 0xE0 }
  - { offset: 0x106893, size: 0x8, addend: 0x0, symName: __ZN3std5panic12catch_unwind17h2bce9607951a46adE, symObjAddr: 0x29C, symBinAddr: 0x1AF7C, symSize: 0xF0 }
  - { offset: 0x10695E, size: 0x8, addend: 0x0, symName: __ZN3std5panic12catch_unwind17h5d9c8cfea64c307cE, symObjAddr: 0x38C, symBinAddr: 0x1B06C, symSize: 0xDC }
  - { offset: 0x106A07, size: 0x8, addend: 0x0, symName: __ZN3std5panic12catch_unwind17ha6617255c207b615E, symObjAddr: 0x468, symBinAddr: 0x1B148, symSize: 0xDC }
  - { offset: 0x106AB0, size: 0x8, addend: 0x0, symName: __ZN3std5panic12catch_unwind17hd822dd0d6613d704E, symObjAddr: 0x544, symBinAddr: 0x1B224, symSize: 0xCC }
  - { offset: 0x106B59, size: 0x8, addend: 0x0, symName: __ZN3std5panic12catch_unwind17he2fedfefd9e57192E, symObjAddr: 0x610, symBinAddr: 0x1B2F0, symSize: 0xDC }
  - { offset: 0x106FAB, size: 0x8, addend: 0x0, symName: '__ZN70_$LT$alloc..ffi..c_str..CString$u20$as$u20$core..ops..deref..Deref$GT$5deref17hdc314fd0c35cb2c3E', symObjAddr: 0x0, symBinAddr: 0x1B420, symSize: 0x20 }
  - { offset: 0x10700D, size: 0x8, addend: 0x0, symName: '__ZN70_$LT$alloc..ffi..c_str..CString$u20$as$u20$core..ops..deref..Deref$GT$5deref17hdc314fd0c35cb2c3E', symObjAddr: 0x0, symBinAddr: 0x1B420, symSize: 0x20 }
  - { offset: 0x10709B, size: 0x8, addend: 0x0, symName: '__ZN97_$LT$alloc..ffi..c_str..CString$u20$as$u20$core..borrow..Borrow$LT$core..ffi..c_str..CStr$GT$$GT$6borrow17h51146bad7ebafc25E', symObjAddr: 0x20, symBinAddr: 0x1B440, symSize: 0x20 }
  - { offset: 0x107246, size: 0x8, addend: 0x0, symName: '__ZN10serde_core3ser5impls60_$LT$impl$u20$serde_core..ser..Serialize$u20$for$u20$str$GT$9serialize17h6f296d596f2b4c09E', symObjAddr: 0x0, symBinAddr: 0x1B460, symSize: 0x28 }
  - { offset: 0x1074CC, size: 0x8, addend: 0x0, symName: '__ZN10serde_core3ser5impls60_$LT$impl$u20$serde_core..ser..Serialize$u20$for$u20$str$GT$9serialize17h6f296d596f2b4c09E', symObjAddr: 0x0, symBinAddr: 0x1B460, symSize: 0x28 }
  - { offset: 0x107515, size: 0x8, addend: 0x0, symName: '__ZN10serde_core3ser5impls62_$LT$impl$u20$serde_core..ser..Serialize$u20$for$u20$$RF$T$GT$9serialize17h1b28bafc76bdbea8E', symObjAddr: 0x28, symBinAddr: 0x1B488, symSize: 0x28 }
  - { offset: 0x107564, size: 0x8, addend: 0x0, symName: '__ZN10serde_core3ser5impls62_$LT$impl$u20$serde_core..ser..Serialize$u20$for$u20$$RF$T$GT$9serialize17h85ea179eafd1501eE', symObjAddr: 0x50, symBinAddr: 0x1B4B0, symSize: 0x30 }
  - { offset: 0x108251, size: 0x8, addend: 0x0, symName: __ZN8rusqlite10Connection15open_with_flags17h7e8585b51ca82710E, symObjAddr: 0x0, symBinAddr: 0x1B4E0, symSize: 0x18C }
  - { offset: 0x1087DA, size: 0x8, addend: 0x0, symName: '__ZN8rusqlite10Connection15open_with_flags28_$u7b$$u7b$closure$u7d$$u7d$17h8c61113054040b5bE', symObjAddr: 0x18C, symBinAddr: 0x1B66C, symSize: 0x98 }
  - { offset: 0x109C1A, size: 0x8, addend: 0x0, symName: __ZN8rusqlite10Connection15open_with_flags17h7e8585b51ca82710E, symObjAddr: 0x0, symBinAddr: 0x1B4E0, symSize: 0x18C }
  - { offset: 0x109CAB, size: 0x8, addend: 0x0, symName: __ZN8rusqlite10Connection4open17he18ee8118b83d8b1E, symObjAddr: 0x224, symBinAddr: 0x1B704, symSize: 0xB8 }
  - { offset: 0x109D3B, size: 0x8, addend: 0x0, symName: __ZN10serde_json5value8to_value17hb2a0190072573b00E, symObjAddr: 0x0, symBinAddr: 0x1B7BC, symSize: 0x44 }
  - { offset: 0x109FB7, size: 0x8, addend: 0x0, symName: __ZN10serde_json5value8to_value17hb2a0190072573b00E, symObjAddr: 0x0, symBinAddr: 0x1B7BC, symSize: 0x44 }
  - { offset: 0x10A43F, size: 0x8, addend: 0x0, symName: __ZN4core3cmp9PartialEq2ne17hd174205e35e572baE, symObjAddr: 0x44, symBinAddr: 0x1B800, symSize: 0x30 }
  - { offset: 0x10A72A, size: 0x8, addend: 0x0, symName: '__ZN73_$LT$$u5b$A$u5d$$u20$as$u20$core..slice..cmp..SlicePartialEq$LT$B$GT$$GT$5equal17h2a2ec158e74ee154E', symObjAddr: 0x74, symBinAddr: 0x1B830, symSize: 0x18C }
  - { offset: 0x10AFD5, size: 0x8, addend: 0x0, symName: __ZN4pyo35impl_9pymethods11tp_new_impl17h2afb84c86fb7c44bE, symObjAddr: 0x0, symBinAddr: 0x1B9BC, symSize: 0x3C }
  - { offset: 0x10B79D, size: 0x8, addend: 0x0, symName: '__ZN50_$LT$T$u20$as$u20$core..convert..Into$LT$U$GT$$GT$4into17h67a62ee182a504c4E', symObjAddr: 0x78, symBinAddr: 0x1BA34, symSize: 0x24 }
  - { offset: 0x110379, size: 0x8, addend: 0x0, symName: __ZN4pyo35impl_9pymethods11tp_new_impl17h2afb84c86fb7c44bE, symObjAddr: 0x0, symBinAddr: 0x1B9BC, symSize: 0x3C }
  - { offset: 0x1103DB, size: 0x8, addend: 0x0, symName: __ZN4pyo35impl_9pymethods11tp_new_impl17ha5e81343704ba470E, symObjAddr: 0x3C, symBinAddr: 0x1B9F8, symSize: 0x3C }
  - { offset: 0x1135D0, size: 0x8, addend: 0x0, symName: '__ZN106_$LT$pyo3..impl_..extract_argument..NoVarargs$u20$as$u20$pyo3..impl_..extract_argument..VarargsHandler$GT$20handle_varargs_tuple17h73f13bd5fcb05482E', symObjAddr: 0x0, symBinAddr: 0x1BA58, symSize: 0xA0 }
  - { offset: 0x114EE5, size: 0x8, addend: 0x0, symName: '__ZN106_$LT$pyo3..impl_..extract_argument..NoVarargs$u20$as$u20$pyo3..impl_..extract_argument..VarargsHandler$GT$20handle_varargs_tuple17h73f13bd5fcb05482E', symObjAddr: 0x0, symBinAddr: 0x1BA58, symSize: 0xA0 }
  - { offset: 0x114F5E, size: 0x8, addend: 0x0, symName: '__ZN106_$LT$pyo3..impl_..extract_argument..NoVarargs$u20$as$u20$pyo3..impl_..extract_argument..VarargsHandler$GT$23handle_varargs_fastcall17h972c96df004e10d1E', symObjAddr: 0xA0, symBinAddr: 0x1BAF8, symSize: 0xB4 }
  - { offset: 0x114FD2, size: 0x8, addend: 0x0, symName: '__ZN114_$LT$pyo3..impl_..extract_argument..NoVarkeywords$u20$as$u20$pyo3..impl_..extract_argument..VarkeywordsHandler$GT$17handle_varkeyword17he44a0e04f1154010E', symObjAddr: 0x154, symBinAddr: 0x1BBAC, symSize: 0x6C }
  - { offset: 0x115111, size: 0x8, addend: 0x0, symName: __ZN4pyo35impl_16extract_argument24unwrap_required_argument17hec276e33fa263248E, symObjAddr: 0x57C, symBinAddr: 0x1BFD4, symSize: 0x64 }
  - { offset: 0x115526, size: 0x8, addend: 0x0, symName: __ZN4pyo35impl_16extract_argument19FunctionDescription36find_keyword_parameter_in_positional17h697d06994abf0234E, symObjAddr: 0x1C0, symBinAddr: 0x1BC18, symSize: 0x5C }
  - { offset: 0x115558, size: 0x8, addend: 0x0, symName: __ZN4pyo35impl_16extract_argument19FunctionDescription38find_keyword_parameter_in_keyword_only17h31e6dae62899dfcdE, symObjAddr: 0x21C, symBinAddr: 0x1BC74, symSize: 0x5C }
  - { offset: 0x115C27, size: 0x8, addend: 0x0, symName: __ZN4pyo35impl_16extract_argument19FunctionDescription44ensure_no_missing_required_keyword_arguments17h7ca5a63f9f05c1faE, symObjAddr: 0x278, symBinAddr: 0x1BCD0, symSize: 0x160 }
  - { offset: 0x115CF3, size: 0x8, addend: 0x0, symName: __ZN4pyo35impl_16extract_argument19FunctionDescription47ensure_no_missing_required_positional_arguments17hee069664a3823898E, symObjAddr: 0x3D8, symBinAddr: 0x1BE30, symSize: 0x1A4 }
  - { offset: 0x115E8E, size: 0x8, addend: 0x0, symName: __ZN4pyo35types14notimplemented16PyNotImplemented3get17hd57fa77d3e69c4f8E, symObjAddr: 0x0, symBinAddr: 0x1C038, symSize: 0x2C }
  - { offset: 0x117590, size: 0x8, addend: 0x0, symName: __ZN4pyo35types14notimplemented16PyNotImplemented3get17hd57fa77d3e69c4f8E, symObjAddr: 0x0, symBinAddr: 0x1C038, symSize: 0x2C }
  - { offset: 0x1175DB, size: 0x8, addend: 0x0, symName: '__ZN3std11collections4hash3map18Entry$LT$K$C$V$GT$9or_insert17h2a2b3e21e27c0d6bE', symObjAddr: 0x0, symBinAddr: 0x1C064, symSize: 0x1B0 }
  - { offset: 0x1185F2, size: 0x8, addend: 0x0, symName: '__ZN3std11collections4hash3map18Entry$LT$K$C$V$GT$9or_insert17h2a2b3e21e27c0d6bE', symObjAddr: 0x0, symBinAddr: 0x1C064, symSize: 0x1B0 }
  - { offset: 0x1187D4, size: 0x8, addend: 0x0, symName: '__ZN3std11collections4hash3map24HashMap$LT$K$C$V$C$S$GT$5entry17h12df16414feed5e1E', symObjAddr: 0x1B0, symBinAddr: 0x1C214, symSize: 0xB0 }
  - { offset: 0x11886D, size: 0x8, addend: 0x0, symName: '__ZN3std11collections4hash3map24HashMap$LT$K$C$V$C$S$GT$6insert17hca9e1388afb6a1f7E', symObjAddr: 0x260, symBinAddr: 0x1C2C4, symSize: 0x28 }
  - { offset: 0x118D4F, size: 0x8, addend: 0x0, symName: '__ZN3std11collections4hash3map24HashMap$LT$K$C$V$C$S$GT$6remove17hf14b7ca089d0935aE', symObjAddr: 0x288, symBinAddr: 0x1C2EC, symSize: 0x2C }
  - { offset: 0x118DC3, size: 0x8, addend: 0x0, symName: __ZN3std6thread6Thread2id17h0710a0520d150036E, symObjAddr: 0x0, symBinAddr: 0x1C318, symSize: 0x1C }
  - { offset: 0x1192AE, size: 0x8, addend: 0x0, symName: __ZN3std6thread6Thread2id17h0710a0520d150036E, symObjAddr: 0x0, symBinAddr: 0x1C318, symSize: 0x1C }
  - { offset: 0x11935C, size: 0x8, addend: 0x0, symName: '__ZN77_$LT$alloc..boxed..Box$LT$T$C$A$GT$$u20$as$u20$core..ops..deref..DerefMut$GT$9deref_mut17h27539bb300b582c5E', symObjAddr: 0x0, symBinAddr: 0x1C334, symSize: 0x18 }
  - { offset: 0x11CABC, size: 0x8, addend: 0x0, symName: '__ZN77_$LT$alloc..boxed..Box$LT$T$C$A$GT$$u20$as$u20$core..ops..deref..DerefMut$GT$9deref_mut17h27539bb300b582c5E', symObjAddr: 0x0, symBinAddr: 0x1C334, symSize: 0x18 }
  - { offset: 0x11CAFC, size: 0x8, addend: 0x0, symName: '__ZN77_$LT$alloc..boxed..Box$LT$T$C$A$GT$$u20$as$u20$core..ops..deref..DerefMut$GT$9deref_mut17h27c205b117548494E', symObjAddr: 0x18, symBinAddr: 0x1C34C, symSize: 0x20 }
  - { offset: 0x11CB3C, size: 0x8, addend: 0x0, symName: '__ZN77_$LT$alloc..boxed..Box$LT$T$C$A$GT$$u20$as$u20$core..ops..deref..DerefMut$GT$9deref_mut17h29035763b048f748E', symObjAddr: 0x38, symBinAddr: 0x1C36C, symSize: 0x18 }
  - { offset: 0x11CB7C, size: 0x8, addend: 0x0, symName: '__ZN77_$LT$alloc..boxed..Box$LT$T$C$A$GT$$u20$as$u20$core..ops..deref..DerefMut$GT$9deref_mut17h39f78017428d1588E', symObjAddr: 0x50, symBinAddr: 0x1C384, symSize: 0x18 }
  - { offset: 0x11CBBC, size: 0x8, addend: 0x0, symName: '__ZN77_$LT$alloc..boxed..Box$LT$T$C$A$GT$$u20$as$u20$core..ops..deref..DerefMut$GT$9deref_mut17h95fa11ffe8c6f822E', symObjAddr: 0x68, symBinAddr: 0x1C39C, symSize: 0x20 }
  - { offset: 0x11CBFC, size: 0x8, addend: 0x0, symName: '__ZN77_$LT$alloc..boxed..Box$LT$T$C$A$GT$$u20$as$u20$core..ops..deref..DerefMut$GT$9deref_mut17hb12115d8d8add37bE', symObjAddr: 0x88, symBinAddr: 0x1C3BC, symSize: 0x20 }
  - { offset: 0x11CC3C, size: 0x8, addend: 0x0, symName: '__ZN77_$LT$alloc..boxed..Box$LT$T$C$A$GT$$u20$as$u20$core..ops..deref..DerefMut$GT$9deref_mut17hb5dad5fb6527603cE', symObjAddr: 0xA8, symBinAddr: 0x1C3DC, symSize: 0x20 }
  - { offset: 0x11CC7C, size: 0x8, addend: 0x0, symName: '__ZN77_$LT$alloc..boxed..Box$LT$T$C$A$GT$$u20$as$u20$core..ops..deref..DerefMut$GT$9deref_mut17he0c58f120800a2d8E', symObjAddr: 0xC8, symBinAddr: 0x1C3FC, symSize: 0x18 }
  - { offset: 0x11CCBC, size: 0x8, addend: 0x0, symName: '__ZN77_$LT$alloc..boxed..Box$LT$T$C$A$GT$$u20$as$u20$core..ops..deref..DerefMut$GT$9deref_mut17he34b3b175759fedfE', symObjAddr: 0xE0, symBinAddr: 0x1C414, symSize: 0x20 }
  - { offset: 0x11CCFC, size: 0x8, addend: 0x0, symName: '__ZN77_$LT$alloc..boxed..Box$LT$T$C$A$GT$$u20$as$u20$core..ops..deref..DerefMut$GT$9deref_mut17hffdb06e001ab5a98E', symObjAddr: 0x100, symBinAddr: 0x1C434, symSize: 0x20 }
  - { offset: 0x11FB70, size: 0x8, addend: 0x0, symName: __ZN4pyo35types10typeobject6PyType22from_borrowed_type_ptr17h79d2c563e7db453eE, symObjAddr: 0x0, symBinAddr: 0x1C454, symSize: 0x34 }
  - { offset: 0x121276, size: 0x8, addend: 0x0, symName: __ZN4pyo35types10typeobject6PyType22from_borrowed_type_ptr17h79d2c563e7db453eE, symObjAddr: 0x0, symBinAddr: 0x1C454, symSize: 0x34 }
  - { offset: 0x1212CF, size: 0x8, addend: 0x0, symName: __ZN12tracing_core10subscriber8Interest5never17h45ff0bdc0286bcb0E, symObjAddr: 0x0, symBinAddr: 0x1C488, symSize: 0x14 }
  - { offset: 0x121368, size: 0x8, addend: 0x0, symName: __ZN12tracing_core10subscriber8Interest5never17h45ff0bdc0286bcb0E, symObjAddr: 0x0, symBinAddr: 0x1C488, symSize: 0x14 }
  - { offset: 0x12137B, size: 0x8, addend: 0x0, symName: __ZN12tracing_core10subscriber8Interest6always17h9dda4c2ae6558ac1E, symObjAddr: 0x14, symBinAddr: 0x1C49C, symSize: 0x18 }
  - { offset: 0x1213A2, size: 0x8, addend: 0x0, symName: __ZN12tracing_core10subscriber8Interest8is_never17hab92ad8d2a40507dE, symObjAddr: 0x2C, symBinAddr: 0x1C4B4, symSize: 0x20 }
  - { offset: 0x1213C5, size: 0x8, addend: 0x0, symName: __ZN12tracing_core10subscriber8Interest9sometimes17h8e8f78da55d3ef2fE, symObjAddr: 0x4C, symBinAddr: 0x1C4D4, symSize: 0x18 }
  - { offset: 0x1213F6, size: 0x8, addend: 0x0, symName: '__ZN103_$LT$pyo3..instance..Bound$LT$pyo3..types..any..PyAny$GT$$u20$as$u20$pyo3..types..any..PyAnyMethods$GT$11call_method17h329ae2d8526edb67E', symObjAddr: 0x0, symBinAddr: 0x1C4EC, symSize: 0x98 }
  - { offset: 0x121BDF, size: 0x8, addend: 0x0, symName: '__ZN4core5slice29_$LT$impl$u20$$u5b$T$u5d$$GT$4iter17h7334deafdcbc14d4E', symObjAddr: 0x2308, symBinAddr: 0x1E7F4, symSize: 0x28 }
  - { offset: 0x125A3F, size: 0x8, addend: 0x0, symName: '__ZN50_$LT$T$u20$as$u20$core..convert..Into$LT$U$GT$$GT$4into17h19a9f9cd703cdfc3E', symObjAddr: 0x35E0, symBinAddr: 0x1FACC, symSize: 0x24 }
  - { offset: 0x125A7F, size: 0x8, addend: 0x0, symName: '__ZN50_$LT$T$u20$as$u20$core..convert..Into$LT$U$GT$$GT$4into17h6d41cb023f13732bE', symObjAddr: 0x3604, symBinAddr: 0x1FAF0, symSize: 0x24 }
  - { offset: 0x125ADF, size: 0x8, addend: 0x0, symName: '__ZN63_$LT$I$u20$as$u20$core..iter..traits..collect..IntoIterator$GT$9into_iter17hf8c3da0d122118adE', symObjAddr: 0x36C4, symBinAddr: 0x1FBB0, symSize: 0x14 }
  - { offset: 0x127A39, size: 0x8, addend: 0x0, symName: '__ZN103_$LT$pyo3..instance..Bound$LT$pyo3..types..any..PyAny$GT$$u20$as$u20$pyo3..types..any..PyAnyMethods$GT$11call_method17h329ae2d8526edb67E', symObjAddr: 0x0, symBinAddr: 0x1C4EC, symSize: 0x98 }
  - { offset: 0x127AA6, size: 0x8, addend: 0x0, symName: '__ZN103_$LT$pyo3..instance..Bound$LT$pyo3..types..any..PyAny$GT$$u20$as$u20$pyo3..types..any..PyAnyMethods$GT$11call_method17h4af3f0887901da97E', symObjAddr: 0x98, symBinAddr: 0x1C584, symSize: 0xB8 }
  - { offset: 0x127B14, size: 0x8, addend: 0x0, symName: '__ZN103_$LT$pyo3..instance..Bound$LT$pyo3..types..any..PyAny$GT$$u20$as$u20$pyo3..types..any..PyAnyMethods$GT$11call_method17hd05dd047bf80e6faE', symObjAddr: 0x150, symBinAddr: 0x1C63C, symSize: 0xA0 }
  - { offset: 0x127B81, size: 0x8, addend: 0x0, symName: '__ZN103_$LT$pyo3..instance..Bound$LT$pyo3..types..any..PyAny$GT$$u20$as$u20$pyo3..types..any..PyAnyMethods$GT$12call_method117ha65578f1cbe1ea78E', symObjAddr: 0x1F0, symBinAddr: 0x1C6DC, symSize: 0x40 }
  - { offset: 0x127BDF, size: 0x8, addend: 0x0, symName: '__ZN103_$LT$pyo3..instance..Bound$LT$pyo3..types..any..PyAny$GT$$u20$as$u20$pyo3..types..any..PyAnyMethods$GT$12call_method117hf503e97d826c1939E', symObjAddr: 0x230, symBinAddr: 0x1C71C, symSize: 0x38 }
  - { offset: 0x127C3E, size: 0x8, addend: 0x0, symName: '__ZN103_$LT$pyo3..instance..Bound$LT$pyo3..types..any..PyAny$GT$$u20$as$u20$pyo3..types..any..PyAnyMethods$GT$12call_method117hf8901fcc5b89a924E', symObjAddr: 0x268, symBinAddr: 0x1C754, symSize: 0x40 }
  - { offset: 0x127C9C, size: 0x8, addend: 0x0, symName: '__ZN103_$LT$pyo3..instance..Bound$LT$pyo3..types..any..PyAny$GT$$u20$as$u20$pyo3..types..any..PyAnyMethods$GT$14is_instance_of17he758f0cdcd74807fE', symObjAddr: 0x2A8, symBinAddr: 0x1C794, symSize: 0x24 }
  - { offset: 0x127CD3, size: 0x8, addend: 0x0, symName: '__ZN103_$LT$pyo3..instance..Bound$LT$pyo3..types..any..PyAny$GT$$u20$as$u20$pyo3..types..any..PyAnyMethods$GT$18downcast_unchecked17h3cd75cf553224e4eE', symObjAddr: 0x2CC, symBinAddr: 0x1C7B8, symSize: 0x74 }
  - { offset: 0x127D0A, size: 0x8, addend: 0x0, symName: '__ZN103_$LT$pyo3..instance..Bound$LT$pyo3..types..any..PyAny$GT$$u20$as$u20$pyo3..types..any..PyAnyMethods$GT$18downcast_unchecked17h4abd7da5e4c4e42dE', symObjAddr: 0x340, symBinAddr: 0x1C82C, symSize: 0x74 }
  - { offset: 0x127D41, size: 0x8, addend: 0x0, symName: '__ZN103_$LT$pyo3..instance..Bound$LT$pyo3..types..any..PyAny$GT$$u20$as$u20$pyo3..types..any..PyAnyMethods$GT$18downcast_unchecked17h76164d19ccf85966E', symObjAddr: 0x3B4, symBinAddr: 0x1C8A0, symSize: 0x74 }
  - { offset: 0x127D78, size: 0x8, addend: 0x0, symName: '__ZN103_$LT$pyo3..instance..Bound$LT$pyo3..types..any..PyAny$GT$$u20$as$u20$pyo3..types..any..PyAnyMethods$GT$18downcast_unchecked17he5b27acc0ce1271cE', symObjAddr: 0x428, symBinAddr: 0x1C914, symSize: 0x74 }
  - { offset: 0x127DAF, size: 0x8, addend: 0x0, symName: '__ZN103_$LT$pyo3..instance..Bound$LT$pyo3..types..any..PyAny$GT$$u20$as$u20$pyo3..types..any..PyAnyMethods$GT$23downcast_into_unchecked17h10dca15f132bb3e0E', symObjAddr: 0x49C, symBinAddr: 0x1C988, symSize: 0x14 }
  - { offset: 0x127DE6, size: 0x8, addend: 0x0, symName: '__ZN103_$LT$pyo3..instance..Bound$LT$pyo3..types..any..PyAny$GT$$u20$as$u20$pyo3..types..any..PyAnyMethods$GT$23downcast_into_unchecked17h1e5f0435e939f593E', symObjAddr: 0x4B0, symBinAddr: 0x1C99C, symSize: 0x14 }
  - { offset: 0x127E1D, size: 0x8, addend: 0x0, symName: '__ZN103_$LT$pyo3..instance..Bound$LT$pyo3..types..any..PyAny$GT$$u20$as$u20$pyo3..types..any..PyAnyMethods$GT$23downcast_into_unchecked17h4a3151c5995af2f6E', symObjAddr: 0x4C4, symBinAddr: 0x1C9B0, symSize: 0x14 }
  - { offset: 0x127E54, size: 0x8, addend: 0x0, symName: '__ZN103_$LT$pyo3..instance..Bound$LT$pyo3..types..any..PyAny$GT$$u20$as$u20$pyo3..types..any..PyAnyMethods$GT$4call17h8660ad8edc8f922bE', symObjAddr: 0x4D8, symBinAddr: 0x1C9C4, symSize: 0x148 }
  - { offset: 0x127EF4, size: 0x8, addend: 0x0, symName: '__ZN103_$LT$pyo3..instance..Bound$LT$pyo3..types..any..PyAny$GT$$u20$as$u20$pyo3..types..any..PyAnyMethods$GT$4call17h99ac2cfc9158efc9E', symObjAddr: 0x620, symBinAddr: 0x1CB0C, symSize: 0x148 }
  - { offset: 0x127F94, size: 0x8, addend: 0x0, symName: '__ZN103_$LT$pyo3..instance..Bound$LT$pyo3..types..any..PyAny$GT$$u20$as$u20$pyo3..types..any..PyAnyMethods$GT$4call17hb669a18c2b2ed9bfE', symObjAddr: 0x768, symBinAddr: 0x1CC54, symSize: 0x15C }
  - { offset: 0x128035, size: 0x8, addend: 0x0, symName: '__ZN103_$LT$pyo3..instance..Bound$LT$pyo3..types..any..PyAny$GT$$u20$as$u20$pyo3..types..any..PyAnyMethods$GT$4call17hea602ddddaa25e7bE', symObjAddr: 0x8C4, symBinAddr: 0x1CDB0, symSize: 0x144 }
  - { offset: 0x1280D6, size: 0x8, addend: 0x0, symName: '__ZN103_$LT$pyo3..instance..Bound$LT$pyo3..types..any..PyAny$GT$$u20$as$u20$pyo3..types..any..PyAnyMethods$GT$5call117h4477a1b8330501c1E', symObjAddr: 0xA08, symBinAddr: 0x1CEF4, symSize: 0x34 }
  - { offset: 0x12811C, size: 0x8, addend: 0x0, symName: '__ZN103_$LT$pyo3..instance..Bound$LT$pyo3..types..any..PyAny$GT$$u20$as$u20$pyo3..types..any..PyAnyMethods$GT$7extract17h2cb56dfd51c7cdc1E', symObjAddr: 0xA3C, symBinAddr: 0x1CF28, symSize: 0x30 }
  - { offset: 0x128153, size: 0x8, addend: 0x0, symName: '__ZN103_$LT$pyo3..instance..Bound$LT$pyo3..types..any..PyAny$GT$$u20$as$u20$pyo3..types..any..PyAnyMethods$GT$7extract17h7631bad1dc4e7341E', symObjAddr: 0xA6C, symBinAddr: 0x1CF58, symSize: 0x30 }
  - { offset: 0x12818A, size: 0x8, addend: 0x0, symName: '__ZN103_$LT$pyo3..instance..Bound$LT$pyo3..types..any..PyAny$GT$$u20$as$u20$pyo3..types..any..PyAnyMethods$GT$7extract17had52eb27fe163db3E', symObjAddr: 0xA9C, symBinAddr: 0x1CF88, symSize: 0x30 }
  - { offset: 0x1281C1, size: 0x8, addend: 0x0, symName: '__ZN103_$LT$pyo3..instance..Bound$LT$pyo3..types..any..PyAny$GT$$u20$as$u20$pyo3..types..any..PyAnyMethods$GT$7extract17hb08c086b2bbcf328E', symObjAddr: 0xACC, symBinAddr: 0x1CFB8, symSize: 0x30 }
  - { offset: 0x1281F8, size: 0x8, addend: 0x0, symName: '__ZN103_$LT$pyo3..instance..Bound$LT$pyo3..types..any..PyAny$GT$$u20$as$u20$pyo3..types..any..PyAnyMethods$GT$7extract17hb36d31a16f36532aE', symObjAddr: 0xAFC, symBinAddr: 0x1CFE8, symSize: 0x30 }
  - { offset: 0x12822F, size: 0x8, addend: 0x0, symName: '__ZN103_$LT$pyo3..instance..Bound$LT$pyo3..types..any..PyAny$GT$$u20$as$u20$pyo3..types..any..PyAnyMethods$GT$7extract17hbbdd3e6d33b7ff94E', symObjAddr: 0xB2C, symBinAddr: 0x1D018, symSize: 0x30 }
  - { offset: 0x128266, size: 0x8, addend: 0x0, symName: '__ZN103_$LT$pyo3..instance..Bound$LT$pyo3..types..any..PyAny$GT$$u20$as$u20$pyo3..types..any..PyAnyMethods$GT$7extract17hbd9a4f60676045b0E', symObjAddr: 0xB5C, symBinAddr: 0x1D048, symSize: 0x30 }
  - { offset: 0x12829D, size: 0x8, addend: 0x0, symName: '__ZN103_$LT$pyo3..instance..Bound$LT$pyo3..types..any..PyAny$GT$$u20$as$u20$pyo3..types..any..PyAnyMethods$GT$7extract17hc563f8cf409758e0E', symObjAddr: 0xB8C, symBinAddr: 0x1D078, symSize: 0x30 }
  - { offset: 0x1282D4, size: 0x8, addend: 0x0, symName: '__ZN103_$LT$pyo3..instance..Bound$LT$pyo3..types..any..PyAny$GT$$u20$as$u20$pyo3..types..any..PyAnyMethods$GT$7extract17hdb713965fe0c8191E', symObjAddr: 0xBBC, symBinAddr: 0x1D0A8, symSize: 0x30 }
  - { offset: 0x12830B, size: 0x8, addend: 0x0, symName: '__ZN103_$LT$pyo3..instance..Bound$LT$pyo3..types..any..PyAny$GT$$u20$as$u20$pyo3..types..any..PyAnyMethods$GT$7extract17hfc33f707c90a733bE', symObjAddr: 0xBEC, symBinAddr: 0x1D0D8, symSize: 0x30 }
  - { offset: 0x128342, size: 0x8, addend: 0x0, symName: '__ZN103_$LT$pyo3..instance..Bound$LT$pyo3..types..any..PyAny$GT$$u20$as$u20$pyo3..types..any..PyAnyMethods$GT$8downcast17h1aac333493512deeE', symObjAddr: 0xC1C, symBinAddr: 0x1D108, symSize: 0x84 }
  - { offset: 0x128379, size: 0x8, addend: 0x0, symName: '__ZN103_$LT$pyo3..instance..Bound$LT$pyo3..types..any..PyAny$GT$$u20$as$u20$pyo3..types..any..PyAnyMethods$GT$8downcast17h27ada3a55b83f161E', symObjAddr: 0xCA0, symBinAddr: 0x1D18C, symSize: 0x84 }
  - { offset: 0x1283B0, size: 0x8, addend: 0x0, symName: '__ZN103_$LT$pyo3..instance..Bound$LT$pyo3..types..any..PyAny$GT$$u20$as$u20$pyo3..types..any..PyAnyMethods$GT$8downcast17h46d2478e5759b2f6E', symObjAddr: 0xD24, symBinAddr: 0x1D210, symSize: 0x84 }
  - { offset: 0x1283E7, size: 0x8, addend: 0x0, symName: '__ZN103_$LT$pyo3..instance..Bound$LT$pyo3..types..any..PyAny$GT$$u20$as$u20$pyo3..types..any..PyAnyMethods$GT$8downcast17h627c9d78ca422a54E', symObjAddr: 0xDA8, symBinAddr: 0x1D294, symSize: 0x84 }
  - { offset: 0x12843F, size: 0x8, addend: 0x0, symName: '__ZN107_$LT$pyo3..instance..Bound$LT$pyo3..types..dict..PyDict$GT$$u20$as$u20$pyo3..types..dict..PyDictMethods$GT$8set_item17h587228534a0fd0e6E', symObjAddr: 0xED0, symBinAddr: 0x1D3BC, symSize: 0x268 }
  - { offset: 0x1284EC, size: 0x8, addend: 0x0, symName: '__ZN107_$LT$pyo3..instance..Bound$LT$pyo3..types..dict..PyDict$GT$$u20$as$u20$pyo3..types..dict..PyDictMethods$GT$8set_item17h6d5ae61860769925E', symObjAddr: 0x1138, symBinAddr: 0x1D624, symSize: 0x258 }
  - { offset: 0x128599, size: 0x8, addend: 0x0, symName: '__ZN107_$LT$pyo3..instance..Bound$LT$pyo3..types..dict..PyDict$GT$$u20$as$u20$pyo3..types..dict..PyDictMethods$GT$8set_item17h83daa521af4286baE', symObjAddr: 0x1390, symBinAddr: 0x1D87C, symSize: 0x24C }
  - { offset: 0x128645, size: 0x8, addend: 0x0, symName: '__ZN107_$LT$pyo3..instance..Bound$LT$pyo3..types..dict..PyDict$GT$$u20$as$u20$pyo3..types..dict..PyDictMethods$GT$8set_item17ha1d18944e0df622eE', symObjAddr: 0x15DC, symBinAddr: 0x1DAC8, symSize: 0x268 }
  - { offset: 0x1286F2, size: 0x8, addend: 0x0, symName: '__ZN107_$LT$pyo3..instance..Bound$LT$pyo3..types..dict..PyDict$GT$$u20$as$u20$pyo3..types..dict..PyDictMethods$GT$8set_item17hd6b7d4f34cda6708E', symObjAddr: 0x1844, symBinAddr: 0x1DD30, symSize: 0x24C }
  - { offset: 0x12879E, size: 0x8, addend: 0x0, symName: '__ZN107_$LT$pyo3..instance..Bound$LT$pyo3..types..dict..PyDict$GT$$u20$as$u20$pyo3..types..dict..PyDictMethods$GT$8set_item17hf0553483b09e62f6E', symObjAddr: 0x1A90, symBinAddr: 0x1DF7C, symSize: 0x27C }
  - { offset: 0x12886C, size: 0x8, addend: 0x0, symName: '__ZN107_$LT$pyo3..instance..Bound$LT$pyo3..types..list..PyList$GT$$u20$as$u20$pyo3..types..list..PyListMethods$GT$6append17hf4813a8783333ff0E', symObjAddr: 0x1D0C, symBinAddr: 0x1E1F8, symSize: 0x14C }
  - { offset: 0x128900, size: 0x8, addend: 0x0, symName: '__ZN115_$LT$pyo3..instance..Bound$LT$pyo3..types..module..PyModule$GT$$u20$as$u20$pyo3..types..module..PyModuleMethods$GT$3add17hea0abdf0b18d0e3aE', symObjAddr: 0x1E8C, symBinAddr: 0x1E378, symSize: 0x22C }
  - { offset: 0x1289CA, size: 0x8, addend: 0x0, symName: '__ZN115_$LT$pyo3..instance..Bound$LT$pyo3..types..module..PyModule$GT$$u20$as$u20$pyo3..types..module..PyModuleMethods$GT$9add_class17h027e8d9f0997fa9fE', symObjAddr: 0x20B8, symBinAddr: 0x1E5A4, symSize: 0xB8 }
  - { offset: 0x128A3E, size: 0x8, addend: 0x0, symName: '__ZN115_$LT$pyo3..instance..Bound$LT$pyo3..types..module..PyModule$GT$$u20$as$u20$pyo3..types..module..PyModuleMethods$GT$9add_class17h451ade58d477a38aE', symObjAddr: 0x2170, symBinAddr: 0x1E65C, symSize: 0xB8 }
  - { offset: 0x128AB2, size: 0x8, addend: 0x0, symName: '__ZN115_$LT$pyo3..instance..Bound$LT$pyo3..types..module..PyModule$GT$$u20$as$u20$pyo3..types..module..PyModuleMethods$GT$9add_class17h7ee3d1c75ee7e7a3E', symObjAddr: 0x2228, symBinAddr: 0x1E714, symSize: 0xB8 }
  - { offset: 0x128B47, size: 0x8, addend: 0x0, symName: '__ZN4pyo35types5tuple74_$LT$impl$u20$pyo3..conversion..IntoPyObject$u20$for$u20$$LP$T0$C$$RP$$GT$13into_pyobject17h013cb6457cd83efdE', symObjAddr: 0x2674, symBinAddr: 0x1EB60, symSize: 0xB0 }
  - { offset: 0x128BB8, size: 0x8, addend: 0x0, symName: '__ZN4pyo35types5tuple74_$LT$impl$u20$pyo3..conversion..IntoPyObject$u20$for$u20$$LP$T0$C$$RP$$GT$13into_pyobject17h1c61aec97fb4ddc8E', symObjAddr: 0x2724, symBinAddr: 0x1EC10, symSize: 0xB0 }
  - { offset: 0x128C29, size: 0x8, addend: 0x0, symName: '__ZN4pyo35types5tuple74_$LT$impl$u20$pyo3..conversion..IntoPyObject$u20$for$u20$$LP$T0$C$$RP$$GT$13into_pyobject17h837420bc1c22fb0cE', symObjAddr: 0x27D4, symBinAddr: 0x1ECC0, symSize: 0xB0 }
  - { offset: 0x128D7E, size: 0x8, addend: 0x0, symName: '__ZN104_$LT$$RF$pyo3..instance..Bound$LT$T$GT$$u20$as$u20$pyo3..impl_..extract_argument..PyFunctionArgument$GT$7extract17h0f147f7ea2d026f5E', symObjAddr: 0xE2C, symBinAddr: 0x1D318, symSize: 0x40 }
  - { offset: 0x128DBD, size: 0x8, addend: 0x0, symName: '__ZN104_$LT$$RF$pyo3..instance..Bound$LT$T$GT$$u20$as$u20$pyo3..impl_..extract_argument..PyFunctionArgument$GT$7extract17h5db5729b8c9e3cc7E', symObjAddr: 0xE6C, symBinAddr: 0x1D358, symSize: 0x40 }
  - { offset: 0x128E02, size: 0x8, addend: 0x0, symName: '__ZN71_$LT$T$u20$as$u20$pyo3..impl_..extract_argument..PyFunctionArgument$GT$7extract17h2cb2165733f84aaaE', symObjAddr: 0x37A8, symBinAddr: 0x1FC94, symSize: 0x28 }
  - { offset: 0x128E4D, size: 0x8, addend: 0x0, symName: '__ZN111_$LT$T$u20$as$u20$pyo3..impl_..callback..IntoPyCallbackOutput$LT$$BP$mut$u20$pyo3_ffi..object..PyObject$GT$$GT$7convert17he08b3a2df4296da8E', symObjAddr: 0x1E58, symBinAddr: 0x1E344, symSize: 0x34 }
  - { offset: 0x128EA7, size: 0x8, addend: 0x0, symName: '__ZN4pyo35impl_9pymethods133_$LT$impl$u20$core..convert..From$LT$pyo3..impl_..pymethods..BoundRef$LT$T$GT$$GT$$u20$for$u20$$RF$pyo3..instance..Bound$LT$T$GT$$GT$4from17h97d955174ada91e9E', symObjAddr: 0x2660, symBinAddr: 0x1EB4C, symSize: 0x14 }
  - { offset: 0x128F8C, size: 0x8, addend: 0x0, symName: '__ZN105_$LT$pyo3..instance..Py$LT$T$GT$$u20$as$u20$core..convert..From$LT$pyo3..instance..Bound$LT$T$GT$$GT$$GT$4from17he5df624a7d9c35abE', symObjAddr: 0xEAC, symBinAddr: 0x1D398, symSize: 0x24 }
  - { offset: 0x128FC9, size: 0x8, addend: 0x0, symName: '__ZN127_$LT$pyo3..instance..Py$LT$pyo3..types..any..PyAny$GT$$u20$as$u20$core..convert..From$LT$pyo3..instance..Bound$LT$T$GT$$GT$$GT$4from17h996c3eac234c6cccE', symObjAddr: 0x22E0, symBinAddr: 0x1E7CC, symSize: 0x28 }
  - { offset: 0x129AB0, size: 0x8, addend: 0x0, symName: '__ZN4pyo38instance39Borrowed$LT$pyo3..types..any..PyAny$GT$15from_ptr_or_opt28_$u7b$$u7b$closure$u7d$$u7d$17h22615be06f21fbe7E', symObjAddr: 0x3548, symBinAddr: 0x1FA34, symSize: 0x20 }
  - { offset: 0x129BB7, size: 0x8, addend: 0x0, symName: '__ZN69_$LT$pyo3..instance..Bound$LT$T$GT$$u20$as$u20$core..clone..Clone$GT$5clone17h00de730f7ee4b08eE', symObjAddr: 0x36D8, symBinAddr: 0x1FBC4, symSize: 0x34 }
  - { offset: 0x129BEE, size: 0x8, addend: 0x0, symName: '__ZN69_$LT$pyo3..instance..Bound$LT$T$GT$$u20$as$u20$core..clone..Clone$GT$5clone17h69865f4b22a7b13eE', symObjAddr: 0x370C, symBinAddr: 0x1FBF8, symSize: 0x34 }
  - { offset: 0x129C25, size: 0x8, addend: 0x0, symName: '__ZN69_$LT$pyo3..instance..Bound$LT$T$GT$$u20$as$u20$core..clone..Clone$GT$5clone17haed4cfc7040ee31fE', symObjAddr: 0x3740, symBinAddr: 0x1FC2C, symSize: 0x34 }
  - { offset: 0x129C5C, size: 0x8, addend: 0x0, symName: '__ZN69_$LT$pyo3..instance..Bound$LT$T$GT$$u20$as$u20$core..clone..Clone$GT$5clone17hc9f3f647d0cd3ec4E', symObjAddr: 0x3774, symBinAddr: 0x1FC60, symSize: 0x34 }
  - { offset: 0x129C99, size: 0x8, addend: 0x0, symName: '__ZN77_$LT$pyo3..instance..Borrowed$LT$T$GT$$u20$as$u20$core..ops..deref..Deref$GT$5deref17hdc881920ccf965e0E', symObjAddr: 0x37D0, symBinAddr: 0x1FCBC, symSize: 0x74 }
  - { offset: 0x129CD6, size: 0x8, addend: 0x0, symName: '__ZN78_$LT$pyo3..instance..Py$LT$T$GT$$u20$as$u20$pyo3..conversion..FromPyObject$GT$13extract_bound17hfc156eb7e511eabfE', symObjAddr: 0x3844, symBinAddr: 0x1FD30, symSize: 0x3C }
  - { offset: 0x129D13, size: 0x8, addend: 0x0, symName: '__ZN81_$LT$pyo3..instance..Bound$LT$T$GT$$u20$as$u20$pyo3..conversion..FromPyObject$GT$13extract_bound17h444078fedc965927E', symObjAddr: 0x3880, symBinAddr: 0x1FD6C, symSize: 0x4C }
  - { offset: 0x129D4A, size: 0x8, addend: 0x0, symName: '__ZN81_$LT$pyo3..instance..Bound$LT$T$GT$$u20$as$u20$pyo3..conversion..FromPyObject$GT$13extract_bound17he0b603c9093bb21cE', symObjAddr: 0x38CC, symBinAddr: 0x1FDB8, symSize: 0x4C }
  - { offset: 0x129D87, size: 0x8, addend: 0x0, symName: '__ZN87_$LT$pyo3..instance..Bound$LT$T$GT$$u20$as$u20$pyo3..instance..BoundObject$LT$T$GT$$GT$10into_bound17h04db8d4a89e893f5E', symObjAddr: 0x397C, symBinAddr: 0x1FE68, symSize: 0x14 }
  - { offset: 0x129DBE, size: 0x8, addend: 0x0, symName: '__ZN87_$LT$pyo3..instance..Bound$LT$T$GT$$u20$as$u20$pyo3..instance..BoundObject$LT$T$GT$$GT$8into_any17hc551c868bbd396f3E', symObjAddr: 0x3990, symBinAddr: 0x1FE7C, symSize: 0x24 }
  - { offset: 0x129DF5, size: 0x8, addend: 0x0, symName: '__ZN87_$LT$pyo3..instance..Bound$LT$T$GT$$u20$as$u20$pyo3..instance..BoundObject$LT$T$GT$$GT$8into_any17hf176d06808b2afa6E', symObjAddr: 0x39B4, symBinAddr: 0x1FEA0, symSize: 0x24 }
  - { offset: 0x129E2C, size: 0x8, addend: 0x0, symName: '__ZN87_$LT$pyo3..instance..Bound$LT$T$GT$$u20$as$u20$pyo3..instance..BoundObject$LT$T$GT$$GT$8into_ptr17h3226e124185df823E', symObjAddr: 0x39D8, symBinAddr: 0x1FEC4, symSize: 0x24 }
  - { offset: 0x129E63, size: 0x8, addend: 0x0, symName: '__ZN87_$LT$pyo3..instance..Bound$LT$T$GT$$u20$as$u20$pyo3..instance..BoundObject$LT$T$GT$$GT$8into_ptr17h42b46b1cbd8ff45eE', symObjAddr: 0x39FC, symBinAddr: 0x1FEE8, symSize: 0x24 }
  - { offset: 0x129E9A, size: 0x8, addend: 0x0, symName: '__ZN87_$LT$pyo3..instance..Bound$LT$T$GT$$u20$as$u20$pyo3..instance..BoundObject$LT$T$GT$$GT$8into_ptr17hf9183ea290283c24E', symObjAddr: 0x3A20, symBinAddr: 0x1FF0C, symSize: 0x24 }
  - { offset: 0x129ED7, size: 0x8, addend: 0x0, symName: '__ZN90_$LT$pyo3..instance..Borrowed$LT$T$GT$$u20$as$u20$pyo3..instance..BoundObject$LT$T$GT$$GT$6unbind17h9d2a5e1e4e777860E', symObjAddr: 0x3A44, symBinAddr: 0x1FF30, symSize: 0x30 }
  - { offset: 0x129F0E, size: 0x8, addend: 0x0, symName: '__ZN90_$LT$pyo3..instance..Borrowed$LT$T$GT$$u20$as$u20$pyo3..instance..BoundObject$LT$T$GT$$GT$8into_any17hd37a0346740c16c5E', symObjAddr: 0x3A74, symBinAddr: 0x1FF60, symSize: 0x24 }
  - { offset: 0x129F45, size: 0x8, addend: 0x0, symName: '__ZN90_$LT$pyo3..instance..Borrowed$LT$T$GT$$u20$as$u20$pyo3..instance..BoundObject$LT$T$GT$$GT$8into_any17he0c98caae1e67ae6E', symObjAddr: 0x3A98, symBinAddr: 0x1FF84, symSize: 0x24 }
  - { offset: 0x12A0BA, size: 0x8, addend: 0x0, symName: __ZN4pyo310conversion15IntoPyObjectExt17into_bound_py_any17h5650c9d1c0f50df3E, symObjAddr: 0x2330, symBinAddr: 0x1E81C, symSize: 0x50 }
  - { offset: 0x12A12A, size: 0x8, addend: 0x0, symName: __ZN4pyo310conversion15IntoPyObjectExt17into_bound_py_any17h6a6f5280245cc63dE, symObjAddr: 0x2380, symBinAddr: 0x1E86C, symSize: 0x50 }
  - { offset: 0x12A19A, size: 0x8, addend: 0x0, symName: __ZN4pyo310conversion15IntoPyObjectExt17into_bound_py_any17hf6019443abdba98aE, symObjAddr: 0x23D0, symBinAddr: 0x1E8BC, symSize: 0x50 }
  - { offset: 0x12A20A, size: 0x8, addend: 0x0, symName: __ZN4pyo310conversion15IntoPyObjectExt22into_pyobject_or_pyerr17h03b98957555f156fE, symObjAddr: 0x2420, symBinAddr: 0x1E90C, symSize: 0xB4 }
  - { offset: 0x12A299, size: 0x8, addend: 0x0, symName: __ZN4pyo310conversion15IntoPyObjectExt22into_pyobject_or_pyerr17h559ea0ccc9cb7651E, symObjAddr: 0x24D4, symBinAddr: 0x1E9C0, symSize: 0x48 }
  - { offset: 0x12A309, size: 0x8, addend: 0x0, symName: __ZN4pyo310conversion15IntoPyObjectExt22into_pyobject_or_pyerr17h6aeee52abe4b333bE, symObjAddr: 0x251C, symBinAddr: 0x1EA08, symSize: 0x48 }
  - { offset: 0x12A379, size: 0x8, addend: 0x0, symName: __ZN4pyo310conversion15IntoPyObjectExt22into_pyobject_or_pyerr17he6d88ce010aaf203E, symObjAddr: 0x2564, symBinAddr: 0x1EA50, symSize: 0xB4 }
  - { offset: 0x12A408, size: 0x8, addend: 0x0, symName: __ZN4pyo310conversion15IntoPyObjectExt22into_pyobject_or_pyerr17he706c0948b33da76E, symObjAddr: 0x2618, symBinAddr: 0x1EB04, symSize: 0x48 }
  - { offset: 0x12A47E, size: 0x8, addend: 0x0, symName: '__ZN57_$LT$T$u20$as$u20$pyo3..conversion..FromPyObjectBound$GT$20from_py_object_bound17ha06c39ac0cf7e4a5E', symObjAddr: 0x3628, symBinAddr: 0x1FB14, symSize: 0x34 }
  - { offset: 0x12A4B5, size: 0x8, addend: 0x0, symName: '__ZN57_$LT$T$u20$as$u20$pyo3..conversion..FromPyObjectBound$GT$20from_py_object_bound17ha4e4e0c7193a382aE', symObjAddr: 0x365C, symBinAddr: 0x1FB48, symSize: 0x34 }
  - { offset: 0x12A4EC, size: 0x8, addend: 0x0, symName: '__ZN57_$LT$T$u20$as$u20$pyo3..conversion..FromPyObjectBound$GT$20from_py_object_bound17hd6b5bd5bbdb681d6E', symObjAddr: 0x3690, symBinAddr: 0x1FB7C, symSize: 0x34 }
  - { offset: 0x12A529, size: 0x8, addend: 0x0, symName: '__ZN81_$LT$pyo3..instance..Bound$LT$T$GT$$u20$as$u20$pyo3..conversion..IntoPyObject$GT$13into_pyobject17h90613c770eca2195E', symObjAddr: 0x3918, symBinAddr: 0x1FE04, symSize: 0x1C }
  - { offset: 0x12A57B, size: 0x8, addend: 0x0, symName: '__ZN81_$LT$pyo3..instance..Bound$LT$T$GT$$u20$as$u20$pyo3..conversion..IntoPyObject$GT$13into_pyobject17heb73dbd1db29230bE', symObjAddr: 0x3934, symBinAddr: 0x1FE20, symSize: 0x1C }
  - { offset: 0x12A5D3, size: 0x8, addend: 0x0, symName: '__ZN85_$LT$$RF$pyo3..instance..Bound$LT$T$GT$$u20$as$u20$pyo3..conversion..IntoPyObject$GT$13into_pyobject17h9592bde70e88972aE', symObjAddr: 0x3950, symBinAddr: 0x1FE3C, symSize: 0x2C }
  - { offset: 0x12C046, size: 0x8, addend: 0x0, symName: '__ZN4pyo38instance11Py$LT$T$GT$10into_bound17h1b5b5f459321c695E', symObjAddr: 0x2884, symBinAddr: 0x1ED70, symSize: 0x1C }
  - { offset: 0x12D786, size: 0x8, addend: 0x0, symName: '__ZN4pyo38instance11Py$LT$T$GT$10into_bound17h201bd290d9e548a5E', symObjAddr: 0x28A0, symBinAddr: 0x1ED8C, symSize: 0x1C }
  - { offset: 0x12D7CD, size: 0x8, addend: 0x0, symName: '__ZN4pyo38instance11Py$LT$T$GT$10into_bound17hd31592e24314976cE', symObjAddr: 0x28BC, symBinAddr: 0x1EDA8, symSize: 0x1C }
  - { offset: 0x12D814, size: 0x8, addend: 0x0, symName: '__ZN4pyo38instance11Py$LT$T$GT$13from_non_null17h950f4f975fff6383E', symObjAddr: 0x28D8, symBinAddr: 0x1EDC4, symSize: 0x14 }
  - { offset: 0x12D840, size: 0x8, addend: 0x0, symName: '__ZN4pyo38instance11Py$LT$T$GT$13from_non_null17hbab6dfe320c3db7dE', symObjAddr: 0x28EC, symBinAddr: 0x1EDD8, symSize: 0x14 }
  - { offset: 0x12D86C, size: 0x8, addend: 0x0, symName: '__ZN4pyo38instance11Py$LT$T$GT$13from_non_null17hd2c4ed2bd66ea1fcE', symObjAddr: 0x2900, symBinAddr: 0x1EDEC, symSize: 0x14 }
  - { offset: 0x12D898, size: 0x8, addend: 0x0, symName: '__ZN4pyo38instance11Py$LT$T$GT$13from_non_null17hda09d6ae96b50c1cE', symObjAddr: 0x2914, symBinAddr: 0x1EE00, symSize: 0x14 }
  - { offset: 0x12D8DE, size: 0x8, addend: 0x0, symName: '__ZN4pyo38instance11Py$LT$T$GT$16get_class_object17h9790c1c3ea651ac9E', symObjAddr: 0x2928, symBinAddr: 0x1EE14, symSize: 0x78 }
  - { offset: 0x12D93A, size: 0x8, addend: 0x0, symName: '__ZN4pyo38instance11Py$LT$T$GT$16get_class_object17hd14dd377ac2be45aE', symObjAddr: 0x29A0, symBinAddr: 0x1EE8C, symSize: 0x78 }
  - { offset: 0x12D996, size: 0x8, addend: 0x0, symName: '__ZN4pyo38instance11Py$LT$T$GT$16get_class_object17hf51362ce6420d1bbE', symObjAddr: 0x2A18, symBinAddr: 0x1EF04, symSize: 0x78 }
  - { offset: 0x12DA26, size: 0x8, addend: 0x0, symName: '__ZN4pyo38instance11Py$LT$T$GT$5call117h496495fc49da60cfE', symObjAddr: 0x2A90, symBinAddr: 0x1EF7C, symSize: 0x140 }
  - { offset: 0x12DA9C, size: 0x8, addend: 0x0, symName: '__ZN4pyo38instance11Py$LT$T$GT$6as_ptr17h10938334c0fffc6dE', symObjAddr: 0x2BD0, symBinAddr: 0x1F0BC, symSize: 0x1C }
  - { offset: 0x12DAC8, size: 0x8, addend: 0x0, symName: '__ZN4pyo38instance11Py$LT$T$GT$6as_ptr17h30eda95b60f45f62E', symObjAddr: 0x2BEC, symBinAddr: 0x1F0D8, symSize: 0x1C }
  - { offset: 0x12DAF4, size: 0x8, addend: 0x0, symName: '__ZN4pyo38instance11Py$LT$T$GT$6as_ptr17h7b0e43f99bef7ea5E', symObjAddr: 0x2C08, symBinAddr: 0x1F0F4, symSize: 0x1C }
  - { offset: 0x12DB2D, size: 0x8, addend: 0x0, symName: '__ZN4pyo38instance11Py$LT$T$GT$6as_ptr17he0171ed4ff14d845E', symObjAddr: 0x2C24, symBinAddr: 0x1F110, symSize: 0x1C }
  - { offset: 0x12DB59, size: 0x8, addend: 0x0, symName: '__ZN4pyo38instance11Py$LT$T$GT$8into_any17h3bea2dc4338b32dbE', symObjAddr: 0x2C40, symBinAddr: 0x1F12C, symSize: 0x3C }
  - { offset: 0x12DB85, size: 0x8, addend: 0x0, symName: '__ZN4pyo38instance11Py$LT$T$GT$8into_any17h4532399beaff84feE', symObjAddr: 0x2C7C, symBinAddr: 0x1F168, symSize: 0x3C }
  - { offset: 0x12DBB1, size: 0x8, addend: 0x0, symName: '__ZN4pyo38instance11Py$LT$T$GT$8into_ptr17h0eb977b1fbb02578E', symObjAddr: 0x2CB8, symBinAddr: 0x1F1A4, symSize: 0x30 }
  - { offset: 0x12DBDD, size: 0x8, addend: 0x0, symName: '__ZN4pyo38instance11Py$LT$T$GT$9clone_ref17h759df0d2d1bf0eaeE', symObjAddr: 0x2CE8, symBinAddr: 0x1F1D4, symSize: 0xF8 }
  - { offset: 0x12DC42, size: 0x8, addend: 0x0, symName: '__ZN4pyo38instance11Py$LT$T$GT$9clone_ref17h8bad88f1782e51a4E', symObjAddr: 0x2DE0, symBinAddr: 0x1F2CC, symSize: 0xF8 }
  - { offset: 0x12DCA7, size: 0x8, addend: 0x0, symName: '__ZN4pyo38instance11Py$LT$T$GT$9clone_ref17h9b737e2eda21fe58E', symObjAddr: 0x2ED8, symBinAddr: 0x1F3C4, symSize: 0xF8 }
  - { offset: 0x12DD0C, size: 0x8, addend: 0x0, symName: '__ZN4pyo38instance11Py$LT$T$GT$9clone_ref17hfbdf63320589654eE', symObjAddr: 0x2FD0, symBinAddr: 0x1F4BC, symSize: 0xF8 }
  - { offset: 0x12DD7E, size: 0x8, addend: 0x0, symName: '__ZN4pyo38instance14Bound$LT$T$GT$10try_borrow17h364271f1aff644f0E', symObjAddr: 0x30C8, symBinAddr: 0x1F5B4, symSize: 0x24 }
  - { offset: 0x12DDB7, size: 0x8, addend: 0x0, symName: '__ZN4pyo38instance14Bound$LT$T$GT$10try_borrow17h4344b04a02c705c8E', symObjAddr: 0x30EC, symBinAddr: 0x1F5D8, symSize: 0x24 }
  - { offset: 0x12DDFD, size: 0x8, addend: 0x0, symName: '__ZN4pyo38instance14Bound$LT$T$GT$11as_borrowed17h64ba84c1fe48254cE', symObjAddr: 0x3110, symBinAddr: 0x1F5FC, symSize: 0x48 }
  - { offset: 0x12DE29, size: 0x8, addend: 0x0, symName: '__ZN4pyo38instance14Bound$LT$T$GT$16get_class_object17h05a23c1643f0cc19E', symObjAddr: 0x3158, symBinAddr: 0x1F644, symSize: 0x2C }
  - { offset: 0x12DE62, size: 0x8, addend: 0x0, symName: '__ZN4pyo38instance14Bound$LT$T$GT$16get_class_object17h71bfbe5d7ffaee34E', symObjAddr: 0x3184, symBinAddr: 0x1F670, symSize: 0x2C }
  - { offset: 0x12DE8E, size: 0x8, addend: 0x0, symName: '__ZN4pyo38instance14Bound$LT$T$GT$16get_class_object17hbd59dcb1721c5d64E', symObjAddr: 0x31B0, symBinAddr: 0x1F69C, symSize: 0x2C }
  - { offset: 0x12DEBA, size: 0x8, addend: 0x0, symName: '__ZN4pyo38instance14Bound$LT$T$GT$3new17h8ae8622bba354ad8E', symObjAddr: 0x31DC, symBinAddr: 0x1F6C8, symSize: 0x40 }
  - { offset: 0x12DF07, size: 0x8, addend: 0x0, symName: '__ZN4pyo38instance14Bound$LT$T$GT$6as_ptr17h0d21111fd9629990E', symObjAddr: 0x321C, symBinAddr: 0x1F708, symSize: 0x2C }
  - { offset: 0x12DF33, size: 0x8, addend: 0x0, symName: '__ZN4pyo38instance14Bound$LT$T$GT$6as_ptr17hca2a02fc1b1f53f4E', symObjAddr: 0x3248, symBinAddr: 0x1F734, symSize: 0x2C }
  - { offset: 0x12DF5F, size: 0x8, addend: 0x0, symName: '__ZN4pyo38instance14Bound$LT$T$GT$6as_ptr17hca624c85b5909cd5E', symObjAddr: 0x3274, symBinAddr: 0x1F760, symSize: 0x2C }
  - { offset: 0x12DFB6, size: 0x8, addend: 0x0, symName: '__ZN4pyo38instance14Bound$LT$T$GT$6borrow17h45bb2fb0638fce9eE', symObjAddr: 0x32A0, symBinAddr: 0x1F78C, symSize: 0x24 }
  - { offset: 0x12DFE2, size: 0x8, addend: 0x0, symName: '__ZN4pyo38instance14Bound$LT$T$GT$6borrow17hc5a3cc35132e9804E', symObjAddr: 0x32C4, symBinAddr: 0x1F7B0, symSize: 0x24 }
  - { offset: 0x12E00E, size: 0x8, addend: 0x0, symName: '__ZN4pyo38instance14Bound$LT$T$GT$6unbind17h0f9169a30a58a31eE', symObjAddr: 0x32E8, symBinAddr: 0x1F7D4, symSize: 0x48 }
  - { offset: 0x12E058, size: 0x8, addend: 0x0, symName: '__ZN4pyo38instance14Bound$LT$T$GT$6unbind17h40418bea1694775eE', symObjAddr: 0x3330, symBinAddr: 0x1F81C, symSize: 0x48 }
  - { offset: 0x12E0A2, size: 0x8, addend: 0x0, symName: '__ZN4pyo38instance14Bound$LT$T$GT$8into_any17h7329e956cc272f99E', symObjAddr: 0x3378, symBinAddr: 0x1F864, symSize: 0x30 }
  - { offset: 0x12E0CE, size: 0x8, addend: 0x0, symName: '__ZN4pyo38instance14Bound$LT$T$GT$8into_any17hb052b835eca4acadE', symObjAddr: 0x33A8, symBinAddr: 0x1F894, symSize: 0x30 }
  - { offset: 0x12E0FA, size: 0x8, addend: 0x0, symName: '__ZN4pyo38instance14Bound$LT$T$GT$8into_ptr17h6372849faaea40d0E', symObjAddr: 0x33D8, symBinAddr: 0x1F8C4, symSize: 0x40 }
  - { offset: 0x12E126, size: 0x8, addend: 0x0, symName: '__ZN4pyo38instance14Bound$LT$T$GT$8into_ptr17h66bf45f726b1cd87E', symObjAddr: 0x3418, symBinAddr: 0x1F904, symSize: 0x40 }
  - { offset: 0x12E152, size: 0x8, addend: 0x0, symName: '__ZN4pyo38instance14Bound$LT$T$GT$8into_ptr17h856bbdf1a4a304d5E', symObjAddr: 0x3458, symBinAddr: 0x1F944, symSize: 0x40 }
  - { offset: 0x12E17E, size: 0x8, addend: 0x0, symName: '__ZN4pyo38instance14Bound$LT$T$GT$8into_ptr17hecdfb043895208ceE', symObjAddr: 0x3498, symBinAddr: 0x1F984, symSize: 0x40 }
  - { offset: 0x12E1AA, size: 0x8, addend: 0x0, symName: '__ZN4pyo38instance17Borrowed$LT$T$GT$6as_ptr17h53ddc636e06473e8E', symObjAddr: 0x34D8, symBinAddr: 0x1F9C4, symSize: 0x1C }
  - { offset: 0x12E1D6, size: 0x8, addend: 0x0, symName: '__ZN4pyo38instance17Borrowed$LT$T$GT$6to_any17h445cbd106396ff41E', symObjAddr: 0x34F4, symBinAddr: 0x1F9E0, symSize: 0x14 }
  - { offset: 0x12E20F, size: 0x8, addend: 0x0, symName: '__ZN4pyo38instance17Borrowed$LT$T$GT$6to_any17hc3886d0634495d28E', symObjAddr: 0x3508, symBinAddr: 0x1F9F4, symSize: 0x14 }
  - { offset: 0x12E23B, size: 0x8, addend: 0x0, symName: '__ZN4pyo38instance17Borrowed$LT$T$GT$8to_owned17hf8ca0a53d85520eeE', symObjAddr: 0x351C, symBinAddr: 0x1FA08, symSize: 0x2C }
  - { offset: 0x12E267, size: 0x8, addend: 0x0, symName: '__ZN4pyo38instance39Borrowed$LT$pyo3..types..any..PyAny$GT$18downcast_unchecked17h9ba070a1e0aae7b1E', symObjAddr: 0x3568, symBinAddr: 0x1FA54, symSize: 0x14 }
  - { offset: 0x12E293, size: 0x8, addend: 0x0, symName: '__ZN4pyo38instance39Borrowed$LT$pyo3..types..any..PyAny$GT$18downcast_unchecked17hbebde6780647ef13E', symObjAddr: 0x357C, symBinAddr: 0x1FA68, symSize: 0x14 }
  - { offset: 0x12E2BF, size: 0x8, addend: 0x0, symName: '__ZN4pyo38instance39Borrowed$LT$pyo3..types..any..PyAny$GT$18downcast_unchecked17hee48ad0168af91f4E', symObjAddr: 0x3590, symBinAddr: 0x1FA7C, symSize: 0x14 }
  - { offset: 0x12E2F8, size: 0x8, addend: 0x0, symName: '__ZN4pyo38instance39Borrowed$LT$pyo3..types..any..PyAny$GT$18downcast_unchecked17hf911f9a86fd23feeE', symObjAddr: 0x35A4, symBinAddr: 0x1FA90, symSize: 0x14 }
  - { offset: 0x12E331, size: 0x8, addend: 0x0, symName: '__ZN4pyo38internal8get_slot78_$LT$impl$u20$pyo3..instance..Bound$LT$pyo3..types..typeobject..PyType$GT$$GT$8get_slot17hf743529eb6c67ee5E', symObjAddr: 0x35B8, symBinAddr: 0x1FAA4, symSize: 0x28 }
  - { offset: 0x12E4CB, size: 0x8, addend: 0x0, symName: __ZN4core3ptr19copy_nonoverlapping18precondition_check17h5939a200a398fb4eE, symObjAddr: 0x0, symBinAddr: 0x1FFA8, symSize: 0x36C }
  - { offset: 0x12E7E9, size: 0x8, addend: 0x0, symName: __ZN4core3ptr19copy_nonoverlapping18precondition_check17h5939a200a398fb4eE, symObjAddr: 0x0, symBinAddr: 0x1FFA8, symSize: 0x36C }
  - { offset: 0x12EDF1, size: 0x8, addend: 0x0, symName: '__ZN4pyo311conversions3std6string86_$LT$impl$u20$pyo3..conversion..IntoPyObject$u20$for$u20$$RF$alloc..string..String$GT$13into_pyobject17h916d64ca84fbae42E', symObjAddr: 0x0, symBinAddr: 0x20314, symSize: 0x30 }
  - { offset: 0x130696, size: 0x8, addend: 0x0, symName: '__ZN4pyo311conversions3std6string86_$LT$impl$u20$pyo3..conversion..IntoPyObject$u20$for$u20$$RF$alloc..string..String$GT$13into_pyobject17h916d64ca84fbae42E', symObjAddr: 0x0, symBinAddr: 0x20314, symSize: 0x30 }
  - { offset: 0x1308EE, size: 0x8, addend: 0x0, symName: '__ZN65_$LT$alloc..string..String$u20$as$u20$core..ops..deref..Deref$GT$5deref17hc30d3179367560b0E', symObjAddr: 0x36C, symBinAddr: 0x20680, symSize: 0x24 }
  - { offset: 0x130922, size: 0x8, addend: 0x0, symName: '__ZN58_$LT$alloc..string..String$u20$as$u20$core..fmt..Debug$GT$3fmt17h1115a7d76d664e55E', symObjAddr: 0x30, symBinAddr: 0x20344, symSize: 0x88 }
  - { offset: 0x130A87, size: 0x8, addend: 0x0, symName: '__ZN58_$LT$alloc..string..String$u20$as$u20$core..fmt..Write$GT$10write_char17hc312af48a56d0137E', symObjAddr: 0xB8, symBinAddr: 0x203CC, symSize: 0x38 }
  - { offset: 0x130AC4, size: 0x8, addend: 0x0, symName: '__ZN58_$LT$alloc..string..String$u20$as$u20$core..fmt..Write$GT$9write_str17hf10b568ff8fd8221E', symObjAddr: 0xF0, symBinAddr: 0x20404, symSize: 0x40 }
  - { offset: 0x130B07, size: 0x8, addend: 0x0, symName: '__ZN62_$LT$alloc..string..String$u20$as$u20$core..cmp..PartialEq$GT$2eq17h7656761d01c8dac4E', symObjAddr: 0x310, symBinAddr: 0x20624, symSize: 0x2C }
  - { offset: 0x130B4A, size: 0x8, addend: 0x0, symName: '__ZN64_$LT$alloc..string..String$u20$as$u20$core..default..Default$GT$7default17h5f6f289199065e10E', symObjAddr: 0x33C, symBinAddr: 0x20650, symSize: 0x30 }
  - { offset: 0x130BD4, size: 0x8, addend: 0x0, symName: '__ZN77_$LT$alloc..string..String$u20$as$u20$core..cmp..PartialEq$LT$$RF$str$GT$$GT$2ne17hd63a0fa65755e7f3E', symObjAddr: 0x390, symBinAddr: 0x206A4, symSize: 0xD4 }
  - { offset: 0x130E3C, size: 0x8, addend: 0x0, symName: '__ZN94_$LT$alloc..string..String$u20$as$u20$core..convert..From$LT$$RF$alloc..string..String$GT$$GT$4from17hf4ce2d9f47b3ce46E', symObjAddr: 0x464, symBinAddr: 0x20778, symSize: 0x2C }
  - { offset: 0x13120C, size: 0x8, addend: 0x0, symName: __ZN5alloc6string6String19from_utf8_unchecked17h4e54f3f2f1eef01eE, symObjAddr: 0x130, symBinAddr: 0x20444, symSize: 0x18 }
  - { offset: 0x131359, size: 0x8, addend: 0x0, symName: __ZN5alloc6string6String4push17h2cc0cf3a657865a7E, symObjAddr: 0x148, symBinAddr: 0x2045C, symSize: 0xF8 }
  - { offset: 0x1315E6, size: 0x8, addend: 0x0, symName: __ZN5alloc6string6String6as_str17hd046eaa628be960eE, symObjAddr: 0x240, symBinAddr: 0x20554, symSize: 0x78 }
  - { offset: 0x1317CF, size: 0x8, addend: 0x0, symName: __ZN5alloc6string6String8push_str17h52177facaeb1f716E, symObjAddr: 0x2B8, symBinAddr: 0x205CC, symSize: 0x58 }
  - { offset: 0x131F04, size: 0x8, addend: 0x0, symName: __ZN9hashbrown7control5group4neon5Group10match_full17h1852b38f01f4d7bbE, symObjAddr: 0x0, symBinAddr: 0x207A4, symSize: 0x68 }
  - { offset: 0x13201C, size: 0x8, addend: 0x0, symName: __ZN9hashbrown7control5group4neon5Group10match_full17h1852b38f01f4d7bbE, symObjAddr: 0x0, symBinAddr: 0x207A4, symSize: 0x68 }
  - { offset: 0x132054, size: 0x8, addend: 0x0, symName: __ZN9hashbrown7control5group4neon5Group22match_empty_or_deleted17h7a4af2ef3aea0d3fE, symObjAddr: 0x68, symBinAddr: 0x2080C, symSize: 0x68 }
  - { offset: 0x13208C, size: 0x8, addend: 0x0, symName: __ZN9hashbrown7control5group4neon5Group44convert_special_to_empty_and_full_to_deleted17hf3ed388c9ade995dE, symObjAddr: 0xD0, symBinAddr: 0x20874, symSize: 0x88 }
  - { offset: 0x1320C4, size: 0x8, addend: 0x0, symName: __ZN9hashbrown7control5group4neon5Group9match_tag17h7e5be3d6416b0ac4E, symObjAddr: 0x158, symBinAddr: 0x208FC, symSize: 0x7C }
  - { offset: 0x132130, size: 0x8, addend: 0x0, symName: '__ZN57_$LT$$RF$mut$u20$T$u20$as$u20$core..ops..deref..Deref$GT$5deref17hd83768e575b155d8E', symObjAddr: 0x0, symBinAddr: 0x20978, symSize: 0x18 }
  - { offset: 0x132607, size: 0x8, addend: 0x0, symName: '__ZN57_$LT$$RF$mut$u20$T$u20$as$u20$core..ops..deref..Deref$GT$5deref17hd83768e575b155d8E', symObjAddr: 0x0, symBinAddr: 0x20978, symSize: 0x18 }
  - { offset: 0x132642, size: 0x8, addend: 0x0, symName: '__ZN60_$LT$$RF$mut$u20$T$u20$as$u20$core..ops..deref..DerefMut$GT$9deref_mut17h90f877ce3226a354E', symObjAddr: 0x6F0, symBinAddr: 0x21068, symSize: 0x18 }
  - { offset: 0x13268B, size: 0x8, addend: 0x0, symName: '__ZN59_$LT$F$u20$as$u20$core..future..into_future..IntoFuture$GT$11into_future17h588accd0960ec8feE', symObjAddr: 0x18, symBinAddr: 0x20990, symSize: 0x14 }
  - { offset: 0x132F33, size: 0x8, addend: 0x0, symName: __ZN5tokio4sync7oneshot7channel17h3ac303300d77ac59E, symObjAddr: 0x584, symBinAddr: 0x20EFC, symSize: 0x16C }
  - { offset: 0x132FDD, size: 0x8, addend: 0x0, symName: '__ZN88_$LT$tokio..sync..oneshot..Receiver$LT$T$GT$$u20$as$u20$core..future..future..Future$GT$4poll17h715211c38e12d359E', symObjAddr: 0x708, symBinAddr: 0x21080, symSize: 0x1F0 }
  - { offset: 0x133436, size: 0x8, addend: 0x0, symName: '__ZN5tokio4sync7oneshot14Inner$LT$T$GT$5close17hbfb3aa3fe160956fE', symObjAddr: 0x2C, symBinAddr: 0x209A4, symSize: 0x9C }
  - { offset: 0x133519, size: 0x8, addend: 0x0, symName: '__ZN5tokio4sync7oneshot14Inner$LT$T$GT$9poll_recv17h688b023e1def83baE', symObjAddr: 0xC8, symBinAddr: 0x20A40, symSize: 0x4BC }
  - { offset: 0x133705, size: 0x8, addend: 0x0, symName: __ZN4core5slice4sort6stable14driftsort_main17h797c452f5f0b1105E, symObjAddr: 0x0, symBinAddr: 0x21270, symSize: 0x28C }
  - { offset: 0x133914, size: 0x8, addend: 0x0, symName: __ZN4core5slice4sort6stable14driftsort_main17h797c452f5f0b1105E, symObjAddr: 0x0, symBinAddr: 0x21270, symSize: 0x28C }
  - { offset: 0x134776, size: 0x8, addend: 0x0, symName: '__ZN4core5slice4sort6stable27AlignedStorage$LT$T$C$_$GT$19as_uninit_slice_mut17h0935036f39356d70E', symObjAddr: 0x28C, symBinAddr: 0x214FC, symSize: 0x84 }
  - { offset: 0x13487C, size: 0x8, addend: 0x0, symName: __ZN4core9core_arch7aarch644neon9generated7vld1_u817h7b37f5fc0d058f0cE, symObjAddr: 0x0, symBinAddr: 0x21580, symSize: 0x34 }
  - { offset: 0x1348A2, size: 0x8, addend: 0x0, symName: __ZN4core9core_arch7aarch644neon9generated7vld1_u817h7b37f5fc0d058f0cE, symObjAddr: 0x0, symBinAddr: 0x21580, symSize: 0x34 }
  - { offset: 0x1348D0, size: 0x8, addend: 0x0, symName: __ZN4core9core_arch7aarch644neon9generated7vst1_u817h8c9bf0a0b818c5beE, symObjAddr: 0x34, symBinAddr: 0x215B4, symSize: 0x40 }
  - { offset: 0x13490A, size: 0x8, addend: 0x0, symName: __ZN4core9core_arch7aarch644neon9generated8vcgez_s817hf564e1092e74d408E, symObjAddr: 0x74, symBinAddr: 0x215F4, symSize: 0x68 }
  - { offset: 0x1349AC, size: 0x8, addend: 0x0, symName: __ZN4core9core_arch7aarch644neon9generated8vcltz_s817h86bf35d009e64208E, symObjAddr: 0xDC, symBinAddr: 0x2165C, symSize: 0x68 }
  - { offset: 0x134BA2, size: 0x8, addend: 0x0, symName: '__ZN5tokio7runtime4task17Notified$LT$S$GT$6header17h9d48fc738fbef401E', symObjAddr: 0x0, symBinAddr: 0x216C4, symSize: 0x24 }
  - { offset: 0x1384AE, size: 0x8, addend: 0x0, symName: '__ZN5tokio7runtime4task17Notified$LT$S$GT$6header17h9d48fc738fbef401E', symObjAddr: 0x0, symBinAddr: 0x216C4, symSize: 0x24 }
  - { offset: 0x1384DA, size: 0x8, addend: 0x0, symName: '__ZN5tokio7runtime4task22LocalNotified$LT$S$GT$3run17h91db1119fe9f1fc0E', symObjAddr: 0x24, symBinAddr: 0x216E8, symSize: 0x38 }
  - { offset: 0x138542, size: 0x8, addend: 0x0, symName: '__ZN71_$LT$alloc..borrow..Cow$LT$B$GT$$u20$as$u20$core..ops..deref..Deref$GT$5deref17hf1e201ecbc52962cE', symObjAddr: 0x0, symBinAddr: 0x21720, symSize: 0x78 }
  - { offset: 0x13855E, size: 0x8, addend: 0x0, symName: '__ZN71_$LT$alloc..borrow..Cow$LT$B$GT$$u20$as$u20$core..ops..deref..Deref$GT$5deref17hf1e201ecbc52962cE', symObjAddr: 0x0, symBinAddr: 0x21720, symSize: 0x78 }
  - { offset: 0x13872C, size: 0x8, addend: 0x0, symName: __ZN5alloc3fmt6format17ha51040523908eac1E, symObjAddr: 0x0, symBinAddr: 0x21798, symSize: 0xD4 }
  - { offset: 0x138CC7, size: 0x8, addend: 0x0, symName: __ZN5alloc3fmt6format17ha51040523908eac1E, symObjAddr: 0x0, symBinAddr: 0x21798, symSize: 0xD4 }
  - { offset: 0x138E20, size: 0x8, addend: 0x0, symName: '__ZN100_$LT$core..panic..unwind_safe..AssertUnwindSafe$LT$F$GT$$u20$as$u20$core..future..future..Future$GT$4poll17h1c3ebc5da0b7653aE', symObjAddr: 0x0, symBinAddr: 0x2186C, symSize: 0x44 }
  - { offset: 0x139459, size: 0x8, addend: 0x0, symName: '__ZN100_$LT$core..panic..unwind_safe..AssertUnwindSafe$LT$F$GT$$u20$as$u20$core..future..future..Future$GT$4poll17h1c3ebc5da0b7653aE', symObjAddr: 0x0, symBinAddr: 0x2186C, symSize: 0x44 }
  - { offset: 0x13956F, size: 0x8, addend: 0x0, symName: '__ZN115_$LT$core..panic..unwind_safe..AssertUnwindSafe$LT$F$GT$$u20$as$u20$core..ops..function..FnOnce$LT$$LP$$RP$$GT$$GT$9call_once17h732fc05d8fec1e6dE', symObjAddr: 0x44, symBinAddr: 0x218B0, symSize: 0x38 }
  - { offset: 0x139615, size: 0x8, addend: 0x0, symName: '__ZN59_$LT$F$u20$as$u20$core..future..into_future..IntoFuture$GT$11into_future17h82005a7a0f994b4eE', symObjAddr: 0x7C, symBinAddr: 0x218E8, symSize: 0x1C }
  - { offset: 0x13BAE9, size: 0x8, addend: 0x0, symName: __ZN3std4sync6poison4once4Once15call_once_force17h8e639271e66fed4eE, symObjAddr: 0x0, symBinAddr: 0x21904, symSize: 0x10C }
  - { offset: 0x13BB22, size: 0x8, addend: 0x0, symName: '__ZN3std4sync6poison4once4Once15call_once_force28_$u7b$$u7b$closure$u7d$$u7d$17h151fda67277314ceE', symObjAddr: 0x10C, symBinAddr: 0x21A10, symSize: 0x90 }
  - { offset: 0x13C146, size: 0x8, addend: 0x0, symName: __ZN3std4sync6poison4once4Once15call_once_force17h8e639271e66fed4eE, symObjAddr: 0x0, symBinAddr: 0x21904, symSize: 0x10C }
  - { offset: 0x13C274, size: 0x8, addend: 0x0, symName: '__ZN4core3cmp5impls69_$LT$impl$u20$core..cmp..PartialEq$LT$$RF$B$GT$$u20$for$u20$$RF$A$GT$2eq17hcb0f0b72e5abdad1E', symObjAddr: 0x0, symBinAddr: 0x21AA0, symSize: 0x34 }
  - { offset: 0x13C295, size: 0x8, addend: 0x0, symName: '__ZN4core3cmp5impls69_$LT$impl$u20$core..cmp..PartialEq$LT$$RF$B$GT$$u20$for$u20$$RF$A$GT$2eq17hcb0f0b72e5abdad1E', symObjAddr: 0x0, symBinAddr: 0x21AA0, symSize: 0x34 }
  - { offset: 0x13CB5A, size: 0x8, addend: 0x0, symName: '__ZN4core3ptr9const_ptr33_$LT$impl$u20$$BP$const$u20$T$GT$20offset_from_unsigned18precondition_check17hec18c6b2c08e2f8bE', symObjAddr: 0x0, symBinAddr: 0x21AD4, symSize: 0xAC }
  - { offset: 0x13CE44, size: 0x8, addend: 0x0, symName: '__ZN4core3ptr9const_ptr33_$LT$impl$u20$$BP$const$u20$T$GT$20offset_from_unsigned18precondition_check17hec18c6b2c08e2f8bE', symObjAddr: 0x0, symBinAddr: 0x21AD4, symSize: 0xAC }
  - { offset: 0x13CF42, size: 0x8, addend: 0x0, symName: '__ZN4core3ptr9const_ptr33_$LT$impl$u20$$BP$const$u20$T$GT$6offset18precondition_check17h5be5bac978fe1993E', symObjAddr: 0xAC, symBinAddr: 0x21B80, symSize: 0x10C }
  - { offset: 0x13D4BF, size: 0x8, addend: 0x0, symName: __ZN4pyo35impl_5panic9PanicTrap3new17ha241398b7074dc4bE, symObjAddr: 0x0, symBinAddr: 0x21C8C, symSize: 0x18 }
  - { offset: 0x13D54E, size: 0x8, addend: 0x0, symName: __ZN4pyo35impl_5panic9PanicTrap3new17ha241398b7074dc4bE, symObjAddr: 0x0, symBinAddr: 0x21C8C, symSize: 0x18 }
  - { offset: 0x13D570, size: 0x8, addend: 0x0, symName: __ZN4pyo35impl_5panic9PanicTrap6disarm17hbb2e867efc20bcfbE, symObjAddr: 0x18, symBinAddr: 0x21CA4, symSize: 0x28 }
  - { offset: 0x13D5B0, size: 0x8, addend: 0x0, symName: '__ZN59_$LT$F$u20$as$u20$core..future..into_future..IntoFuture$GT$11into_future17h168b597ba8df2a3aE', symObjAddr: 0x0, symBinAddr: 0x21CCC, symSize: 0x1C }
  - { offset: 0x13F77E, size: 0x8, addend: 0x0, symName: '__ZN59_$LT$F$u20$as$u20$core..future..into_future..IntoFuture$GT$11into_future17h168b597ba8df2a3aE', symObjAddr: 0x0, symBinAddr: 0x21CCC, symSize: 0x1C }
  - { offset: 0x13F7B3, size: 0x8, addend: 0x0, symName: '__ZN59_$LT$F$u20$as$u20$core..future..into_future..IntoFuture$GT$11into_future17h2e9b758e21684375E', symObjAddr: 0x1C, symBinAddr: 0x21CE8, symSize: 0x1C }
  - { offset: 0x13F7E8, size: 0x8, addend: 0x0, symName: '__ZN59_$LT$F$u20$as$u20$core..future..into_future..IntoFuture$GT$11into_future17h5f6b4ee1c3401cb2E', symObjAddr: 0x38, symBinAddr: 0x21D04, symSize: 0x1C }
  - { offset: 0x13F81D, size: 0x8, addend: 0x0, symName: '__ZN59_$LT$F$u20$as$u20$core..future..into_future..IntoFuture$GT$11into_future17h6485262ae343591bE', symObjAddr: 0x54, symBinAddr: 0x21D20, symSize: 0x1C }
  - { offset: 0x13F852, size: 0x8, addend: 0x0, symName: '__ZN59_$LT$F$u20$as$u20$core..future..into_future..IntoFuture$GT$11into_future17h6ed7bea8443ed65cE', symObjAddr: 0x70, symBinAddr: 0x21D3C, symSize: 0x1C }
  - { offset: 0x13F887, size: 0x8, addend: 0x0, symName: '__ZN59_$LT$F$u20$as$u20$core..future..into_future..IntoFuture$GT$11into_future17had74968230f6cd61E', symObjAddr: 0x8C, symBinAddr: 0x21D58, symSize: 0x1C }
  - { offset: 0x13F8EC, size: 0x8, addend: 0x0, symName: '__ZN72_$LT$core..pin..Pin$LT$P$GT$$u20$as$u20$core..future..future..Future$GT$4poll17h067d5d9941d0b087E', symObjAddr: 0x1C8, symBinAddr: 0x21E94, symSize: 0x4C }
  - { offset: 0x13F988, size: 0x8, addend: 0x0, symName: '__ZN72_$LT$core..pin..Pin$LT$P$GT$$u20$as$u20$core..future..future..Future$GT$4poll17h131d5f112b183c7dE', symObjAddr: 0x214, symBinAddr: 0x21EE0, symSize: 0x4C }
  - { offset: 0x13FA24, size: 0x8, addend: 0x0, symName: '__ZN72_$LT$core..pin..Pin$LT$P$GT$$u20$as$u20$core..future..future..Future$GT$4poll17h18dd928155972559E', symObjAddr: 0x260, symBinAddr: 0x21F2C, symSize: 0x4C }
  - { offset: 0x13FAC0, size: 0x8, addend: 0x0, symName: '__ZN72_$LT$core..pin..Pin$LT$P$GT$$u20$as$u20$core..future..future..Future$GT$4poll17h199936420822b5f9E', symObjAddr: 0x2AC, symBinAddr: 0x21F78, symSize: 0x5C }
  - { offset: 0x13FB5C, size: 0x8, addend: 0x0, symName: '__ZN72_$LT$core..pin..Pin$LT$P$GT$$u20$as$u20$core..future..future..Future$GT$4poll17h2bfa59c0035923afE', symObjAddr: 0x308, symBinAddr: 0x21FD4, symSize: 0x4C }
  - { offset: 0x13FBF8, size: 0x8, addend: 0x0, symName: '__ZN72_$LT$core..pin..Pin$LT$P$GT$$u20$as$u20$core..future..future..Future$GT$4poll17h477995517b31631fE', symObjAddr: 0x354, symBinAddr: 0x22020, symSize: 0x4C }
  - { offset: 0x13FC94, size: 0x8, addend: 0x0, symName: '__ZN72_$LT$core..pin..Pin$LT$P$GT$$u20$as$u20$core..future..future..Future$GT$4poll17h5f2b9ec7c371f57bE', symObjAddr: 0x3A0, symBinAddr: 0x2206C, symSize: 0x5C }
  - { offset: 0x13FD30, size: 0x8, addend: 0x0, symName: '__ZN72_$LT$core..pin..Pin$LT$P$GT$$u20$as$u20$core..future..future..Future$GT$4poll17h606374f9e2865e93E', symObjAddr: 0x3FC, symBinAddr: 0x220C8, symSize: 0x5C }
  - { offset: 0x13FDCC, size: 0x8, addend: 0x0, symName: '__ZN72_$LT$core..pin..Pin$LT$P$GT$$u20$as$u20$core..future..future..Future$GT$4poll17h60d02bdb0bc7bdaeE', symObjAddr: 0x458, symBinAddr: 0x22124, symSize: 0x5C }
  - { offset: 0x13FE68, size: 0x8, addend: 0x0, symName: '__ZN72_$LT$core..pin..Pin$LT$P$GT$$u20$as$u20$core..future..future..Future$GT$4poll17h69ba071713552e7eE', symObjAddr: 0x4B4, symBinAddr: 0x22180, symSize: 0x4C }
  - { offset: 0x13FF04, size: 0x8, addend: 0x0, symName: '__ZN72_$LT$core..pin..Pin$LT$P$GT$$u20$as$u20$core..future..future..Future$GT$4poll17h7aab8306b42818d7E', symObjAddr: 0x500, symBinAddr: 0x221CC, symSize: 0x4C }
  - { offset: 0x13FFA0, size: 0x8, addend: 0x0, symName: '__ZN72_$LT$core..pin..Pin$LT$P$GT$$u20$as$u20$core..future..future..Future$GT$4poll17h7d1566f7a957cd4fE', symObjAddr: 0x54C, symBinAddr: 0x22218, symSize: 0x4C }
  - { offset: 0x14003C, size: 0x8, addend: 0x0, symName: '__ZN72_$LT$core..pin..Pin$LT$P$GT$$u20$as$u20$core..future..future..Future$GT$4poll17h8f1eedda985063c9E', symObjAddr: 0x598, symBinAddr: 0x22264, symSize: 0x5C }
  - { offset: 0x1400D8, size: 0x8, addend: 0x0, symName: '__ZN72_$LT$core..pin..Pin$LT$P$GT$$u20$as$u20$core..future..future..Future$GT$4poll17ha532c664d4def690E', symObjAddr: 0x5F4, symBinAddr: 0x222C0, symSize: 0x4C }
  - { offset: 0x140174, size: 0x8, addend: 0x0, symName: '__ZN72_$LT$core..pin..Pin$LT$P$GT$$u20$as$u20$core..future..future..Future$GT$4poll17he3f8786678cfe16dE', symObjAddr: 0x640, symBinAddr: 0x2230C, symSize: 0x4C }
  - { offset: 0x140210, size: 0x8, addend: 0x0, symName: '__ZN72_$LT$core..pin..Pin$LT$P$GT$$u20$as$u20$core..future..future..Future$GT$4poll17hec12b2baae9ed0c0E', symObjAddr: 0x68C, symBinAddr: 0x22358, symSize: 0x4C }
  - { offset: 0x1402AC, size: 0x8, addend: 0x0, symName: '__ZN72_$LT$core..pin..Pin$LT$P$GT$$u20$as$u20$core..future..future..Future$GT$4poll17hf31e95fbbd792f88E', symObjAddr: 0x6D8, symBinAddr: 0x223A4, symSize: 0x5C }
  - { offset: 0x140348, size: 0x8, addend: 0x0, symName: '__ZN72_$LT$core..pin..Pin$LT$P$GT$$u20$as$u20$core..future..future..Future$GT$4poll17hfa07dca27fe11f93E', symObjAddr: 0x734, symBinAddr: 0x22400, symSize: 0x4C }
  - { offset: 0x1403F6, size: 0x8, addend: 0x0, symName: '__ZN60_$LT$$RF$mut$u20$T$u20$as$u20$core..ops..deref..DerefMut$GT$9deref_mut17h0b1b3bec2b4298cbE', symObjAddr: 0xA8, symBinAddr: 0x21D74, symSize: 0x18 }
  - { offset: 0x14042D, size: 0x8, addend: 0x0, symName: '__ZN60_$LT$$RF$mut$u20$T$u20$as$u20$core..ops..deref..DerefMut$GT$9deref_mut17h31c16de22faee49fE', symObjAddr: 0xC0, symBinAddr: 0x21D8C, symSize: 0x18 }
  - { offset: 0x140464, size: 0x8, addend: 0x0, symName: '__ZN60_$LT$$RF$mut$u20$T$u20$as$u20$core..ops..deref..DerefMut$GT$9deref_mut17h343d3e66b63a8407E', symObjAddr: 0xD8, symBinAddr: 0x21DA4, symSize: 0x18 }
  - { offset: 0x14049B, size: 0x8, addend: 0x0, symName: '__ZN60_$LT$$RF$mut$u20$T$u20$as$u20$core..ops..deref..DerefMut$GT$9deref_mut17h36d5666cda503b88E', symObjAddr: 0xF0, symBinAddr: 0x21DBC, symSize: 0x18 }
  - { offset: 0x1404D2, size: 0x8, addend: 0x0, symName: '__ZN60_$LT$$RF$mut$u20$T$u20$as$u20$core..ops..deref..DerefMut$GT$9deref_mut17h376532ef14303926E', symObjAddr: 0x108, symBinAddr: 0x21DD4, symSize: 0x18 }
  - { offset: 0x140509, size: 0x8, addend: 0x0, symName: '__ZN60_$LT$$RF$mut$u20$T$u20$as$u20$core..ops..deref..DerefMut$GT$9deref_mut17h47e21b4340b8238eE', symObjAddr: 0x120, symBinAddr: 0x21DEC, symSize: 0x18 }
  - { offset: 0x140540, size: 0x8, addend: 0x0, symName: '__ZN60_$LT$$RF$mut$u20$T$u20$as$u20$core..ops..deref..DerefMut$GT$9deref_mut17h6555d40397612a03E', symObjAddr: 0x138, symBinAddr: 0x21E04, symSize: 0x18 }
  - { offset: 0x140577, size: 0x8, addend: 0x0, symName: '__ZN60_$LT$$RF$mut$u20$T$u20$as$u20$core..ops..deref..DerefMut$GT$9deref_mut17h733533b09d5446f6E', symObjAddr: 0x150, symBinAddr: 0x21E1C, symSize: 0x18 }
  - { offset: 0x1405AE, size: 0x8, addend: 0x0, symName: '__ZN60_$LT$$RF$mut$u20$T$u20$as$u20$core..ops..deref..DerefMut$GT$9deref_mut17h880061ba2fe152e2E', symObjAddr: 0x168, symBinAddr: 0x21E34, symSize: 0x18 }
  - { offset: 0x1405E5, size: 0x8, addend: 0x0, symName: '__ZN60_$LT$$RF$mut$u20$T$u20$as$u20$core..ops..deref..DerefMut$GT$9deref_mut17hb80009aa4b805596E', symObjAddr: 0x180, symBinAddr: 0x21E4C, symSize: 0x18 }
  - { offset: 0x14061C, size: 0x8, addend: 0x0, symName: '__ZN60_$LT$$RF$mut$u20$T$u20$as$u20$core..ops..deref..DerefMut$GT$9deref_mut17hcc52a02a4c63502cE', symObjAddr: 0x198, symBinAddr: 0x21E64, symSize: 0x18 }
  - { offset: 0x140653, size: 0x8, addend: 0x0, symName: '__ZN60_$LT$$RF$mut$u20$T$u20$as$u20$core..ops..deref..DerefMut$GT$9deref_mut17hdeb6f01041fa1aa8E', symObjAddr: 0x1B0, symBinAddr: 0x21E7C, symSize: 0x18 }
  - { offset: 0x14129B, size: 0x8, addend: 0x0, symName: '__ZN72_$LT$core..pin..Pin$LT$Ptr$GT$$u20$as$u20$core..ops..deref..DerefMut$GT$9deref_mut17hd22dd62cdabe32a6E', symObjAddr: 0x780, symBinAddr: 0x2244C, symSize: 0x34 }
  - { offset: 0x146689, size: 0x8, addend: 0x0, symName: __ZN4core5slice4sort6stable5drift10create_run17h0d43c4c06329c619E, symObjAddr: 0x0, symBinAddr: 0x22480, symSize: 0x3CC }
  - { offset: 0x146924, size: 0x8, addend: 0x0, symName: __ZN4core5slice4sort6stable5drift10create_run17h0d43c4c06329c619E, symObjAddr: 0x0, symBinAddr: 0x22480, symSize: 0x3CC }
  - { offset: 0x146D4C, size: 0x8, addend: 0x0, symName: __ZN4core5slice4sort6stable5drift16stable_quicksort17hdbd7a226b6f2c749E, symObjAddr: 0x3CC, symBinAddr: 0x2284C, symSize: 0xB4 }
  - { offset: 0x146F69, size: 0x8, addend: 0x0, symName: __ZN4core5slice4sort6stable5drift4sort17h20a7669d266e4f54E, symObjAddr: 0x480, symBinAddr: 0x22900, symSize: 0x530 }
  - { offset: 0x148DF7, size: 0x8, addend: 0x0, symName: '__ZN5tokio7runtime4task4list19OwnedTasks$LT$S$GT$12assert_owner17hfd269fb848f8138bE', symObjAddr: 0x0, symBinAddr: 0x22E30, symSize: 0xE4 }
  - { offset: 0x14C75A, size: 0x8, addend: 0x0, symName: '__ZN5tokio7runtime4task4list19OwnedTasks$LT$S$GT$12assert_owner17hfd269fb848f8138bE', symObjAddr: 0x0, symBinAddr: 0x22E30, symSize: 0xE4 }
  - { offset: 0x14C808, size: 0x8, addend: 0x0, symName: __ZN12tracing_core8metadata8Metadata6fields17haf6c4b8d2b4c034eE, symObjAddr: 0x0, symBinAddr: 0x22F14, symSize: 0x14 }
  - { offset: 0x14CAD8, size: 0x8, addend: 0x0, symName: __ZN12tracing_core8metadata8Metadata6fields17haf6c4b8d2b4c034eE, symObjAddr: 0x0, symBinAddr: 0x22F14, symSize: 0x14 }
  - { offset: 0x14CB19, size: 0x8, addend: 0x0, symName: '__ZN4core3ptr8non_null16NonNull$LT$T$GT$13new_unchecked18precondition_check17h648d074f77ce9d8dE', symObjAddr: 0x0, symBinAddr: 0x22F28, symSize: 0xA4 }
  - { offset: 0x14CD9B, size: 0x8, addend: 0x0, symName: '__ZN4core3ptr8non_null16NonNull$LT$T$GT$13new_unchecked18precondition_check17h648d074f77ce9d8dE', symObjAddr: 0x0, symBinAddr: 0x22F28, symSize: 0xA4 }
  - { offset: 0x14D048, size: 0x8, addend: 0x0, symName: '__ZN100_$LT$pyo3..types..tuple..BorrowedTupleIterator$u20$as$u20$core..iter..traits..iterator..Iterator$GT$4next17hd30a8327be5d16f5E', symObjAddr: 0x0, symBinAddr: 0x22FCC, symSize: 0x9C }
  - { offset: 0x14E207, size: 0x8, addend: 0x0, symName: '__ZN100_$LT$pyo3..types..tuple..BorrowedTupleIterator$u20$as$u20$core..iter..traits..iterator..Iterator$GT$4next17hd30a8327be5d16f5E', symObjAddr: 0x0, symBinAddr: 0x22FCC, symSize: 0x9C }
  - { offset: 0x14E8C9, size: 0x8, addend: 0x0, symName: __ZN5tokio7runtime4park16CachedParkThread8block_on17h07e54d422a5f079bE, symObjAddr: 0x0, symBinAddr: 0x23068, symSize: 0x35C }
  - { offset: 0x152C32, size: 0x8, addend: 0x0, symName: '__ZN5tokio7runtime4park16CachedParkThread8block_on28_$u7b$$u7b$closure$u7d$$u7d$17h0be90ee7ea300eeeE', symObjAddr: 0x3484, symBinAddr: 0x264EC, symSize: 0x44 }
  - { offset: 0x152C9C, size: 0x8, addend: 0x0, symName: '__ZN5tokio7runtime4park16CachedParkThread8block_on28_$u7b$$u7b$closure$u7d$$u7d$17h3296df938bb7ed79E', symObjAddr: 0x34C8, symBinAddr: 0x26530, symSize: 0x44 }
  - { offset: 0x152D06, size: 0x8, addend: 0x0, symName: '__ZN5tokio7runtime4park16CachedParkThread8block_on28_$u7b$$u7b$closure$u7d$$u7d$17h527909ffa5c6d6f3E', symObjAddr: 0x350C, symBinAddr: 0x26574, symSize: 0x44 }
  - { offset: 0x152D70, size: 0x8, addend: 0x0, symName: '__ZN5tokio7runtime4park16CachedParkThread8block_on28_$u7b$$u7b$closure$u7d$$u7d$17h5fb25c89a88d9d91E', symObjAddr: 0x3550, symBinAddr: 0x265B8, symSize: 0x44 }
  - { offset: 0x152DDA, size: 0x8, addend: 0x0, symName: '__ZN5tokio7runtime4park16CachedParkThread8block_on28_$u7b$$u7b$closure$u7d$$u7d$17h662c461a44045ce3E', symObjAddr: 0x3594, symBinAddr: 0x265FC, symSize: 0x44 }
  - { offset: 0x152E44, size: 0x8, addend: 0x0, symName: '__ZN5tokio7runtime4park16CachedParkThread8block_on28_$u7b$$u7b$closure$u7d$$u7d$17h76f6ca2430ec530aE', symObjAddr: 0x35D8, symBinAddr: 0x26640, symSize: 0x44 }
  - { offset: 0x152EAE, size: 0x8, addend: 0x0, symName: '__ZN5tokio7runtime4park16CachedParkThread8block_on28_$u7b$$u7b$closure$u7d$$u7d$17h9e115b5ff40e238bE', symObjAddr: 0x361C, symBinAddr: 0x26684, symSize: 0x44 }
  - { offset: 0x152F18, size: 0x8, addend: 0x0, symName: '__ZN5tokio7runtime4park16CachedParkThread8block_on28_$u7b$$u7b$closure$u7d$$u7d$17h9f8a9e8d60e4936eE', symObjAddr: 0x3660, symBinAddr: 0x266C8, symSize: 0x44 }
  - { offset: 0x152F82, size: 0x8, addend: 0x0, symName: '__ZN5tokio7runtime4park16CachedParkThread8block_on28_$u7b$$u7b$closure$u7d$$u7d$17hb1ab8a14198041c1E', symObjAddr: 0x36A4, symBinAddr: 0x2670C, symSize: 0x44 }
  - { offset: 0x152FEC, size: 0x8, addend: 0x0, symName: '__ZN5tokio7runtime4park16CachedParkThread8block_on28_$u7b$$u7b$closure$u7d$$u7d$17hb7c96b5087e91f9aE', symObjAddr: 0x36E8, symBinAddr: 0x26750, symSize: 0x44 }
  - { offset: 0x153056, size: 0x8, addend: 0x0, symName: '__ZN5tokio7runtime4park16CachedParkThread8block_on28_$u7b$$u7b$closure$u7d$$u7d$17hc374bad688bff905E', symObjAddr: 0x372C, symBinAddr: 0x26794, symSize: 0x44 }
  - { offset: 0x1530C0, size: 0x8, addend: 0x0, symName: '__ZN5tokio7runtime4park16CachedParkThread8block_on28_$u7b$$u7b$closure$u7d$$u7d$17hcce85c2b99c2d4d9E', symObjAddr: 0x3770, symBinAddr: 0x267D8, symSize: 0x44 }
  - { offset: 0x15312A, size: 0x8, addend: 0x0, symName: '__ZN5tokio7runtime4park16CachedParkThread8block_on28_$u7b$$u7b$closure$u7d$$u7d$17he653a75d822b5370E', symObjAddr: 0x37B4, symBinAddr: 0x2681C, symSize: 0x44 }
  - { offset: 0x153194, size: 0x8, addend: 0x0, symName: '__ZN5tokio7runtime4park16CachedParkThread8block_on28_$u7b$$u7b$closure$u7d$$u7d$17hfaa8804842afc780E', symObjAddr: 0x37F8, symBinAddr: 0x26860, symSize: 0x44 }
  - { offset: 0x1531FE, size: 0x8, addend: 0x0, symName: '__ZN5tokio7runtime4park16CachedParkThread8block_on28_$u7b$$u7b$closure$u7d$$u7d$17hfb5709e31920c9c9E', symObjAddr: 0x383C, symBinAddr: 0x268A4, symSize: 0x44 }
  - { offset: 0x153268, size: 0x8, addend: 0x0, symName: '__ZN5tokio7runtime4park16CachedParkThread8block_on28_$u7b$$u7b$closure$u7d$$u7d$17hfc4918e5e0b7236bE', symObjAddr: 0x3880, symBinAddr: 0x268E8, symSize: 0x44 }
  - { offset: 0x156924, size: 0x8, addend: 0x0, symName: __ZN5tokio7runtime4park16CachedParkThread8block_on17h07e54d422a5f079bE, symObjAddr: 0x0, symBinAddr: 0x23068, symSize: 0x35C }
  - { offset: 0x156F9C, size: 0x8, addend: 0x0, symName: __ZN5tokio7runtime4park16CachedParkThread8block_on17h18cc426ce91e052cE, symObjAddr: 0x35C, symBinAddr: 0x233C4, symSize: 0x340 }
  - { offset: 0x15714D, size: 0x8, addend: 0x0, symName: __ZN5tokio7runtime4park16CachedParkThread8block_on17h25db3a8bd20c2120E, symObjAddr: 0x69C, symBinAddr: 0x23704, symSize: 0x35C }
  - { offset: 0x1572DF, size: 0x8, addend: 0x0, symName: __ZN5tokio7runtime4park16CachedParkThread8block_on17h2c9d493efe70aae8E, symObjAddr: 0x9F8, symBinAddr: 0x23A60, symSize: 0x340 }
  - { offset: 0x15747E, size: 0x8, addend: 0x0, symName: __ZN5tokio7runtime4park16CachedParkThread8block_on17h3b8cc4abbad7a75bE, symObjAddr: 0xD38, symBinAddr: 0x23DA0, symSize: 0x34C }
  - { offset: 0x157637, size: 0x8, addend: 0x0, symName: __ZN5tokio7runtime4park16CachedParkThread8block_on17h3e00c3d95ae9c5efE, symObjAddr: 0x1084, symBinAddr: 0x240EC, symSize: 0x340 }
  - { offset: 0x1577C9, size: 0x8, addend: 0x0, symName: __ZN5tokio7runtime4park16CachedParkThread8block_on17h4ff4a589d24a17c9E, symObjAddr: 0x13C4, symBinAddr: 0x2442C, symSize: 0x360 }
  - { offset: 0x15838D, size: 0x8, addend: 0x0, symName: __ZN5tokio7runtime4park16CachedParkThread8block_on17h707ec6a82791e200E, symObjAddr: 0x1724, symBinAddr: 0x2478C, symSize: 0x348 }
  - { offset: 0x15851F, size: 0x8, addend: 0x0, symName: __ZN5tokio7runtime4park16CachedParkThread8block_on17h71d978f3d5da978bE, symObjAddr: 0x1A6C, symBinAddr: 0x24AD4, symSize: 0x340 }
  - { offset: 0x1586B1, size: 0x8, addend: 0x0, symName: __ZN5tokio7runtime4park16CachedParkThread8block_on17h7aebcf96c51844eeE, symObjAddr: 0x1DAC, symBinAddr: 0x24E14, symSize: 0x340 }
  - { offset: 0x158843, size: 0x8, addend: 0x0, symName: __ZN5tokio7runtime4park16CachedParkThread8block_on17h939494d122847569E, symObjAddr: 0x20EC, symBinAddr: 0x25154, symSize: 0x33C }
  - { offset: 0x1589D5, size: 0x8, addend: 0x0, symName: __ZN5tokio7runtime4park16CachedParkThread8block_on17h982a69a6aa375f8bE, symObjAddr: 0x2428, symBinAddr: 0x25490, symSize: 0x34C }
  - { offset: 0x158B4D, size: 0x8, addend: 0x0, symName: __ZN5tokio7runtime4park16CachedParkThread8block_on17ha65d4fcd47fc874eE, symObjAddr: 0x2774, symBinAddr: 0x257DC, symSize: 0x348 }
  - { offset: 0x158CC5, size: 0x8, addend: 0x0, symName: __ZN5tokio7runtime4park16CachedParkThread8block_on17hab12fe3d86eebcd1E, symObjAddr: 0x2ABC, symBinAddr: 0x25B24, symSize: 0x34C }
  - { offset: 0x158E57, size: 0x8, addend: 0x0, symName: __ZN5tokio7runtime4park16CachedParkThread8block_on17hf25196d0d2e175aaE, symObjAddr: 0x2E08, symBinAddr: 0x25E70, symSize: 0x340 }
  - { offset: 0x158FE9, size: 0x8, addend: 0x0, symName: __ZN5tokio7runtime4park16CachedParkThread8block_on17hfb60518ba0276935E, symObjAddr: 0x3148, symBinAddr: 0x261B0, symSize: 0x33C }
  - { offset: 0x159323, size: 0x8, addend: 0x0, symName: __ZN4core5slice4sort6shared9smallsort11insert_tail17h55092f8bda10b6e3E, symObjAddr: 0x0, symBinAddr: 0x2692C, symSize: 0x1DC }
  - { offset: 0x159F3F, size: 0x8, addend: 0x0, symName: __ZN4core5slice4sort6shared9smallsort11insert_tail17h55092f8bda10b6e3E, symObjAddr: 0x0, symBinAddr: 0x2692C, symSize: 0x1DC }
  - { offset: 0x15A09A, size: 0x8, addend: 0x0, symName: __ZN4core5slice4sort6shared9smallsort12sort4_stable17h717b65e31dece2d7E, symObjAddr: 0x1DC, symBinAddr: 0x26B08, symSize: 0x5C4 }
  - { offset: 0x15AB15, size: 0x8, addend: 0x0, symName: __ZN4core5slice4sort6shared9smallsort19bidirectional_merge17h7d5e058c5f9743b4E, symObjAddr: 0x7A0, symBinAddr: 0x270CC, symSize: 0x59C }
  - { offset: 0x15B1A9, size: 0x8, addend: 0x0, symName: __ZN4core5slice4sort6shared9smallsort25insertion_sort_shift_left17h6a581fc7d798283eE, symObjAddr: 0xD3C, symBinAddr: 0x27668, symSize: 0xD0 }
  - { offset: 0x15B2E3, size: 0x8, addend: 0x0, symName: __ZN4core5slice4sort6shared9smallsort31small_sort_general_with_scratch17h3f8d7e86a4929144E, symObjAddr: 0xE0C, symBinAddr: 0x27738, symSize: 0x500 }
  - { offset: 0x15C32B, size: 0x8, addend: 0x0, symName: '__ZN3std6thread5local17LocalKey$LT$T$GT$4with17h0df9e4ff60a2038cE', symObjAddr: 0x0, symBinAddr: 0x27C38, symSize: 0x74 }
  - { offset: 0x16AEC8, size: 0x8, addend: 0x0, symName: '__ZN3std6thread5local17LocalKey$LT$T$GT$4with17h0df9e4ff60a2038cE', symObjAddr: 0x0, symBinAddr: 0x27C38, symSize: 0x74 }
  - { offset: 0x16B946, size: 0x8, addend: 0x0, symName: '__ZN3std6thread5local17LocalKey$LT$T$GT$4with17h2506d1f410273198E', symObjAddr: 0x74, symBinAddr: 0x27CAC, symSize: 0x6C }
  - { offset: 0x16B9B2, size: 0x8, addend: 0x0, symName: '__ZN3std6thread5local17LocalKey$LT$T$GT$4with17h2c3fe1172bc0a502E', symObjAddr: 0xE0, symBinAddr: 0x27D18, symSize: 0x74 }
  - { offset: 0x16BA1D, size: 0x8, addend: 0x0, symName: '__ZN3std6thread5local17LocalKey$LT$T$GT$4with17h2cde1e71adaea1b9E', symObjAddr: 0x154, symBinAddr: 0x27D8C, symSize: 0x74 }
  - { offset: 0x16C4A6, size: 0x8, addend: 0x0, symName: '__ZN3std6thread5local17LocalKey$LT$T$GT$4with17h2ed3a83c9cff8400E', symObjAddr: 0x1C8, symBinAddr: 0x27E00, symSize: 0x64 }
  - { offset: 0x16C512, size: 0x8, addend: 0x0, symName: '__ZN3std6thread5local17LocalKey$LT$T$GT$4with17h32d7f6abbaa9f273E', symObjAddr: 0x22C, symBinAddr: 0x27E64, symSize: 0x74 }
  - { offset: 0x16C613, size: 0x8, addend: 0x0, symName: '__ZN3std6thread5local17LocalKey$LT$T$GT$4with17h33731e3dcb5dbf02E', symObjAddr: 0x2A0, symBinAddr: 0x27ED8, symSize: 0x6C }
  - { offset: 0x16C67F, size: 0x8, addend: 0x0, symName: '__ZN3std6thread5local17LocalKey$LT$T$GT$4with17h3a4b12b872038812E', symObjAddr: 0x30C, symBinAddr: 0x27F44, symSize: 0x74 }
  - { offset: 0x16C6EA, size: 0x8, addend: 0x0, symName: '__ZN3std6thread5local17LocalKey$LT$T$GT$4with17h3d4a46918ba30c86E', symObjAddr: 0x380, symBinAddr: 0x27FB8, symSize: 0x74 }
  - { offset: 0x16C755, size: 0x8, addend: 0x0, symName: '__ZN3std6thread5local17LocalKey$LT$T$GT$4with17h41b642831ae012fbE', symObjAddr: 0x3F4, symBinAddr: 0x2802C, symSize: 0x74 }
  - { offset: 0x16C7C0, size: 0x8, addend: 0x0, symName: '__ZN3std6thread5local17LocalKey$LT$T$GT$4with17h429a529b33f183a6E', symObjAddr: 0x468, symBinAddr: 0x280A0, symSize: 0x74 }
  - { offset: 0x16C845, size: 0x8, addend: 0x0, symName: '__ZN3std6thread5local17LocalKey$LT$T$GT$4with17h60697c28042b4b46E', symObjAddr: 0x4DC, symBinAddr: 0x28114, symSize: 0x6C }
  - { offset: 0x16C8B1, size: 0x8, addend: 0x0, symName: '__ZN3std6thread5local17LocalKey$LT$T$GT$4with17h753dd2fea1e44d33E', symObjAddr: 0x548, symBinAddr: 0x28180, symSize: 0x74 }
  - { offset: 0x16C91C, size: 0x8, addend: 0x0, symName: '__ZN3std6thread5local17LocalKey$LT$T$GT$4with17h83ff785db2ad64e2E', symObjAddr: 0x5BC, symBinAddr: 0x281F4, symSize: 0x74 }
  - { offset: 0x16C987, size: 0x8, addend: 0x0, symName: '__ZN3std6thread5local17LocalKey$LT$T$GT$4with17h9b66b6ee0cb1074bE', symObjAddr: 0x630, symBinAddr: 0x28268, symSize: 0x74 }
  - { offset: 0x16C9F2, size: 0x8, addend: 0x0, symName: '__ZN3std6thread5local17LocalKey$LT$T$GT$4with17h9c31dc6a3166af72E', symObjAddr: 0x6A4, symBinAddr: 0x282DC, symSize: 0x74 }
  - { offset: 0x16CA5D, size: 0x8, addend: 0x0, symName: '__ZN3std6thread5local17LocalKey$LT$T$GT$4with17h9ec2982d16ceadffE', symObjAddr: 0x718, symBinAddr: 0x28350, symSize: 0x74 }
  - { offset: 0x16CAC8, size: 0x8, addend: 0x0, symName: '__ZN3std6thread5local17LocalKey$LT$T$GT$4with17ha78084564dcf8e3dE', symObjAddr: 0x78C, symBinAddr: 0x283C4, symSize: 0x74 }
  - { offset: 0x16CB5E, size: 0x8, addend: 0x0, symName: '__ZN3std6thread5local17LocalKey$LT$T$GT$4with17hb44a104c8d36099cE', symObjAddr: 0x800, symBinAddr: 0x28438, symSize: 0x6C }
  - { offset: 0x16CBD7, size: 0x8, addend: 0x0, symName: '__ZN3std6thread5local17LocalKey$LT$T$GT$4with17hc807071f77b8b8abE', symObjAddr: 0x86C, symBinAddr: 0x284A4, symSize: 0x6C }
  - { offset: 0x16CC50, size: 0x8, addend: 0x0, symName: '__ZN3std6thread5local17LocalKey$LT$T$GT$4with17hcad1f10ea4d5653fE', symObjAddr: 0x8D8, symBinAddr: 0x28510, symSize: 0x64 }
  - { offset: 0x16CCD6, size: 0x8, addend: 0x0, symName: '__ZN3std6thread5local17LocalKey$LT$T$GT$4with17hcee9586c076bc06fE', symObjAddr: 0x93C, symBinAddr: 0x28574, symSize: 0x6C }
  - { offset: 0x16CD42, size: 0x8, addend: 0x0, symName: '__ZN3std6thread5local17LocalKey$LT$T$GT$4with17hd54c8f0f12365c41E', symObjAddr: 0x9A8, symBinAddr: 0x285E0, symSize: 0x74 }
  - { offset: 0x16CDAD, size: 0x8, addend: 0x0, symName: '__ZN3std6thread5local17LocalKey$LT$T$GT$4with17hf645bd0067a7cccfE', symObjAddr: 0xA1C, symBinAddr: 0x28654, symSize: 0x74 }
  - { offset: 0x16CE73, size: 0x8, addend: 0x0, symName: '__ZN3std6thread5local17LocalKey$LT$T$GT$8try_with17h03f1c3c0d8acacceE', symObjAddr: 0xA90, symBinAddr: 0x286C8, symSize: 0xF0 }
  - { offset: 0x16CFE9, size: 0x8, addend: 0x0, symName: '__ZN3std6thread5local17LocalKey$LT$T$GT$8try_with17h047e4af8c0fe73e7E', symObjAddr: 0xB80, symBinAddr: 0x287B8, symSize: 0xF0 }
  - { offset: 0x16D15F, size: 0x8, addend: 0x0, symName: '__ZN3std6thread5local17LocalKey$LT$T$GT$8try_with17h0c03436b041c78b7E', symObjAddr: 0xC70, symBinAddr: 0x288A8, symSize: 0x128 }
  - { offset: 0x16D2DA, size: 0x8, addend: 0x0, symName: '__ZN3std6thread5local17LocalKey$LT$T$GT$8try_with17h0cecd61cb51dc498E', symObjAddr: 0xD98, symBinAddr: 0x289D0, symSize: 0x110 }
  - { offset: 0x16D450, size: 0x8, addend: 0x0, symName: '__ZN3std6thread5local17LocalKey$LT$T$GT$8try_with17h13182ea2a6bdea8fE', symObjAddr: 0xEA8, symBinAddr: 0x28AE0, symSize: 0xF0 }
  - { offset: 0x16D5C6, size: 0x8, addend: 0x0, symName: '__ZN3std6thread5local17LocalKey$LT$T$GT$8try_with17h14f219ce424856e8E', symObjAddr: 0xF98, symBinAddr: 0x28BD0, symSize: 0xF0 }
  - { offset: 0x16D73C, size: 0x8, addend: 0x0, symName: '__ZN3std6thread5local17LocalKey$LT$T$GT$8try_with17h157196a9ceb9d400E', symObjAddr: 0x1088, symBinAddr: 0x28CC0, symSize: 0xF0 }
  - { offset: 0x16D8B2, size: 0x8, addend: 0x0, symName: '__ZN3std6thread5local17LocalKey$LT$T$GT$8try_with17h1bc435c9f8973520E', symObjAddr: 0x1178, symBinAddr: 0x28DB0, symSize: 0xF8 }
  - { offset: 0x16DA29, size: 0x8, addend: 0x0, symName: '__ZN3std6thread5local17LocalKey$LT$T$GT$8try_with17h20b5fe5a547e79c7E', symObjAddr: 0x1270, symBinAddr: 0x28EA8, symSize: 0x114 }
  - { offset: 0x16DB9F, size: 0x8, addend: 0x0, symName: '__ZN3std6thread5local17LocalKey$LT$T$GT$8try_with17h227aa8d78ee4c1e7E', symObjAddr: 0x1384, symBinAddr: 0x28FBC, symSize: 0x128 }
  - { offset: 0x16DD1A, size: 0x8, addend: 0x0, symName: '__ZN3std6thread5local17LocalKey$LT$T$GT$8try_with17h27688452b4cd2cceE', symObjAddr: 0x14AC, symBinAddr: 0x290E4, symSize: 0xF0 }
  - { offset: 0x16DE90, size: 0x8, addend: 0x0, symName: '__ZN3std6thread5local17LocalKey$LT$T$GT$8try_with17h281b4391fe51bf8eE', symObjAddr: 0x159C, symBinAddr: 0x291D4, symSize: 0xF0 }
  - { offset: 0x16E006, size: 0x8, addend: 0x0, symName: '__ZN3std6thread5local17LocalKey$LT$T$GT$8try_with17h2b663173026ff40cE', symObjAddr: 0x168C, symBinAddr: 0x292C4, symSize: 0xF0 }
  - { offset: 0x16E17C, size: 0x8, addend: 0x0, symName: '__ZN3std6thread5local17LocalKey$LT$T$GT$8try_with17h2daa11f7273fb542E', symObjAddr: 0x177C, symBinAddr: 0x293B4, symSize: 0xF0 }
  - { offset: 0x16E2F2, size: 0x8, addend: 0x0, symName: '__ZN3std6thread5local17LocalKey$LT$T$GT$8try_with17h2e9c4112d6361049E', symObjAddr: 0x186C, symBinAddr: 0x294A4, symSize: 0xF8 }
  - { offset: 0x16E469, size: 0x8, addend: 0x0, symName: '__ZN3std6thread5local17LocalKey$LT$T$GT$8try_with17h30ee26e6b20c0626E', symObjAddr: 0x1964, symBinAddr: 0x2959C, symSize: 0xF0 }
  - { offset: 0x16E5DF, size: 0x8, addend: 0x0, symName: '__ZN3std6thread5local17LocalKey$LT$T$GT$8try_with17h40115ab38a61be43E', symObjAddr: 0x1A54, symBinAddr: 0x2968C, symSize: 0x114 }
  - { offset: 0x16E755, size: 0x8, addend: 0x0, symName: '__ZN3std6thread5local17LocalKey$LT$T$GT$8try_with17h414f4e3188cabed9E', symObjAddr: 0x1B68, symBinAddr: 0x297A0, symSize: 0xF0 }
  - { offset: 0x16E8CB, size: 0x8, addend: 0x0, symName: '__ZN3std6thread5local17LocalKey$LT$T$GT$8try_with17h43c14b815582f496E', symObjAddr: 0x1C58, symBinAddr: 0x29890, symSize: 0xF0 }
  - { offset: 0x16EA41, size: 0x8, addend: 0x0, symName: '__ZN3std6thread5local17LocalKey$LT$T$GT$8try_with17h49ac12453923a6f3E', symObjAddr: 0x1D48, symBinAddr: 0x29980, symSize: 0xF0 }
  - { offset: 0x16EBB7, size: 0x8, addend: 0x0, symName: '__ZN3std6thread5local17LocalKey$LT$T$GT$8try_with17h4cb10e78d18119b9E', symObjAddr: 0x1E38, symBinAddr: 0x29A70, symSize: 0xF0 }
  - { offset: 0x16ED2D, size: 0x8, addend: 0x0, symName: '__ZN3std6thread5local17LocalKey$LT$T$GT$8try_with17h4e18f65dd92273a6E', symObjAddr: 0x1F28, symBinAddr: 0x29B60, symSize: 0xF0 }
  - { offset: 0x16EEA3, size: 0x8, addend: 0x0, symName: '__ZN3std6thread5local17LocalKey$LT$T$GT$8try_with17h4efc701ea8ed1e67E', symObjAddr: 0x2018, symBinAddr: 0x29C50, symSize: 0xF0 }
  - { offset: 0x16F019, size: 0x8, addend: 0x0, symName: '__ZN3std6thread5local17LocalKey$LT$T$GT$8try_with17h52fb5f4b524218f1E', symObjAddr: 0x2108, symBinAddr: 0x29D40, symSize: 0xF0 }
  - { offset: 0x16F18F, size: 0x8, addend: 0x0, symName: '__ZN3std6thread5local17LocalKey$LT$T$GT$8try_with17h594408de46a1c397E', symObjAddr: 0x21F8, symBinAddr: 0x29E30, symSize: 0xF8 }
  - { offset: 0x16F306, size: 0x8, addend: 0x0, symName: '__ZN3std6thread5local17LocalKey$LT$T$GT$8try_with17h5aed0933d239b973E', symObjAddr: 0x22F0, symBinAddr: 0x29F28, symSize: 0xF8 }
  - { offset: 0x16F47D, size: 0x8, addend: 0x0, symName: '__ZN3std6thread5local17LocalKey$LT$T$GT$8try_with17h5d0890c44bff3993E', symObjAddr: 0x23E8, symBinAddr: 0x2A020, symSize: 0xF8 }
  - { offset: 0x16F5F4, size: 0x8, addend: 0x0, symName: '__ZN3std6thread5local17LocalKey$LT$T$GT$8try_with17h5eaf557ffc53c16aE', symObjAddr: 0x24E0, symBinAddr: 0x2A118, symSize: 0xF0 }
  - { offset: 0x16F76A, size: 0x8, addend: 0x0, symName: '__ZN3std6thread5local17LocalKey$LT$T$GT$8try_with17h60325f164c2cd022E', symObjAddr: 0x25D0, symBinAddr: 0x2A208, symSize: 0xF8 }
  - { offset: 0x16F8E1, size: 0x8, addend: 0x0, symName: '__ZN3std6thread5local17LocalKey$LT$T$GT$8try_with17h60fa52ae6ac85f15E', symObjAddr: 0x26C8, symBinAddr: 0x2A300, symSize: 0xF8 }
  - { offset: 0x16FA58, size: 0x8, addend: 0x0, symName: '__ZN3std6thread5local17LocalKey$LT$T$GT$8try_with17h631644b88b01a9d8E', symObjAddr: 0x27C0, symBinAddr: 0x2A3F8, symSize: 0xF0 }
  - { offset: 0x16FBCE, size: 0x8, addend: 0x0, symName: '__ZN3std6thread5local17LocalKey$LT$T$GT$8try_with17h6b80b53b4309723cE', symObjAddr: 0x28B0, symBinAddr: 0x2A4E8, symSize: 0xF0 }
  - { offset: 0x16FD44, size: 0x8, addend: 0x0, symName: '__ZN3std6thread5local17LocalKey$LT$T$GT$8try_with17h7743de1abaf7ca7fE', symObjAddr: 0x29A0, symBinAddr: 0x2A5D8, symSize: 0xF8 }
  - { offset: 0x16FEBB, size: 0x8, addend: 0x0, symName: '__ZN3std6thread5local17LocalKey$LT$T$GT$8try_with17h8aef83cca6ceddccE', symObjAddr: 0x2A98, symBinAddr: 0x2A6D0, symSize: 0xF8 }
  - { offset: 0x170032, size: 0x8, addend: 0x0, symName: '__ZN3std6thread5local17LocalKey$LT$T$GT$8try_with17h9999a1ac506538f5E', symObjAddr: 0x2B90, symBinAddr: 0x2A7C8, symSize: 0xF0 }
  - { offset: 0x1701A8, size: 0x8, addend: 0x0, symName: '__ZN3std6thread5local17LocalKey$LT$T$GT$8try_with17h9c6aa8f0489167d9E', symObjAddr: 0x2C80, symBinAddr: 0x2A8B8, symSize: 0xF0 }
  - { offset: 0x17031E, size: 0x8, addend: 0x0, symName: '__ZN3std6thread5local17LocalKey$LT$T$GT$8try_with17h9e278d027b279b3cE', symObjAddr: 0x2D70, symBinAddr: 0x2A9A8, symSize: 0xF8 }
  - { offset: 0x170495, size: 0x8, addend: 0x0, symName: '__ZN3std6thread5local17LocalKey$LT$T$GT$8try_with17ha7408498165437e6E', symObjAddr: 0x2E68, symBinAddr: 0x2AAA0, symSize: 0xF8 }
  - { offset: 0x17060C, size: 0x8, addend: 0x0, symName: '__ZN3std6thread5local17LocalKey$LT$T$GT$8try_with17hae44168f975aa674E', symObjAddr: 0x2F60, symBinAddr: 0x2AB98, symSize: 0xF0 }
  - { offset: 0x170782, size: 0x8, addend: 0x0, symName: '__ZN3std6thread5local17LocalKey$LT$T$GT$8try_with17hb956dfe1a21dcbc1E', symObjAddr: 0x3050, symBinAddr: 0x2AC88, symSize: 0xF0 }
  - { offset: 0x1708F8, size: 0x8, addend: 0x0, symName: '__ZN3std6thread5local17LocalKey$LT$T$GT$8try_with17hc0e60055cc24ad02E', symObjAddr: 0x3140, symBinAddr: 0x2AD78, symSize: 0xF0 }
  - { offset: 0x170A6E, size: 0x8, addend: 0x0, symName: '__ZN3std6thread5local17LocalKey$LT$T$GT$8try_with17hcad553b3b528a70cE', symObjAddr: 0x3230, symBinAddr: 0x2AE68, symSize: 0xF8 }
  - { offset: 0x170BE5, size: 0x8, addend: 0x0, symName: '__ZN3std6thread5local17LocalKey$LT$T$GT$8try_with17hcbad44f329b97ac2E', symObjAddr: 0x3328, symBinAddr: 0x2AF60, symSize: 0xF0 }
  - { offset: 0x170D5B, size: 0x8, addend: 0x0, symName: '__ZN3std6thread5local17LocalKey$LT$T$GT$8try_with17hcc9fd6db5b3ae96fE', symObjAddr: 0x3418, symBinAddr: 0x2B050, symSize: 0x110 }
  - { offset: 0x170ED1, size: 0x8, addend: 0x0, symName: '__ZN3std6thread5local17LocalKey$LT$T$GT$8try_with17hcf0282b226d84b99E', symObjAddr: 0x3528, symBinAddr: 0x2B160, symSize: 0x114 }
  - { offset: 0x171047, size: 0x8, addend: 0x0, symName: '__ZN3std6thread5local17LocalKey$LT$T$GT$8try_with17hcfa9a1ac5904aff5E', symObjAddr: 0x363C, symBinAddr: 0x2B274, symSize: 0xF0 }
  - { offset: 0x1711BD, size: 0x8, addend: 0x0, symName: '__ZN3std6thread5local17LocalKey$LT$T$GT$8try_with17hcfb4b0471064b9a4E', symObjAddr: 0x372C, symBinAddr: 0x2B364, symSize: 0xF0 }
  - { offset: 0x171333, size: 0x8, addend: 0x0, symName: '__ZN3std6thread5local17LocalKey$LT$T$GT$8try_with17hd53705aab280928dE', symObjAddr: 0x381C, symBinAddr: 0x2B454, symSize: 0xF0 }
  - { offset: 0x1714A9, size: 0x8, addend: 0x0, symName: '__ZN3std6thread5local17LocalKey$LT$T$GT$8try_with17hdcdb9612848b77f7E', symObjAddr: 0x390C, symBinAddr: 0x2B544, symSize: 0xF8 }
  - { offset: 0x171620, size: 0x8, addend: 0x0, symName: '__ZN3std6thread5local17LocalKey$LT$T$GT$8try_with17he0e0cf30e865d86aE', symObjAddr: 0x3A04, symBinAddr: 0x2B63C, symSize: 0xF0 }
  - { offset: 0x171796, size: 0x8, addend: 0x0, symName: '__ZN3std6thread5local17LocalKey$LT$T$GT$8try_with17hecb78b6cbd37ad7cE', symObjAddr: 0x3AF4, symBinAddr: 0x2B72C, symSize: 0xF8 }
  - { offset: 0x17190D, size: 0x8, addend: 0x0, symName: '__ZN3std6thread5local17LocalKey$LT$T$GT$8try_with17hed155c2dac8b9119E', symObjAddr: 0x3BEC, symBinAddr: 0x2B824, symSize: 0xF0 }
  - { offset: 0x171A83, size: 0x8, addend: 0x0, symName: '__ZN3std6thread5local17LocalKey$LT$T$GT$8try_with17hf00ecec397b49cf3E', symObjAddr: 0x3CDC, symBinAddr: 0x2B914, symSize: 0x114 }
  - { offset: 0x171BF9, size: 0x8, addend: 0x0, symName: '__ZN3std6thread5local17LocalKey$LT$T$GT$8try_with17hf5c1221467903b89E', symObjAddr: 0x3DF0, symBinAddr: 0x2BA28, symSize: 0xF8 }
  - { offset: 0x171D70, size: 0x8, addend: 0x0, symName: '__ZN3std6thread5local17LocalKey$LT$T$GT$8try_with17hf733e268a030983aE', symObjAddr: 0x3EE8, symBinAddr: 0x2BB20, symSize: 0xF8 }
  - { offset: 0x171EE7, size: 0x8, addend: 0x0, symName: '__ZN3std6thread5local17LocalKey$LT$T$GT$8try_with17hfab0015b43c7b39dE', symObjAddr: 0x3FE0, symBinAddr: 0x2BC18, symSize: 0xF0 }
  - { offset: 0x17203A, size: 0x8, addend: 0x0, symName: __ZN4pyo35impl_10trampoline11module_init17h2b15920241ed1658E, symObjAddr: 0x0, symBinAddr: 0x2BD08, symSize: 0x28 }
  - { offset: 0x173513, size: 0x8, addend: 0x0, symName: __ZN4pyo35impl_10trampoline11module_init17h2b15920241ed1658E, symObjAddr: 0x0, symBinAddr: 0x2BD08, symSize: 0x28 }
  - { offset: 0x17353F, size: 0x8, addend: 0x0, symName: __ZN4pyo35impl_10trampoline11richcmpfunc17he5f4ed0284316559E, symObjAddr: 0x28, symBinAddr: 0x2BD30, symSize: 0x50 }
  - { offset: 0x173595, size: 0x8, addend: 0x0, symName: __ZN4pyo35impl_10trampoline22fastcall_with_keywords17h8352faf86f9feb03E, symObjAddr: 0x78, symBinAddr: 0x2BD80, symSize: 0x5C }
  - { offset: 0x1735F9, size: 0x8, addend: 0x0, symName: __ZN4pyo35impl_10trampoline6noargs17h604bb5a0059b7024E, symObjAddr: 0xD4, symBinAddr: 0x2BDDC, symSize: 0x64 }
  - { offset: 0x173641, size: 0x8, addend: 0x0, symName: __ZN4pyo35impl_10trampoline7dealloc17hb0bdccd77f1ed149E, symObjAddr: 0x138, symBinAddr: 0x2BE40, symSize: 0x34 }
  - { offset: 0x173677, size: 0x8, addend: 0x0, symName: __ZN4pyo35impl_10trampoline7newfunc17hfa5c7aa67d438d41E, symObjAddr: 0x16C, symBinAddr: 0x2BE74, symSize: 0x50 }
  - { offset: 0x1736CD, size: 0x8, addend: 0x0, symName: __ZN4pyo35impl_10trampoline8reprfunc17h108793d1c482c15dE, symObjAddr: 0x1BC, symBinAddr: 0x2BEC4, symSize: 0x30 }
  - { offset: 0x173707, size: 0x8, addend: 0x0, symName: __ZN4pyo35impl_10trampoline9unaryfunc17hac33e472996447dfE, symObjAddr: 0x1EC, symBinAddr: 0x2BEF4, symSize: 0x30 }
  - { offset: 0x17413C, size: 0x8, addend: 0x0, symName: __ZN4pyo310conversion15IntoPyObjectExt11into_py_any17h0789165d598b9a22E, symObjAddr: 0x0, symBinAddr: 0x2BF24, symSize: 0x4C }
  - { offset: 0x175707, size: 0x8, addend: 0x0, symName: __ZN4pyo310conversion15IntoPyObjectExt11into_py_any17h0789165d598b9a22E, symObjAddr: 0x0, symBinAddr: 0x2BF24, symSize: 0x4C }
  - { offset: 0x175777, size: 0x8, addend: 0x0, symName: __ZN4pyo310conversion15IntoPyObjectExt22into_pyobject_or_pyerr17h748dffbfb21e87aeE, symObjAddr: 0x4C, symBinAddr: 0x2BF70, symSize: 0x44 }
  - { offset: 0x1757ED, size: 0x8, addend: 0x0, symName: '__ZN57_$LT$T$u20$as$u20$pyo3..conversion..FromPyObjectBound$GT$20from_py_object_bound17h48b7f49d9608cddeE', symObjAddr: 0x90, symBinAddr: 0x2BFB4, symSize: 0x34 }
  - { offset: 0x176283, size: 0x8, addend: 0x0, symName: '__ZN75_$LT$tokio..sync..oneshot..error..RecvError$u20$as$u20$core..fmt..Debug$GT$3fmt17h69e5ccfe0689af85E', symObjAddr: 0x0, symBinAddr: 0x2BFE8, symSize: 0x54 }
  - { offset: 0x1762B7, size: 0x8, addend: 0x0, symName: '__ZN75_$LT$tokio..sync..oneshot..error..RecvError$u20$as$u20$core..fmt..Debug$GT$3fmt17h69e5ccfe0689af85E', symObjAddr: 0x0, symBinAddr: 0x2BFE8, symSize: 0x54 }
  - { offset: 0x176492, size: 0x8, addend: 0x0, symName: '__ZN4pyo312pyclass_init27PyClassInitializer$LT$T$GT$19create_class_object17h6e95931d61507aa8E', symObjAddr: 0x0, symBinAddr: 0x2C03C, symSize: 0x8C }
  - { offset: 0x17C079, size: 0x8, addend: 0x0, symName: '__ZN96_$LT$pyo3..pyclass_init..PyClassInitializer$LT$T$GT$$u20$as$u20$core..convert..From$LT$T$GT$$GT$4from17h2d49c3a0f9c64975E', symObjAddr: 0xAB4, symBinAddr: 0x2CAF0, symSize: 0x1C }
  - { offset: 0x17C0AF, size: 0x8, addend: 0x0, symName: '__ZN96_$LT$pyo3..pyclass_init..PyClassInitializer$LT$T$GT$$u20$as$u20$core..convert..From$LT$T$GT$$GT$4from17hb2fa6f9ce4dbbd86E', symObjAddr: 0xAD0, symBinAddr: 0x2CB0C, symSize: 0x34 }
  - { offset: 0x17C0E4, size: 0x8, addend: 0x0, symName: '__ZN96_$LT$pyo3..pyclass_init..PyClassInitializer$LT$T$GT$$u20$as$u20$core..convert..From$LT$T$GT$$GT$4from17hfb9b287f0e61ffb6E', symObjAddr: 0xB04, symBinAddr: 0x2CB40, symSize: 0x28 }
  - { offset: 0x17D37E, size: 0x8, addend: 0x0, symName: '__ZN4pyo312pyclass_init27PyClassInitializer$LT$T$GT$19create_class_object17h6e95931d61507aa8E', symObjAddr: 0x0, symBinAddr: 0x2C03C, symSize: 0x8C }
  - { offset: 0x17F3CC, size: 0x8, addend: 0x0, symName: '__ZN4pyo312pyclass_init27PyClassInitializer$LT$T$GT$27create_class_object_of_type17h0ff9cab395187697E', symObjAddr: 0x8C, symBinAddr: 0x2C0C8, symSize: 0x2A4 }
  - { offset: 0x17F5AE, size: 0x8, addend: 0x0, symName: '__ZN4pyo312pyclass_init27PyClassInitializer$LT$T$GT$27create_class_object_of_type17hecebea05f1c9105cE', symObjAddr: 0x330, symBinAddr: 0x2C36C, symSize: 0x2F4 }
  - { offset: 0x17F7BE, size: 0x8, addend: 0x0, symName: '__ZN4pyo312pyclass_init27PyClassInitializer$LT$T$GT$27create_class_object_of_type17hf8ac0833f1eaa211E', symObjAddr: 0x624, symBinAddr: 0x2C660, symSize: 0x260 }
  - { offset: 0x17F950, size: 0x8, addend: 0x0, symName: '__ZN4pyo312pyclass_init27PyClassInitializer$LT$T$GT$3new17h7304dde1ac256c2dE', symObjAddr: 0x884, symBinAddr: 0x2C8C0, symSize: 0xE0 }
  - { offset: 0x17F98A, size: 0x8, addend: 0x0, symName: '__ZN4pyo312pyclass_init27PyClassInitializer$LT$T$GT$3new17hd97f912ae37fe0c7E', symObjAddr: 0x964, symBinAddr: 0x2C9A0, symSize: 0xA0 }
  - { offset: 0x17F9C3, size: 0x8, addend: 0x0, symName: '__ZN4pyo312pyclass_init27PyClassInitializer$LT$T$GT$3new17hff86282b4a790c28E', symObjAddr: 0xA04, symBinAddr: 0x2CA40, symSize: 0xB0 }
  - { offset: 0x17FA1A, size: 0x8, addend: 0x0, symName: '__ZN103_$LT$pyo3..instance..Bound$LT$pyo3..types..any..PyAny$GT$$u20$as$u20$pyo3..types..any..PyAnyMethods$GT$11call_method28_$u7b$$u7b$closure$u7d$$u7d$17h043f8861b1633925E', symObjAddr: 0x0, symBinAddr: 0x2CB68, symSize: 0x6C }
  - { offset: 0x180FCB, size: 0x8, addend: 0x0, symName: '__ZN103_$LT$pyo3..instance..Bound$LT$pyo3..types..any..PyAny$GT$$u20$as$u20$pyo3..types..any..PyAnyMethods$GT$11call_method28_$u7b$$u7b$closure$u7d$$u7d$17h043f8861b1633925E', symObjAddr: 0x0, symBinAddr: 0x2CB68, symSize: 0x6C }
  - { offset: 0x18102E, size: 0x8, addend: 0x0, symName: '__ZN103_$LT$pyo3..instance..Bound$LT$pyo3..types..any..PyAny$GT$$u20$as$u20$pyo3..types..any..PyAnyMethods$GT$11call_method28_$u7b$$u7b$closure$u7d$$u7d$17h5829ad1f2976a9afE', symObjAddr: 0x6C, symBinAddr: 0x2CBD4, symSize: 0x78 }
  - { offset: 0x181090, size: 0x8, addend: 0x0, symName: '__ZN103_$LT$pyo3..instance..Bound$LT$pyo3..types..any..PyAny$GT$$u20$as$u20$pyo3..types..any..PyAnyMethods$GT$11call_method28_$u7b$$u7b$closure$u7d$$u7d$17h7a9c17f4258c8e95E', symObjAddr: 0xE4, symBinAddr: 0x2CC4C, symSize: 0x6C }
  - { offset: 0x181167, size: 0x8, addend: 0x0, symName: __ZN4pyo311type_object10PyTypeInfo11type_object17h59d4a22cef74d6d7E, symObjAddr: 0x150, symBinAddr: 0x2CCB8, symSize: 0x30 }
  - { offset: 0x181C67, size: 0x8, addend: 0x0, symName: '__ZN81_$LT$effect_log_native..PyEffectKind$u20$as$u20$pyo3..type_object..PyTypeInfo$GT$15type_object_raw17hd5c62ab7dd571c2bE', symObjAddr: 0x0, symBinAddr: 0x2CCE8, symSize: 0x24 }
  - { offset: 0x181C90, size: 0x8, addend: 0x0, symName: '__ZN85_$LT$effect_log_native..PyEffectKind$u20$as$u20$pyo3..impl_..pyclass..PyClassImpl$GT$10items_iter15INTRINSIC_ITEMS17h1221a36481c9dba3E', symObjAddr: 0x5900, symBinAddr: 0x4612B0, symSize: 0x0 }
  - { offset: 0x181CA2, size: 0x8, addend: 0x0, symName: '__ZN85_$LT$effect_log_native..PyEffectKind$u20$as$u20$pyo3..impl_..pyclass..PyClassImpl$GT$10items_iter15INTRINSIC_ITEMS10trampoline17haa4ad84a45d7461eE', symObjAddr: 0x80, symBinAddr: 0x2CD68, symSize: 0x3C }
  - { offset: 0x181CCE, size: 0x8, addend: 0x0, symName: '__ZN85_$LT$effect_log_native..PyEffectKind$u20$as$u20$pyo3..impl_..pyclass..PyClassImpl$GT$10items_iter15INTRINSIC_ITEMS10trampoline17hed394dcfef61229eE', symObjAddr: 0xBC, symBinAddr: 0x2CDA4, symSize: 0x3C }
  - { offset: 0x181CFA, size: 0x8, addend: 0x0, symName: '__ZN85_$LT$effect_log_native..PyEffectKind$u20$as$u20$pyo3..impl_..pyclass..PyClassImpl$GT$10items_iter15INTRINSIC_ITEMS10trampoline17h8f2adc52ba63b0c8E', symObjAddr: 0xF8, symBinAddr: 0x2CDE0, symSize: 0x48 }
  - { offset: 0x181D56, size: 0x8, addend: 0x0, symName: '__ZN85_$LT$effect_log_native..PyEffectKind$u20$as$u20$pyo3..impl_..pyclass..PyClassImpl$GT$3doc3DOC17hfa3015f399630d49E', symObjAddr: 0x31678, symBinAddr: 0x482F60, symSize: 0x0 }
  - { offset: 0x181D76, size: 0x8, addend: 0x0, symName: '__ZN85_$LT$effect_log_native..PyEffectKind$u20$as$u20$pyo3..impl_..pyclass..PyClassImpl$GT$16lazy_type_object11TYPE_OBJECT17hb65b1c06b8a75766E', symObjAddr: 0x6158, symBinAddr: 0x47C688, symSize: 0x0 }
  - { offset: 0x181D84, size: 0x8, addend: 0x0, symName: '__ZN85_$LT$effect_log_native..PyEffectKind$u20$as$u20$pyo3..impl_..pyclass..PyClassImpl$GT$10items_iter17hb304a6bc5e2f327bE', symObjAddr: 0x44, symBinAddr: 0x2CD2C, symSize: 0x3C }
  - { offset: 0x181DBF, size: 0x8, addend: 0x0, symName: '__ZN85_$LT$effect_log_native..PyEffectKind$u20$as$u20$pyo3..impl_..pyclass..PyClassImpl$GT$3doc17haad025d281818011E', symObjAddr: 0x140, symBinAddr: 0x2CE28, symSize: 0x3C }
  - { offset: 0x181DF6, size: 0x8, addend: 0x0, symName: '__ZN85_$LT$effect_log_native..PyEffectKind$u20$as$u20$pyo3..impl_..pyclass..PyClassImpl$GT$16lazy_type_object17h9f9de248c6c7bfa3E', symObjAddr: 0x17C, symBinAddr: 0x2CE64, symSize: 0xC }
  - { offset: 0x181F64, size: 0x8, addend: 0x0, symName: '__ZN82_$LT$effect_log_native..PyToolDef$u20$as$u20$pyo3..impl_..pyclass..PyClassImpl$GT$10items_iter15INTRINSIC_ITEMS17hb5a996ded5e34875E', symObjAddr: 0x62E0, symBinAddr: 0x38D898, symSize: 0x0 }
  - { offset: 0x181F84, size: 0x8, addend: 0x0, symName: '__ZN82_$LT$effect_log_native..PyToolDef$u20$as$u20$pyo3..impl_..pyclass..PyClassImpl$GT$3doc3DOC17h305f566fd14119c0E', symObjAddr: 0x31698, symBinAddr: 0x482F80, symSize: 0x0 }
  - { offset: 0x181FA4, size: 0x8, addend: 0x0, symName: '__ZN82_$LT$effect_log_native..PyToolDef$u20$as$u20$pyo3..impl_..pyclass..PyClassImpl$GT$16lazy_type_object11TYPE_OBJECT17haf49e41472f756caE', symObjAddr: 0x61B0, symBinAddr: 0x47C6E0, symSize: 0x0 }
  - { offset: 0x181FB2, size: 0x8, addend: 0x0, symName: '__ZN82_$LT$effect_log_native..PyToolDef$u20$as$u20$pyo3..impl_..pyclass..PyClassImpl$GT$10items_iter17h5cf9c4183c790b7bE', symObjAddr: 0xD08, symBinAddr: 0x2D9F0, symSize: 0x38 }
  - { offset: 0x181FED, size: 0x8, addend: 0x0, symName: '__ZN82_$LT$effect_log_native..PyToolDef$u20$as$u20$pyo3..impl_..pyclass..PyClassImpl$GT$3doc17h6362693fd1f946bdE', symObjAddr: 0xD40, symBinAddr: 0x2DA28, symSize: 0x3C }
  - { offset: 0x182024, size: 0x8, addend: 0x0, symName: '__ZN82_$LT$effect_log_native..PyToolDef$u20$as$u20$pyo3..impl_..pyclass..PyClassImpl$GT$16lazy_type_object17hf2802fa1b07a9cfdE', symObjAddr: 0xD7C, symBinAddr: 0x2DA64, symSize: 0xC }
  - { offset: 0x1820DA, size: 0x8, addend: 0x0, symName: '__ZN17effect_log_native176_$LT$impl$u20$pyo3..impl_..pyclass..PyMethods$LT$effect_log_native..PyToolDef$GT$$u20$for$u20$pyo3..impl_..pyclass..PyClassImplCollector$LT$effect_log_native..PyToolDef$GT$$GT$10py_methods5ITEMS17hd4d00440add62a67E', symObjAddr: 0x5960, symBinAddr: 0x461310, symSize: 0x0 }
  - { offset: 0x1820EC, size: 0x8, addend: 0x0, symName: '__ZN17effect_log_native176_$LT$impl$u20$pyo3..impl_..pyclass..PyMethods$LT$effect_log_native..PyToolDef$GT$$u20$for$u20$pyo3..impl_..pyclass..PyClassImplCollector$LT$effect_log_native..PyToolDef$GT$$GT$10py_methods5ITEMS10trampoline17h48993fb5298fe3eaE', symObjAddr: 0xDC4, symBinAddr: 0x2DAAC, symSize: 0x4C }
  - { offset: 0x18214E, size: 0x8, addend: 0x0, symName: '__ZN84_$LT$effect_log_native..PyEffectLog$u20$as$u20$pyo3..impl_..pyclass..PyClassImpl$GT$10items_iter15INTRINSIC_ITEMS17h46c926ee171b6ce8E', symObjAddr: 0x6328, symBinAddr: 0x38D8E0, symSize: 0x0 }
  - { offset: 0x18216E, size: 0x8, addend: 0x0, symName: '__ZN84_$LT$effect_log_native..PyEffectLog$u20$as$u20$pyo3..impl_..pyclass..PyClassImpl$GT$3doc3DOC17h8c759dbff29d34a1E', symObjAddr: 0x316B8, symBinAddr: 0x482FA0, symSize: 0x0 }
  - { offset: 0x18218E, size: 0x8, addend: 0x0, symName: '__ZN84_$LT$effect_log_native..PyEffectLog$u20$as$u20$pyo3..impl_..pyclass..PyClassImpl$GT$16lazy_type_object11TYPE_OBJECT17h58064c8307f6518bE', symObjAddr: 0x6208, symBinAddr: 0x47C738, symSize: 0x0 }
  - { offset: 0x18219C, size: 0x8, addend: 0x0, symName: '__ZN84_$LT$effect_log_native..PyEffectLog$u20$as$u20$pyo3..impl_..pyclass..PyClassImpl$GT$10items_iter17hb11f3f534468e709E', symObjAddr: 0x146C, symBinAddr: 0x2E154, symSize: 0x38 }
  - { offset: 0x1821D7, size: 0x8, addend: 0x0, symName: '__ZN84_$LT$effect_log_native..PyEffectLog$u20$as$u20$pyo3..impl_..pyclass..PyClassImpl$GT$3doc17h9c768acfd472b1afE', symObjAddr: 0x14A4, symBinAddr: 0x2E18C, symSize: 0x3C }
  - { offset: 0x18220E, size: 0x8, addend: 0x0, symName: '__ZN84_$LT$effect_log_native..PyEffectLog$u20$as$u20$pyo3..impl_..pyclass..PyClassImpl$GT$16lazy_type_object17h519169dc8e38a7f9E', symObjAddr: 0x14E0, symBinAddr: 0x2E1C8, symSize: 0xC }
  - { offset: 0x182332, size: 0x8, addend: 0x0, symName: '__ZN17effect_log_native180_$LT$impl$u20$pyo3..impl_..pyclass..PyMethods$LT$effect_log_native..PyEffectLog$GT$$u20$for$u20$pyo3..impl_..pyclass..PyClassImplCollector$LT$effect_log_native..PyEffectLog$GT$$GT$10py_methods5ITEMS17h207af525122b263dE', symObjAddr: 0x5F30, symBinAddr: 0x4618E0, symSize: 0x0 }
  - { offset: 0x182344, size: 0x8, addend: 0x0, symName: '__ZN17effect_log_native180_$LT$impl$u20$pyo3..impl_..pyclass..PyMethods$LT$effect_log_native..PyEffectLog$GT$$u20$for$u20$pyo3..impl_..pyclass..PyClassImplCollector$LT$effect_log_native..PyEffectLog$GT$$GT$10py_methods5ITEMS10trampoline17hef658effbca53a34E', symObjAddr: 0x3CD8, symBinAddr: 0x309C0, symSize: 0x50 }
  - { offset: 0x18239A, size: 0x8, addend: 0x0, symName: '__ZN17effect_log_native180_$LT$impl$u20$pyo3..impl_..pyclass..PyMethods$LT$effect_log_native..PyEffectLog$GT$$u20$for$u20$pyo3..impl_..pyclass..PyClassImplCollector$LT$effect_log_native..PyEffectLog$GT$$GT$10py_methods5ITEMS10trampoline17h5a0fd06e6f888839E', symObjAddr: 0x3D28, symBinAddr: 0x30A10, symSize: 0x44 }
  - { offset: 0x1823D4, size: 0x8, addend: 0x0, symName: '__ZN17effect_log_native180_$LT$impl$u20$pyo3..impl_..pyclass..PyMethods$LT$effect_log_native..PyEffectLog$GT$$u20$for$u20$pyo3..impl_..pyclass..PyClassImplCollector$LT$effect_log_native..PyEffectLog$GT$$GT$10py_methods5ITEMS10trampoline17h5ce46aede83035faE', symObjAddr: 0x3D6C, symBinAddr: 0x30A54, symSize: 0x4C }
  - { offset: 0x182424, size: 0x8, addend: 0x0, symName: '__ZN81_$LT$effect_log_native..PyEffectKind$u20$as$u20$pyo3..type_object..PyTypeInfo$GT$15type_object_raw17hd5c62ab7dd571c2bE', symObjAddr: 0x0, symBinAddr: 0x2CCE8, symSize: 0x24 }
  - { offset: 0x182461, size: 0x8, addend: 0x0, symName: '__ZN82_$LT$effect_log_native..PyEffectKind$u20$as$u20$pyo3..conversion..IntoPyObject$GT$13into_pyobject17h3984b2ef41a38536E', symObjAddr: 0x24, symBinAddr: 0x2CD0C, symSize: 0x20 }
  - { offset: 0x1824AC, size: 0x8, addend: 0x0, symName: '__ZN70_$LT$effect_log_native..PyEffectKind$u20$as$u20$core..clone..Clone$GT$5clone17hee611706dced7ab2E', symObjAddr: 0xC98, symBinAddr: 0x2D980, symSize: 0x18 }
  - { offset: 0x1824DE, size: 0x8, addend: 0x0, symName: '__ZN72_$LT$effect_log_native..PyEffectKind$u20$as$u20$core..cmp..PartialEq$GT$2eq17he0010d59229e8e8dE', symObjAddr: 0xCB0, symBinAddr: 0x2D998, symSize: 0x34 }
  - { offset: 0x182558, size: 0x8, addend: 0x0, symName: '__ZN78_$LT$effect_log_native..PyToolDef$u20$as$u20$pyo3..type_object..PyTypeInfo$GT$15type_object_raw17ha0cbb1a333999458E', symObjAddr: 0xCE4, symBinAddr: 0x2D9CC, symSize: 0x24 }
  - { offset: 0x182595, size: 0x8, addend: 0x0, symName: '__ZN80_$LT$effect_log_native..PyEffectLog$u20$as$u20$pyo3..type_object..PyTypeInfo$GT$15type_object_raw17he3c7a8537f76ee95E', symObjAddr: 0x1448, symBinAddr: 0x2E130, symSize: 0x24 }
  - { offset: 0x1825CD, size: 0x8, addend: 0x0, symName: __ZN17effect_log_native17effect_log_native17h231e62f5435d0c20E, symObjAddr: 0x4C1C, symBinAddr: 0x31904, symSize: 0x14C }
  - { offset: 0x182662, size: 0x8, addend: 0x0, symName: '__ZN17effect_log_native63_$LT$impl$u20$effect_log_native..effect_log_native..MakeDef$GT$8make_def15__pyo3_pymodule17h30e3533caa51650eE', symObjAddr: 0x4D68, symBinAddr: 0x31A50, symSize: 0x38 }
  - { offset: 0x18C4D7, size: 0x8, addend: 0x0, symName: __ZN17effect_log_native12PyEffectKind21__pymethod_ReadOnly__17hddcf1e7e438348fcE, symObjAddr: 0x188, symBinAddr: 0x2CE70, symSize: 0x24 }
  - { offset: 0x18C504, size: 0x8, addend: 0x0, symName: __ZN17effect_log_native12PyEffectKind28__pymethod_IdempotentWrite__17h40d0579a3fd617b3E, symObjAddr: 0x1AC, symBinAddr: 0x2CE94, symSize: 0x28 }
  - { offset: 0x18C531, size: 0x8, addend: 0x0, symName: __ZN17effect_log_native12PyEffectKind26__pymethod_Compensatable__17hf3b2aedbfafd6882E, symObjAddr: 0x1D4, symBinAddr: 0x2CEBC, symSize: 0x28 }
  - { offset: 0x18C55E, size: 0x8, addend: 0x0, symName: __ZN17effect_log_native12PyEffectKind30__pymethod_IrreversibleWrite__17h08a45f943589459aE, symObjAddr: 0x1FC, symBinAddr: 0x2CEE4, symSize: 0x28 }
  - { offset: 0x18C58B, size: 0x8, addend: 0x0, symName: __ZN17effect_log_native12PyEffectKind26__pymethod_ReadThenWrite__17h18428330bae86fbaE, symObjAddr: 0x224, symBinAddr: 0x2CF0C, symSize: 0x28 }
  - { offset: 0x18C5B8, size: 0x8, addend: 0x0, symName: __ZN17effect_log_native12PyEffectKind39__pymethod___default___pyo3__repr______17hbc93041b26da9478E, symObjAddr: 0x24C, symBinAddr: 0x2CF34, symSize: 0x12C }
  - { offset: 0x18C66F, size: 0x8, addend: 0x0, symName: __ZN17effect_log_native12PyEffectKind38__pymethod___default___pyo3__int______17h7b9e840418943335E, symObjAddr: 0x378, symBinAddr: 0x2D060, symSize: 0x11C }
  - { offset: 0x18C725, size: 0x8, addend: 0x0, symName: __ZN17effect_log_native12PyEffectKind24__pymethod___richcmp____17h8d6079e776d3a58eE, symObjAddr: 0x494, symBinAddr: 0x2D17C, symSize: 0x300 }
  - { offset: 0x18C81F, size: 0x8, addend: 0x0, symName: __ZN17effect_log_native12PyEffectKind14__pyo3__repr__17hb01d1da4d67d12cfE, symObjAddr: 0x794, symBinAddr: 0x2D47C, symSize: 0xD8 }
  - { offset: 0x18C841, size: 0x8, addend: 0x0, symName: __ZN17effect_log_native12PyEffectKind13__pyo3__int__17h50539cc8c5378f30E, symObjAddr: 0x86C, symBinAddr: 0x2D554, symSize: 0x158 }
  - { offset: 0x18C870, size: 0x8, addend: 0x0, symName: __ZN17effect_log_native12PyEffectKind30__pyo3__generated____richcmp__17haf3f197afedb5e18E, symObjAddr: 0x9C4, symBinAddr: 0x2D6AC, symSize: 0x2D4 }
  - { offset: 0x18C935, size: 0x8, addend: 0x0, symName: __ZN17effect_log_native9PyToolDef3new17h2e6cffb02de20bbfE, symObjAddr: 0xD88, symBinAddr: 0x2DA70, symSize: 0x3C }
  - { offset: 0x18C981, size: 0x8, addend: 0x0, symName: __ZN17effect_log_native9PyToolDef20__pymethod___new____17h0c4acc0a7f435578E, symObjAddr: 0xE10, symBinAddr: 0x2DAF8, symSize: 0x638 }
  - { offset: 0x18CBC1, size: 0x8, addend: 0x0, symName: __ZN17effect_log_native11PyEffectLog3new17hd4fb8bfa36b25e9bE, symObjAddr: 0x14EC, symBinAddr: 0x2E1D4, symSize: 0x1024 }
  - { offset: 0x18CF16, size: 0x8, addend: 0x0, symName: __ZN17effect_log_native11PyEffectLog7execute17h93ca391d6969320eE, symObjAddr: 0x2510, symBinAddr: 0x2F1F8, symSize: 0x738 }
  - { offset: 0x18D17C, size: 0x8, addend: 0x0, symName: __ZN17effect_log_native11PyEffectLog7history17h934c65655e47937bE, symObjAddr: 0x2C48, symBinAddr: 0x2F930, symSize: 0x1090 }
  - { offset: 0x18D53F, size: 0x8, addend: 0x0, symName: __ZN17effect_log_native11PyEffectLog20__pymethod___new____17h17ae21673e95b43bE, symObjAddr: 0x3DB8, symBinAddr: 0x30AA0, symSize: 0x678 }
  - { offset: 0x18D780, size: 0x8, addend: 0x0, symName: __ZN17effect_log_native11PyEffectLog20__pymethod_execute__17h8b6be4adf5c37437E, symObjAddr: 0x4430, symBinAddr: 0x31118, symSize: 0x55C }
  - { offset: 0x18D967, size: 0x8, addend: 0x0, symName: __ZN17effect_log_native11PyEffectLog20__pymethod_history__17h365a67f34659469cE, symObjAddr: 0x498C, symBinAddr: 0x31674, symSize: 0x290 }
  - { offset: 0x18DC85, size: 0x8, addend: 0x0, symName: __ZN4core4iter6traits8iterator8Iterator3zip17h7a81ae08567bd4e9E, symObjAddr: 0x0, symBinAddr: 0x31A88, symSize: 0xB4 }
  - { offset: 0x18E55D, size: 0x8, addend: 0x0, symName: __ZN4core4iter6traits8iterator8Iterator3zip17h7a81ae08567bd4e9E, symObjAddr: 0x0, symBinAddr: 0x31A88, symSize: 0xB4 }
  - { offset: 0x18E5D3, size: 0x8, addend: 0x0, symName: __ZN4core4iter6traits8iterator8Iterator4take17h7304998f82a6da76E, symObjAddr: 0xB4, symBinAddr: 0x31B3C, symSize: 0x24 }
  - { offset: 0x18F708, size: 0x8, addend: 0x0, symName: '__ZN100_$LT$core..iter..adapters..take..Take$LT$I$GT$$u20$as$u20$core..iter..traits..iterator..Iterator$GT$4next17h2e1150a2e58ca749E', symObjAddr: 0x0, symBinAddr: 0x31B60, symSize: 0x58 }
  - { offset: 0x18FEDA, size: 0x8, addend: 0x0, symName: '__ZN100_$LT$core..iter..adapters..take..Take$LT$I$GT$$u20$as$u20$core..iter..traits..iterator..Iterator$GT$4next17h2e1150a2e58ca749E', symObjAddr: 0x0, symBinAddr: 0x31B60, symSize: 0x58 }
  - { offset: 0x18FF99, size: 0x8, addend: 0x0, symName: __ZN4core4iter6traits8iterator8Iterator9enumerate17he7e3409a21ace98dE, symObjAddr: 0x58, symBinAddr: 0x31BB8, symSize: 0x18 }
  - { offset: 0x18FFCA, size: 0x8, addend: 0x0, symName: __ZN4core4iter6traits8iterator8Iterator9enumerate17he7e3409a21ace98dE, symObjAddr: 0x58, symBinAddr: 0x31BB8, symSize: 0x18 }
  - { offset: 0x191072, size: 0x8, addend: 0x0, symName: '__ZN104_$LT$core..iter..adapters..copied..Copied$LT$I$GT$$u20$as$u20$core..iter..traits..iterator..Iterator$GT$4next17h6432594c6f7cd2d7E', symObjAddr: 0x0, symBinAddr: 0x31BD0, symSize: 0x5C }
  - { offset: 0x1922AE, size: 0x8, addend: 0x0, symName: '__ZN104_$LT$core..iter..adapters..copied..Copied$LT$I$GT$$u20$as$u20$core..iter..traits..iterator..Iterator$GT$4next17h6432594c6f7cd2d7E', symObjAddr: 0x0, symBinAddr: 0x31BD0, symSize: 0x5C }
  - { offset: 0x19234F, size: 0x8, addend: 0x0, symName: '__ZN63_$LT$I$u20$as$u20$core..iter..traits..collect..IntoIterator$GT$9into_iter17hc73f82428cd73d0eE', symObjAddr: 0x5C, symBinAddr: 0x31C2C, symSize: 0x1C }
  - { offset: 0x1929F7, size: 0x8, addend: 0x0, symName: __ZN5tokio7runtime9scheduler14current_thread13CurrentThread8block_on17h35428b92217dd57aE, symObjAddr: 0x0, symBinAddr: 0x31C48, symSize: 0xB8 }
  - { offset: 0x19941A, size: 0x8, addend: 0x0, symName: '__ZN5tokio7runtime9scheduler14current_thread13CurrentThread8block_on28_$u7b$$u7b$closure$u7d$$u7d$17h03d3e2384749b602E', symObjAddr: 0x624, symBinAddr: 0x3226C, symSize: 0x3A0 }
  - { offset: 0x199537, size: 0x8, addend: 0x0, symName: '__ZN5tokio7runtime9scheduler14current_thread13CurrentThread8block_on28_$u7b$$u7b$closure$u7d$$u7d$17h33fda6ced87aa9fcE', symObjAddr: 0x9C4, symBinAddr: 0x3260C, symSize: 0x3A4 }
  - { offset: 0x199654, size: 0x8, addend: 0x0, symName: '__ZN5tokio7runtime9scheduler14current_thread13CurrentThread8block_on28_$u7b$$u7b$closure$u7d$$u7d$17h381751913e343b22E', symObjAddr: 0xD68, symBinAddr: 0x329B0, symSize: 0x3AC }
  - { offset: 0x199771, size: 0x8, addend: 0x0, symName: '__ZN5tokio7runtime9scheduler14current_thread13CurrentThread8block_on28_$u7b$$u7b$closure$u7d$$u7d$17h6c7131d714e94262E', symObjAddr: 0x1114, symBinAddr: 0x32D5C, symSize: 0x3A0 }
  - { offset: 0x19988E, size: 0x8, addend: 0x0, symName: '__ZN5tokio7runtime9scheduler14current_thread13CurrentThread8block_on28_$u7b$$u7b$closure$u7d$$u7d$17h7ece8f8fc47d754fE', symObjAddr: 0x14B4, symBinAddr: 0x330FC, symSize: 0x3AC }
  - { offset: 0x1999AB, size: 0x8, addend: 0x0, symName: '__ZN5tokio7runtime9scheduler14current_thread13CurrentThread8block_on28_$u7b$$u7b$closure$u7d$$u7d$17ha09db27ad6d97849E', symObjAddr: 0x1860, symBinAddr: 0x334A8, symSize: 0x3AC }
  - { offset: 0x199AC8, size: 0x8, addend: 0x0, symName: '__ZN5tokio7runtime9scheduler14current_thread13CurrentThread8block_on28_$u7b$$u7b$closure$u7d$$u7d$17hd13cf9b6d4810c64E', symObjAddr: 0x1C0C, symBinAddr: 0x33854, symSize: 0x3A4 }
  - { offset: 0x199BE5, size: 0x8, addend: 0x0, symName: '__ZN5tokio7runtime9scheduler14current_thread13CurrentThread8block_on28_$u7b$$u7b$closure$u7d$$u7d$17hdc66534c011d466fE', symObjAddr: 0x1FB0, symBinAddr: 0x33BF8, symSize: 0x3AC }
  - { offset: 0x199D07, size: 0x8, addend: 0x0, symName: '__ZN5tokio7runtime9scheduler14current_thread13CurrentThread8block_on28_$u7b$$u7b$closure$u7d$$u7d$28_$u7b$$u7b$closure$u7d$$u7d$17h09a613bfdfab64deE', symObjAddr: 0x235C, symBinAddr: 0x33FA4, symSize: 0x12C }
  - { offset: 0x199DB0, size: 0x8, addend: 0x0, symName: '__ZN5tokio7runtime9scheduler14current_thread13CurrentThread8block_on28_$u7b$$u7b$closure$u7d$$u7d$28_$u7b$$u7b$closure$u7d$$u7d$17h23c5b9f59ba83b90E', symObjAddr: 0x2488, symBinAddr: 0x340D0, symSize: 0x150 }
  - { offset: 0x199E59, size: 0x8, addend: 0x0, symName: '__ZN5tokio7runtime9scheduler14current_thread13CurrentThread8block_on28_$u7b$$u7b$closure$u7d$$u7d$28_$u7b$$u7b$closure$u7d$$u7d$17h245bc8f618e8fc9dE', symObjAddr: 0x25D8, symBinAddr: 0x34220, symSize: 0x148 }
  - { offset: 0x199F02, size: 0x8, addend: 0x0, symName: '__ZN5tokio7runtime9scheduler14current_thread13CurrentThread8block_on28_$u7b$$u7b$closure$u7d$$u7d$28_$u7b$$u7b$closure$u7d$$u7d$17h43dd1f54c986d0ccE', symObjAddr: 0x2720, symBinAddr: 0x34368, symSize: 0x150 }
  - { offset: 0x199FAB, size: 0x8, addend: 0x0, symName: '__ZN5tokio7runtime9scheduler14current_thread13CurrentThread8block_on28_$u7b$$u7b$closure$u7d$$u7d$28_$u7b$$u7b$closure$u7d$$u7d$17h6e6faef00b9a1279E', symObjAddr: 0x2870, symBinAddr: 0x344B8, symSize: 0x12C }
  - { offset: 0x19A054, size: 0x8, addend: 0x0, symName: '__ZN5tokio7runtime9scheduler14current_thread13CurrentThread8block_on28_$u7b$$u7b$closure$u7d$$u7d$28_$u7b$$u7b$closure$u7d$$u7d$17h7e75c36c6e5c44beE', symObjAddr: 0x299C, symBinAddr: 0x345E4, symSize: 0x150 }
  - { offset: 0x19A0FD, size: 0x8, addend: 0x0, symName: '__ZN5tokio7runtime9scheduler14current_thread13CurrentThread8block_on28_$u7b$$u7b$closure$u7d$$u7d$28_$u7b$$u7b$closure$u7d$$u7d$17h924aed4406b2067eE', symObjAddr: 0x2AEC, symBinAddr: 0x34734, symSize: 0x150 }
  - { offset: 0x19A1A6, size: 0x8, addend: 0x0, symName: '__ZN5tokio7runtime9scheduler14current_thread13CurrentThread8block_on28_$u7b$$u7b$closure$u7d$$u7d$28_$u7b$$u7b$closure$u7d$$u7d$17hd1040e4a58d40f48E', symObjAddr: 0x2C3C, symBinAddr: 0x34884, symSize: 0x148 }
  - { offset: 0x19A9BB, size: 0x8, addend: 0x0, symName: '__ZN5tokio7runtime9scheduler14current_thread9CoreGuard8block_on28_$u7b$$u7b$closure$u7d$$u7d$28_$u7b$$u7b$closure$u7d$$u7d$28_$u7b$$u7b$closure$u7d$$u7d$17h0c96f541820ec56bE', symObjAddr: 0xDD34, symBinAddr: 0x3F97C, symSize: 0x44 }
  - { offset: 0x19AA25, size: 0x8, addend: 0x0, symName: '__ZN5tokio7runtime9scheduler14current_thread9CoreGuard8block_on28_$u7b$$u7b$closure$u7d$$u7d$28_$u7b$$u7b$closure$u7d$$u7d$28_$u7b$$u7b$closure$u7d$$u7d$17h5d6e5c4464105600E', symObjAddr: 0xDD78, symBinAddr: 0x3F9C0, symSize: 0x44 }
  - { offset: 0x19AA8F, size: 0x8, addend: 0x0, symName: '__ZN5tokio7runtime9scheduler14current_thread9CoreGuard8block_on28_$u7b$$u7b$closure$u7d$$u7d$28_$u7b$$u7b$closure$u7d$$u7d$28_$u7b$$u7b$closure$u7d$$u7d$17h635810bb31df6e12E', symObjAddr: 0xDDBC, symBinAddr: 0x3FA04, symSize: 0x44 }
  - { offset: 0x19AAF9, size: 0x8, addend: 0x0, symName: '__ZN5tokio7runtime9scheduler14current_thread9CoreGuard8block_on28_$u7b$$u7b$closure$u7d$$u7d$28_$u7b$$u7b$closure$u7d$$u7d$28_$u7b$$u7b$closure$u7d$$u7d$17h643f6f6c71e379fcE', symObjAddr: 0xDE00, symBinAddr: 0x3FA48, symSize: 0x44 }
  - { offset: 0x19AB63, size: 0x8, addend: 0x0, symName: '__ZN5tokio7runtime9scheduler14current_thread9CoreGuard8block_on28_$u7b$$u7b$closure$u7d$$u7d$28_$u7b$$u7b$closure$u7d$$u7d$28_$u7b$$u7b$closure$u7d$$u7d$17h70a3fa18d83c866dE', symObjAddr: 0xDE44, symBinAddr: 0x3FA8C, symSize: 0x44 }
  - { offset: 0x19ABCD, size: 0x8, addend: 0x0, symName: '__ZN5tokio7runtime9scheduler14current_thread9CoreGuard8block_on28_$u7b$$u7b$closure$u7d$$u7d$28_$u7b$$u7b$closure$u7d$$u7d$28_$u7b$$u7b$closure$u7d$$u7d$17h76d0fc388efd1547E', symObjAddr: 0xDE88, symBinAddr: 0x3FAD0, symSize: 0x44 }
  - { offset: 0x19AC37, size: 0x8, addend: 0x0, symName: '__ZN5tokio7runtime9scheduler14current_thread9CoreGuard8block_on28_$u7b$$u7b$closure$u7d$$u7d$28_$u7b$$u7b$closure$u7d$$u7d$28_$u7b$$u7b$closure$u7d$$u7d$17h8665974717ea8d37E', symObjAddr: 0xDECC, symBinAddr: 0x3FB14, symSize: 0x44 }
  - { offset: 0x19ACA1, size: 0x8, addend: 0x0, symName: '__ZN5tokio7runtime9scheduler14current_thread9CoreGuard8block_on28_$u7b$$u7b$closure$u7d$$u7d$28_$u7b$$u7b$closure$u7d$$u7d$28_$u7b$$u7b$closure$u7d$$u7d$17h9ff07ad6538e35adE', symObjAddr: 0xDF10, symBinAddr: 0x3FB58, symSize: 0x44 }
  - { offset: 0x19AD0C, size: 0x8, addend: 0x0, symName: '__ZN5tokio7runtime9scheduler14current_thread9CoreGuard8block_on28_$u7b$$u7b$closure$u7d$$u7d$28_$u7b$$u7b$closure$u7d$$u7d$17h14f01b6bcc0ca6deE', symObjAddr: 0xD134, symBinAddr: 0x3ED7C, symSize: 0x15C }
  - { offset: 0x19ADB4, size: 0x8, addend: 0x0, symName: '__ZN5tokio7runtime9scheduler14current_thread9CoreGuard8block_on28_$u7b$$u7b$closure$u7d$$u7d$28_$u7b$$u7b$closure$u7d$$u7d$17h35fb23da44be0ce7E', symObjAddr: 0xD290, symBinAddr: 0x3EED8, symSize: 0x15C }
  - { offset: 0x19AE5C, size: 0x8, addend: 0x0, symName: '__ZN5tokio7runtime9scheduler14current_thread9CoreGuard8block_on28_$u7b$$u7b$closure$u7d$$u7d$28_$u7b$$u7b$closure$u7d$$u7d$17h387e0cd936c33dd2E', symObjAddr: 0xD3EC, symBinAddr: 0x3F034, symSize: 0x24 }
  - { offset: 0x19AE90, size: 0x8, addend: 0x0, symName: '__ZN5tokio7runtime9scheduler14current_thread9CoreGuard8block_on28_$u7b$$u7b$closure$u7d$$u7d$28_$u7b$$u7b$closure$u7d$$u7d$17h42b2ad765170d6dcE', symObjAddr: 0xD410, symBinAddr: 0x3F058, symSize: 0x24 }
  - { offset: 0x19AEC4, size: 0x8, addend: 0x0, symName: '__ZN5tokio7runtime9scheduler14current_thread9CoreGuard8block_on28_$u7b$$u7b$closure$u7d$$u7d$28_$u7b$$u7b$closure$u7d$$u7d$17h598fe1ce3e3d8333E', symObjAddr: 0xD434, symBinAddr: 0x3F07C, symSize: 0x15C }
  - { offset: 0x19AF6C, size: 0x8, addend: 0x0, symName: '__ZN5tokio7runtime9scheduler14current_thread9CoreGuard8block_on28_$u7b$$u7b$closure$u7d$$u7d$28_$u7b$$u7b$closure$u7d$$u7d$17h64dc5371d5d65492E', symObjAddr: 0xD590, symBinAddr: 0x3F1D8, symSize: 0x15C }
  - { offset: 0x19B014, size: 0x8, addend: 0x0, symName: '__ZN5tokio7runtime9scheduler14current_thread9CoreGuard8block_on28_$u7b$$u7b$closure$u7d$$u7d$28_$u7b$$u7b$closure$u7d$$u7d$17h6c6b5bb5981cd517E', symObjAddr: 0xD6EC, symBinAddr: 0x3F334, symSize: 0x24 }
  - { offset: 0x19B048, size: 0x8, addend: 0x0, symName: '__ZN5tokio7runtime9scheduler14current_thread9CoreGuard8block_on28_$u7b$$u7b$closure$u7d$$u7d$28_$u7b$$u7b$closure$u7d$$u7d$17h7a35ac9cecbf645eE', symObjAddr: 0xD710, symBinAddr: 0x3F358, symSize: 0x24 }
  - { offset: 0x19B07C, size: 0x8, addend: 0x0, symName: '__ZN5tokio7runtime9scheduler14current_thread9CoreGuard8block_on28_$u7b$$u7b$closure$u7d$$u7d$28_$u7b$$u7b$closure$u7d$$u7d$17hae876870f0dc1543E', symObjAddr: 0xD734, symBinAddr: 0x3F37C, symSize: 0x15C }
  - { offset: 0x19B124, size: 0x8, addend: 0x0, symName: '__ZN5tokio7runtime9scheduler14current_thread9CoreGuard8block_on28_$u7b$$u7b$closure$u7d$$u7d$28_$u7b$$u7b$closure$u7d$$u7d$17hb0a57dd9b33d70feE', symObjAddr: 0xD890, symBinAddr: 0x3F4D8, symSize: 0x24 }
  - { offset: 0x19B158, size: 0x8, addend: 0x0, symName: '__ZN5tokio7runtime9scheduler14current_thread9CoreGuard8block_on28_$u7b$$u7b$closure$u7d$$u7d$28_$u7b$$u7b$closure$u7d$$u7d$17hb9f650655655b7e5E', symObjAddr: 0xD8B4, symBinAddr: 0x3F4FC, symSize: 0x15C }
  - { offset: 0x19B200, size: 0x8, addend: 0x0, symName: '__ZN5tokio7runtime9scheduler14current_thread9CoreGuard8block_on28_$u7b$$u7b$closure$u7d$$u7d$28_$u7b$$u7b$closure$u7d$$u7d$17hc52810c8c7d38d9aE', symObjAddr: 0xDA10, symBinAddr: 0x3F658, symSize: 0x15C }
  - { offset: 0x19B2A8, size: 0x8, addend: 0x0, symName: '__ZN5tokio7runtime9scheduler14current_thread9CoreGuard8block_on28_$u7b$$u7b$closure$u7d$$u7d$28_$u7b$$u7b$closure$u7d$$u7d$17hc6c653c578f1618bE', symObjAddr: 0xDB6C, symBinAddr: 0x3F7B4, symSize: 0x24 }
  - { offset: 0x19B2DC, size: 0x8, addend: 0x0, symName: '__ZN5tokio7runtime9scheduler14current_thread9CoreGuard8block_on28_$u7b$$u7b$closure$u7d$$u7d$28_$u7b$$u7b$closure$u7d$$u7d$17hee322b3f9c3d8f1fE', symObjAddr: 0xDB90, symBinAddr: 0x3F7D8, symSize: 0x24 }
  - { offset: 0x19B310, size: 0x8, addend: 0x0, symName: '__ZN5tokio7runtime9scheduler14current_thread9CoreGuard8block_on28_$u7b$$u7b$closure$u7d$$u7d$28_$u7b$$u7b$closure$u7d$$u7d$17hef5aeac119889d7dE', symObjAddr: 0xDBB4, symBinAddr: 0x3F7FC, symSize: 0x24 }
  - { offset: 0x19B344, size: 0x8, addend: 0x0, symName: '__ZN5tokio7runtime9scheduler14current_thread9CoreGuard8block_on28_$u7b$$u7b$closure$u7d$$u7d$28_$u7b$$u7b$closure$u7d$$u7d$17hfbb48543993febeeE', symObjAddr: 0xDBD8, symBinAddr: 0x3F820, symSize: 0x15C }
  - { offset: 0x19B485, size: 0x8, addend: 0x0, symName: '__ZN5tokio7runtime9scheduler14current_thread9CoreGuard8block_on28_$u7b$$u7b$closure$u7d$$u7d$17h139d1eae1703d601E', symObjAddr: 0x888C, symBinAddr: 0x3A4D4, symSize: 0x920 }
  - { offset: 0x19B649, size: 0x8, addend: 0x0, symName: '__ZN5tokio7runtime9scheduler14current_thread9CoreGuard8block_on28_$u7b$$u7b$closure$u7d$$u7d$17h14261fa7dfdf563cE', symObjAddr: 0x91AC, symBinAddr: 0x3ADF4, symSize: 0x91C }
  - { offset: 0x19B80D, size: 0x8, addend: 0x0, symName: '__ZN5tokio7runtime9scheduler14current_thread9CoreGuard8block_on28_$u7b$$u7b$closure$u7d$$u7d$17h2b567fa9e6266e88E', symObjAddr: 0x9AC8, symBinAddr: 0x3B710, symSize: 0x920 }
  - { offset: 0x19B9D1, size: 0x8, addend: 0x0, symName: '__ZN5tokio7runtime9scheduler14current_thread9CoreGuard8block_on28_$u7b$$u7b$closure$u7d$$u7d$17h5453ccd5b68b063fE', symObjAddr: 0xA3E8, symBinAddr: 0x3C030, symSize: 0x920 }
  - { offset: 0x19BB95, size: 0x8, addend: 0x0, symName: '__ZN5tokio7runtime9scheduler14current_thread9CoreGuard8block_on28_$u7b$$u7b$closure$u7d$$u7d$17h6f0fc687a3593f4eE', symObjAddr: 0xAD08, symBinAddr: 0x3C950, symSize: 0x8F8 }
  - { offset: 0x19BD59, size: 0x8, addend: 0x0, symName: '__ZN5tokio7runtime9scheduler14current_thread9CoreGuard8block_on28_$u7b$$u7b$closure$u7d$$u7d$17h98c42ed319c76197E', symObjAddr: 0xB600, symBinAddr: 0x3D248, symSize: 0x91C }
  - { offset: 0x19BF1D, size: 0x8, addend: 0x0, symName: '__ZN5tokio7runtime9scheduler14current_thread9CoreGuard8block_on28_$u7b$$u7b$closure$u7d$$u7d$17hafbafdd98643014eE', symObjAddr: 0xBF1C, symBinAddr: 0x3DB64, symSize: 0x920 }
  - { offset: 0x19C0E1, size: 0x8, addend: 0x0, symName: '__ZN5tokio7runtime9scheduler14current_thread9CoreGuard8block_on28_$u7b$$u7b$closure$u7d$$u7d$17hcf9a746a572b44bfE', symObjAddr: 0xC83C, symBinAddr: 0x3E484, symSize: 0x8F8 }
  - { offset: 0x19C2AB, size: 0x8, addend: 0x0, symName: '__ZN5tokio7runtime9scheduler14current_thread9CoreGuard5enter28_$u7b$$u7b$closure$u7d$$u7d$17h1c1a7a50450bb27eE', symObjAddr: 0x8384, symBinAddr: 0x39FCC, symSize: 0x24 }
  - { offset: 0x19C30F, size: 0x8, addend: 0x0, symName: '__ZN5tokio7runtime9scheduler14current_thread9CoreGuard5enter28_$u7b$$u7b$closure$u7d$$u7d$17h4bc348c14ae3a4d0E', symObjAddr: 0x83A8, symBinAddr: 0x39FF0, symSize: 0x24 }
  - { offset: 0x19C373, size: 0x8, addend: 0x0, symName: '__ZN5tokio7runtime9scheduler14current_thread9CoreGuard5enter28_$u7b$$u7b$closure$u7d$$u7d$17h6b8225f37b99c24fE', symObjAddr: 0x83CC, symBinAddr: 0x3A014, symSize: 0x24 }
  - { offset: 0x19C3D7, size: 0x8, addend: 0x0, symName: '__ZN5tokio7runtime9scheduler14current_thread9CoreGuard5enter28_$u7b$$u7b$closure$u7d$$u7d$17h727c6a46297aac7dE', symObjAddr: 0x83F0, symBinAddr: 0x3A038, symSize: 0x24 }
  - { offset: 0x19C43B, size: 0x8, addend: 0x0, symName: '__ZN5tokio7runtime9scheduler14current_thread9CoreGuard5enter28_$u7b$$u7b$closure$u7d$$u7d$17h74960fa56f5dcc61E', symObjAddr: 0x8414, symBinAddr: 0x3A05C, symSize: 0x24 }
  - { offset: 0x19C49F, size: 0x8, addend: 0x0, symName: '__ZN5tokio7runtime9scheduler14current_thread9CoreGuard5enter28_$u7b$$u7b$closure$u7d$$u7d$17h7599bfbdf2a73628E', symObjAddr: 0x8438, symBinAddr: 0x3A080, symSize: 0x24 }
  - { offset: 0x19C503, size: 0x8, addend: 0x0, symName: '__ZN5tokio7runtime9scheduler14current_thread9CoreGuard5enter28_$u7b$$u7b$closure$u7d$$u7d$17hddf95931a3684493E', symObjAddr: 0x845C, symBinAddr: 0x3A0A4, symSize: 0x24 }
  - { offset: 0x19C567, size: 0x8, addend: 0x0, symName: '__ZN5tokio7runtime9scheduler14current_thread9CoreGuard5enter28_$u7b$$u7b$closure$u7d$$u7d$17he453f2ee94bbf44cE', symObjAddr: 0x8480, symBinAddr: 0x3A0C8, symSize: 0x24 }
  - { offset: 0x19C66F, size: 0x8, addend: 0x0, symName: '__ZN5tokio7runtime9scheduler14current_thread7Context8run_task28_$u7b$$u7b$closure$u7d$$u7d$17h0a1ef1d9efad990eE', symObjAddr: 0x607C, symBinAddr: 0x37CC4, symSize: 0x148 }
  - { offset: 0x19C705, size: 0x8, addend: 0x0, symName: '__ZN5tokio7runtime9scheduler14current_thread7Context8run_task28_$u7b$$u7b$closure$u7d$$u7d$17h1e6750a32281f46eE', symObjAddr: 0x61C4, symBinAddr: 0x37E0C, symSize: 0x148 }
  - { offset: 0x19C79B, size: 0x8, addend: 0x0, symName: '__ZN5tokio7runtime9scheduler14current_thread7Context8run_task28_$u7b$$u7b$closure$u7d$$u7d$17h5b6b4f3c9164ad9dE', symObjAddr: 0x630C, symBinAddr: 0x37F54, symSize: 0x148 }
  - { offset: 0x19C831, size: 0x8, addend: 0x0, symName: '__ZN5tokio7runtime9scheduler14current_thread7Context8run_task28_$u7b$$u7b$closure$u7d$$u7d$17h622483b765f09363E', symObjAddr: 0x6454, symBinAddr: 0x3809C, symSize: 0x148 }
  - { offset: 0x19C8C7, size: 0x8, addend: 0x0, symName: '__ZN5tokio7runtime9scheduler14current_thread7Context8run_task28_$u7b$$u7b$closure$u7d$$u7d$17h8a42093095371d96E', symObjAddr: 0x659C, symBinAddr: 0x381E4, symSize: 0x148 }
  - { offset: 0x19C95D, size: 0x8, addend: 0x0, symName: '__ZN5tokio7runtime9scheduler14current_thread7Context8run_task28_$u7b$$u7b$closure$u7d$$u7d$17ha5d5f631dbf7898dE', symObjAddr: 0x66E4, symBinAddr: 0x3832C, symSize: 0x148 }
  - { offset: 0x19C9F3, size: 0x8, addend: 0x0, symName: '__ZN5tokio7runtime9scheduler14current_thread7Context8run_task28_$u7b$$u7b$closure$u7d$$u7d$17hb75331d58e77cd79E', symObjAddr: 0x682C, symBinAddr: 0x38474, symSize: 0x148 }
  - { offset: 0x19CA89, size: 0x8, addend: 0x0, symName: '__ZN5tokio7runtime9scheduler14current_thread7Context8run_task28_$u7b$$u7b$closure$u7d$$u7d$17hd5d9f17974f99455E', symObjAddr: 0x6974, symBinAddr: 0x385BC, symSize: 0x148 }
  - { offset: 0x1A1E46, size: 0x8, addend: 0x0, symName: __ZN5tokio7runtime9scheduler14current_thread13CurrentThread8block_on17h35428b92217dd57aE, symObjAddr: 0x0, symBinAddr: 0x31C48, symSize: 0xB8 }
  - { offset: 0x1A1F05, size: 0x8, addend: 0x0, symName: __ZN5tokio7runtime9scheduler14current_thread13CurrentThread8block_on17h4d9699cfcbd20ec8E, symObjAddr: 0xB8, symBinAddr: 0x31D00, symSize: 0xD0 }
  - { offset: 0x1A20EC, size: 0x8, addend: 0x0, symName: __ZN5tokio7runtime9scheduler14current_thread13CurrentThread8block_on17h5c0db55a6459baeeE, symObjAddr: 0x188, symBinAddr: 0x31DD0, symSize: 0xD4 }
  - { offset: 0x1A2B9F, size: 0x8, addend: 0x0, symName: __ZN5tokio7runtime9scheduler14current_thread13CurrentThread8block_on17h5e1dcaf7cdad145eE, symObjAddr: 0x25C, symBinAddr: 0x31EA4, symSize: 0xB8 }
  - { offset: 0x1A2C6B, size: 0x8, addend: 0x0, symName: __ZN5tokio7runtime9scheduler14current_thread13CurrentThread8block_on17ha1cb1d30a591bfdcE, symObjAddr: 0x314, symBinAddr: 0x31F5C, symSize: 0xB8 }
  - { offset: 0x1A2D2A, size: 0x8, addend: 0x0, symName: __ZN5tokio7runtime9scheduler14current_thread13CurrentThread8block_on17hb621ed945b279326E, symObjAddr: 0x3CC, symBinAddr: 0x32014, symSize: 0xD0 }
  - { offset: 0x1A2DF7, size: 0x8, addend: 0x0, symName: __ZN5tokio7runtime9scheduler14current_thread13CurrentThread8block_on17hc05a880d26d56720E, symObjAddr: 0x49C, symBinAddr: 0x320E4, symSize: 0xB8 }
  - { offset: 0x1A2EB6, size: 0x8, addend: 0x0, symName: __ZN5tokio7runtime9scheduler14current_thread13CurrentThread8block_on17hc4b1ba43767a6e04E, symObjAddr: 0x554, symBinAddr: 0x3219C, symSize: 0xD0 }
  - { offset: 0x1A3139, size: 0x8, addend: 0x0, symName: __ZN5tokio7runtime9scheduler14current_thread7Context5enter17h03ea90942c3342edE, symObjAddr: 0x2D84, symBinAddr: 0x349CC, symSize: 0x29C }
  - { offset: 0x1A31E0, size: 0x8, addend: 0x0, symName: __ZN5tokio7runtime9scheduler14current_thread7Context5enter17h0b8ab27271521e14E, symObjAddr: 0x3020, symBinAddr: 0x34C68, symSize: 0x240 }
  - { offset: 0x1A3294, size: 0x8, addend: 0x0, symName: __ZN5tokio7runtime9scheduler14current_thread7Context5enter17h24984cc423d2f0d9E, symObjAddr: 0x3260, symBinAddr: 0x34EA8, symSize: 0x29C }
  - { offset: 0x1A332A, size: 0x8, addend: 0x0, symName: __ZN5tokio7runtime9scheduler14current_thread7Context5enter17h2d53d801380b83eaE, symObjAddr: 0x34FC, symBinAddr: 0x35144, symSize: 0x29C }
  - { offset: 0x1A33DE, size: 0x8, addend: 0x0, symName: __ZN5tokio7runtime9scheduler14current_thread7Context5enter17h4c50d85a2e3cee5cE, symObjAddr: 0x3798, symBinAddr: 0x353E0, symSize: 0x288 }
  - { offset: 0x1A3467, size: 0x8, addend: 0x0, symName: __ZN5tokio7runtime9scheduler14current_thread7Context5enter17h588743d84ea041c6E, symObjAddr: 0x3A20, symBinAddr: 0x35668, symSize: 0x240 }
  - { offset: 0x1A34F0, size: 0x8, addend: 0x0, symName: __ZN5tokio7runtime9scheduler14current_thread7Context5enter17h591ba4094ef5d0e6E, symObjAddr: 0x3C60, symBinAddr: 0x358A8, symSize: 0x240 }
  - { offset: 0x1A3586, size: 0x8, addend: 0x0, symName: __ZN5tokio7runtime9scheduler14current_thread7Context5enter17h792164f0ca7973f1E, symObjAddr: 0x3EA0, symBinAddr: 0x35AE8, symSize: 0x288 }
  - { offset: 0x1A360F, size: 0x8, addend: 0x0, symName: __ZN5tokio7runtime9scheduler14current_thread7Context5enter17h7fcb6d36252e2a3bE, symObjAddr: 0x4128, symBinAddr: 0x35D70, symSize: 0x240 }
  - { offset: 0x1A36C3, size: 0x8, addend: 0x0, symName: __ZN5tokio7runtime9scheduler14current_thread7Context5enter17h8af03400593cd16fE, symObjAddr: 0x4368, symBinAddr: 0x35FB0, symSize: 0x29C }
  - { offset: 0x1A374C, size: 0x8, addend: 0x0, symName: __ZN5tokio7runtime9scheduler14current_thread7Context5enter17hb85f60c48e2dc64cE, symObjAddr: 0x4604, symBinAddr: 0x3624C, symSize: 0x240 }
  - { offset: 0x1A37D5, size: 0x8, addend: 0x0, symName: __ZN5tokio7runtime9scheduler14current_thread7Context5enter17hbce7162c2f269695E, symObjAddr: 0x4844, symBinAddr: 0x3648C, symSize: 0x240 }
  - { offset: 0x1A386B, size: 0x8, addend: 0x0, symName: __ZN5tokio7runtime9scheduler14current_thread7Context5enter17hc9a244539df6a756E, symObjAddr: 0x4A84, symBinAddr: 0x366CC, symSize: 0x29C }
  - { offset: 0x1A38F4, size: 0x8, addend: 0x0, symName: __ZN5tokio7runtime9scheduler14current_thread7Context5enter17hec0a287072f17752E, symObjAddr: 0x4D20, symBinAddr: 0x36968, symSize: 0x240 }
  - { offset: 0x1A397D, size: 0x8, addend: 0x0, symName: __ZN5tokio7runtime9scheduler14current_thread7Context5enter17hf0bc5254ac09706bE, symObjAddr: 0x4F60, symBinAddr: 0x36BA8, symSize: 0x240 }
  - { offset: 0x1A3A13, size: 0x8, addend: 0x0, symName: __ZN5tokio7runtime9scheduler14current_thread7Context5enter17hf5ef195fbb408c35E, symObjAddr: 0x51A0, symBinAddr: 0x36DE8, symSize: 0x29C }
  - { offset: 0x1A3A9C, size: 0x8, addend: 0x0, symName: __ZN5tokio7runtime9scheduler14current_thread7Context8run_task17h0b14f8b8511660e2E, symObjAddr: 0x543C, symBinAddr: 0x37084, symSize: 0x188 }
  - { offset: 0x1A3B05, size: 0x8, addend: 0x0, symName: __ZN5tokio7runtime9scheduler14current_thread7Context8run_task17h7980d7af1a03923bE, symObjAddr: 0x55C4, symBinAddr: 0x3720C, symSize: 0x188 }
  - { offset: 0x1A3B6E, size: 0x8, addend: 0x0, symName: __ZN5tokio7runtime9scheduler14current_thread7Context8run_task17h935ba768e8e2c9b1E, symObjAddr: 0x574C, symBinAddr: 0x37394, symSize: 0x188 }
  - { offset: 0x1A3BD7, size: 0x8, addend: 0x0, symName: __ZN5tokio7runtime9scheduler14current_thread7Context8run_task17ha1619c708818d80eE, symObjAddr: 0x58D4, symBinAddr: 0x3751C, symSize: 0x188 }
  - { offset: 0x1A3C40, size: 0x8, addend: 0x0, symName: __ZN5tokio7runtime9scheduler14current_thread7Context8run_task17hb5bfa9a186f43808E, symObjAddr: 0x5A5C, symBinAddr: 0x376A4, symSize: 0x188 }
  - { offset: 0x1A3CA9, size: 0x8, addend: 0x0, symName: __ZN5tokio7runtime9scheduler14current_thread7Context8run_task17hd758545ca26e262fE, symObjAddr: 0x5BE4, symBinAddr: 0x3782C, symSize: 0x188 }
  - { offset: 0x1A3D12, size: 0x8, addend: 0x0, symName: __ZN5tokio7runtime9scheduler14current_thread7Context8run_task17hf0550f6c7efc8357E, symObjAddr: 0x5D6C, symBinAddr: 0x379B4, symSize: 0x188 }
  - { offset: 0x1A3D7B, size: 0x8, addend: 0x0, symName: __ZN5tokio7runtime9scheduler14current_thread7Context8run_task17hfa1ba6f5ea6e2702E, symObjAddr: 0x5EF4, symBinAddr: 0x37B3C, symSize: 0x188 }
  - { offset: 0x1A3DFE, size: 0x8, addend: 0x0, symName: __ZN5tokio7runtime9scheduler14current_thread9CoreGuard5enter17h14b3b7543af24d1fE, symObjAddr: 0x6ABC, symBinAddr: 0x38704, symSize: 0x31C }
  - { offset: 0x1A3E98, size: 0x8, addend: 0x0, symName: __ZN5tokio7runtime9scheduler14current_thread9CoreGuard5enter17h428614c4bc56a331E, symObjAddr: 0x6DD8, symBinAddr: 0x38A20, symSize: 0x31C }
  - { offset: 0x1A3F32, size: 0x8, addend: 0x0, symName: __ZN5tokio7runtime9scheduler14current_thread9CoreGuard5enter17h4cddfb03fcc55445E, symObjAddr: 0x70F4, symBinAddr: 0x38D3C, symSize: 0x310 }
  - { offset: 0x1A3FCC, size: 0x8, addend: 0x0, symName: __ZN5tokio7runtime9scheduler14current_thread9CoreGuard5enter17h50a5ecbd0e4f7b0cE, symObjAddr: 0x7404, symBinAddr: 0x3904C, symSize: 0x31C }
  - { offset: 0x1A4066, size: 0x8, addend: 0x0, symName: __ZN5tokio7runtime9scheduler14current_thread9CoreGuard5enter17h985799f985f41bdaE, symObjAddr: 0x7720, symBinAddr: 0x39368, symSize: 0x31C }
  - { offset: 0x1A4100, size: 0x8, addend: 0x0, symName: __ZN5tokio7runtime9scheduler14current_thread9CoreGuard5enter17hc3dedf7258c7d0aaE, symObjAddr: 0x7A3C, symBinAddr: 0x39684, symSize: 0x31C }
  - { offset: 0x1A419A, size: 0x8, addend: 0x0, symName: __ZN5tokio7runtime9scheduler14current_thread9CoreGuard5enter17hd6cae97e6e7b5b6aE, symObjAddr: 0x7D58, symBinAddr: 0x399A0, symSize: 0x310 }
  - { offset: 0x1A4234, size: 0x8, addend: 0x0, symName: __ZN5tokio7runtime9scheduler14current_thread9CoreGuard5enter17hed1cb2b934783831E, symObjAddr: 0x8068, symBinAddr: 0x39CB0, symSize: 0x31C }
  - { offset: 0x1A42CE, size: 0x8, addend: 0x0, symName: __ZN5tokio7runtime9scheduler14current_thread9CoreGuard8block_on17h54606ffcbe656c5dE, symObjAddr: 0x84A4, symBinAddr: 0x3A0EC, symSize: 0x80 }
  - { offset: 0x1A4320, size: 0x8, addend: 0x0, symName: __ZN5tokio7runtime9scheduler14current_thread9CoreGuard8block_on17h63026196e1fd3fcbE, symObjAddr: 0x8524, symBinAddr: 0x3A16C, symSize: 0x7C }
  - { offset: 0x1A4372, size: 0x8, addend: 0x0, symName: __ZN5tokio7runtime9scheduler14current_thread9CoreGuard8block_on17h6ac0a33cc3d69d7cE, symObjAddr: 0x85A0, symBinAddr: 0x3A1E8, symSize: 0x80 }
  - { offset: 0x1A43C4, size: 0x8, addend: 0x0, symName: __ZN5tokio7runtime9scheduler14current_thread9CoreGuard8block_on17h7dd6c1b0d5476f6bE, symObjAddr: 0x8620, symBinAddr: 0x3A268, symSize: 0x7C }
  - { offset: 0x1A4416, size: 0x8, addend: 0x0, symName: __ZN5tokio7runtime9scheduler14current_thread9CoreGuard8block_on17hab7330cd61fdb9dfE, symObjAddr: 0x869C, symBinAddr: 0x3A2E4, symSize: 0x78 }
  - { offset: 0x1A4468, size: 0x8, addend: 0x0, symName: __ZN5tokio7runtime9scheduler14current_thread9CoreGuard8block_on17hadacf50739c4abcbE, symObjAddr: 0x8714, symBinAddr: 0x3A35C, symSize: 0x80 }
  - { offset: 0x1A44BA, size: 0x8, addend: 0x0, symName: __ZN5tokio7runtime9scheduler14current_thread9CoreGuard8block_on17hbe29aa3962cc8668E, symObjAddr: 0x8794, symBinAddr: 0x3A3DC, symSize: 0x78 }
  - { offset: 0x1A450C, size: 0x8, addend: 0x0, symName: __ZN5tokio7runtime9scheduler14current_thread9CoreGuard8block_on17hebb0fc0c4b5f2c07E, symObjAddr: 0x880C, symBinAddr: 0x3A454, symSize: 0x80 }
  - { offset: 0x1A47CE, size: 0x8, addend: 0x0, symName: __ZN4core5slice4sort6shared5pivot11median3_rec17he11d52f08b0ded76E, symObjAddr: 0x0, symBinAddr: 0x3FB9C, symSize: 0x1F4 }
  - { offset: 0x1A4E72, size: 0x8, addend: 0x0, symName: __ZN4core5slice4sort6shared5pivot11median3_rec17he11d52f08b0ded76E, symObjAddr: 0x0, symBinAddr: 0x3FB9C, symSize: 0x1F4 }
  - { offset: 0x1A506C, size: 0x8, addend: 0x0, symName: __ZN4core5slice4sort6shared5pivot12choose_pivot17h47ef7b57fd5c8048E, symObjAddr: 0x1F4, symBinAddr: 0x3FD90, symSize: 0x214 }
  - { offset: 0x1A5999, size: 0x8, addend: 0x0, symName: '__ZN102_$LT$pyo3..internal..get_slot..Slot$LT$74_i32$GT$$u20$as$u20$pyo3..internal..get_slot..GetSlotImpl$GT$8get_slot17ha9d91dd87865d575E', symObjAddr: 0x0, symBinAddr: 0x3FFA4, symSize: 0x74 }
  - { offset: 0x1A6A12, size: 0x8, addend: 0x0, symName: '__ZN102_$LT$pyo3..internal..get_slot..Slot$LT$74_i32$GT$$u20$as$u20$pyo3..internal..get_slot..GetSlotImpl$GT$8get_slot17ha9d91dd87865d575E', symObjAddr: 0x0, symBinAddr: 0x3FFA4, symSize: 0x74 }
  - { offset: 0x1A6EC5, size: 0x8, addend: 0x0, symName: '__ZN60_$LT$$RF$mut$u20$T$u20$as$u20$core..ops..deref..DerefMut$GT$9deref_mut17h1bfc074cd1648319E', symObjAddr: 0x0, symBinAddr: 0x40018, symSize: 0x18 }
  - { offset: 0x1A70DF, size: 0x8, addend: 0x0, symName: '__ZN60_$LT$$RF$mut$u20$T$u20$as$u20$core..ops..deref..DerefMut$GT$9deref_mut17h1bfc074cd1648319E', symObjAddr: 0x0, symBinAddr: 0x40018, symSize: 0x18 }
  - { offset: 0x1A7667, size: 0x8, addend: 0x0, symName: __ZN9hashbrown3raw13RawTableInner15fix_insert_slot17h14d23317405dd77dE, symObjAddr: 0x0, symBinAddr: 0x40030, symSize: 0x12C }
  - { offset: 0x1A8FAC, size: 0x8, addend: 0x0, symName: __ZN9hashbrown3raw13RawTableInner15fix_insert_slot17h14d23317405dd77dE, symObjAddr: 0x0, symBinAddr: 0x40030, symSize: 0x12C }
  - { offset: 0x1A9395, size: 0x8, addend: 0x0, symName: __ZN9hashbrown3raw13RawTableInner15rehash_in_place17h9e4fd48b0d46ab0cE, symObjAddr: 0x12C, symBinAddr: 0x4015C, symSize: 0x4AC }
  - { offset: 0x1A9BAA, size: 0x8, addend: 0x0, symName: __ZN9hashbrown3raw13RawTableInner16find_insert_slot17h3085fcb3d496697eE, symObjAddr: 0x5D8, symBinAddr: 0x40608, symSize: 0x11C }
  - { offset: 0x1A9DA5, size: 0x8, addend: 0x0, symName: __ZN9hashbrown3raw13RawTableInner19prepare_insert_slot17hbb53b12f6854b84bE, symObjAddr: 0x6F4, symBinAddr: 0x40724, symSize: 0x74 }
  - { offset: 0x1AA096, size: 0x8, addend: 0x0, symName: __ZN9hashbrown3raw13RawTableInner23prepare_rehash_in_place17hf9d1f6c422f18509E, symObjAddr: 0x768, symBinAddr: 0x40798, symSize: 0x258 }
  - { offset: 0x1AA7A2, size: 0x8, addend: 0x0, symName: __ZN9hashbrown3raw13RawTableInner25find_insert_slot_in_group17h5c692e047fded1aeE, symObjAddr: 0x9C0, symBinAddr: 0x409F0, symSize: 0x15C }
  - { offset: 0x1AAA95, size: 0x8, addend: 0x0, symName: __ZN9hashbrown3raw13RawTableInner30find_or_find_insert_slot_inner17h8e9248377534c7c3E, symObjAddr: 0xB1C, symBinAddr: 0x40B4C, symSize: 0x2C0 }
  - { offset: 0x1AAED5, size: 0x8, addend: 0x0, symName: __ZN9hashbrown3raw13RawTableInner5erase17hb3511685a0f50fb6E, symObjAddr: 0xDDC, symBinAddr: 0x40E0C, symSize: 0x174 }
  - { offset: 0x1AB1E3, size: 0x8, addend: 0x0, symName: __ZN4pyo35types4none6PyNone3get17h162c5823abcc71e8E, symObjAddr: 0x0, symBinAddr: 0x40F80, symSize: 0x2C }
  - { offset: 0x1AC8E5, size: 0x8, addend: 0x0, symName: __ZN4pyo35types4none6PyNone3get17h162c5823abcc71e8E, symObjAddr: 0x0, symBinAddr: 0x40F80, symSize: 0x2C }
  - { offset: 0x1AC930, size: 0x8, addend: 0x0, symName: '__ZN9hashbrown11rustc_entry62_$LT$impl$u20$hashbrown..map..HashMap$LT$K$C$V$C$S$C$A$GT$$GT$11rustc_entry17h15be4d38458e0d65E', symObjAddr: 0x0, symBinAddr: 0x40FAC, symSize: 0x14C }
  - { offset: 0x1ACB0D, size: 0x8, addend: 0x0, symName: '__ZN9hashbrown3map11make_hasher28_$u7b$$u7b$closure$u7d$$u7d$17hc44dba9c3ca06650E', symObjAddr: 0x14C, symBinAddr: 0x410F8, symSize: 0x3C }
  - { offset: 0x1ACB8F, size: 0x8, addend: 0x0, symName: '__ZN9hashbrown3map14equivalent_key28_$u7b$$u7b$closure$u7d$$u7d$17h8ef4a50808de3641E', symObjAddr: 0x188, symBinAddr: 0x41134, symSize: 0x30 }
  - { offset: 0x1AD9C2, size: 0x8, addend: 0x0, symName: '__ZN9hashbrown11rustc_entry62_$LT$impl$u20$hashbrown..map..HashMap$LT$K$C$V$C$S$C$A$GT$$GT$11rustc_entry17h15be4d38458e0d65E', symObjAddr: 0x0, symBinAddr: 0x40FAC, symSize: 0x14C }
  - { offset: 0x1ADF0A, size: 0x8, addend: 0x0, symName: '__ZN9hashbrown3map28HashMap$LT$K$C$V$C$S$C$A$GT$12remove_entry17hc56fe43f76095d46E', symObjAddr: 0x1B8, symBinAddr: 0x41164, symSize: 0x58 }
  - { offset: 0x1AE08D, size: 0x8, addend: 0x0, symName: '__ZN9hashbrown3map28HashMap$LT$K$C$V$C$S$C$A$GT$6insert17h6d0fefd670706946E', symObjAddr: 0x210, symBinAddr: 0x411BC, symSize: 0x1DC }
  - { offset: 0x1AE219, size: 0x8, addend: 0x0, symName: '__ZN9hashbrown3map28HashMap$LT$K$C$V$C$S$C$A$GT$6remove17h69f94444de7cccbdE', symObjAddr: 0x3EC, symBinAddr: 0x41398, symSize: 0xB4 }
  - { offset: 0x1AE2C2, size: 0x8, addend: 0x0, symName: __ZN5tokio7runtime9scheduler12multi_thread11MultiThread8block_on17h5b7bd4f35e32949bE, symObjAddr: 0x0, symBinAddr: 0x4144C, symSize: 0x48 }
  - { offset: 0x1B05C7, size: 0x8, addend: 0x0, symName: '__ZN5tokio7runtime9scheduler12multi_thread11MultiThread8block_on28_$u7b$$u7b$closure$u7d$$u7d$17h15f8b89bb9b1e668E', symObjAddr: 0x2CC, symBinAddr: 0x41718, symSize: 0x7C }
  - { offset: 0x1B060C, size: 0x8, addend: 0x0, symName: '__ZN5tokio7runtime9scheduler12multi_thread11MultiThread8block_on28_$u7b$$u7b$closure$u7d$$u7d$17h87c79cead398e833E', symObjAddr: 0x348, symBinAddr: 0x41794, symSize: 0x68 }
  - { offset: 0x1B0650, size: 0x8, addend: 0x0, symName: '__ZN5tokio7runtime9scheduler12multi_thread11MultiThread8block_on28_$u7b$$u7b$closure$u7d$$u7d$17h90b95f583acd9733E', symObjAddr: 0x3B0, symBinAddr: 0x417FC, symSize: 0x84 }
  - { offset: 0x1B0695, size: 0x8, addend: 0x0, symName: '__ZN5tokio7runtime9scheduler12multi_thread11MultiThread8block_on28_$u7b$$u7b$closure$u7d$$u7d$17hb266bff8194a9a40E', symObjAddr: 0x434, symBinAddr: 0x41880, symSize: 0x84 }
  - { offset: 0x1B06DA, size: 0x8, addend: 0x0, symName: '__ZN5tokio7runtime9scheduler12multi_thread11MultiThread8block_on28_$u7b$$u7b$closure$u7d$$u7d$17hbbfa72489b5f2d80E', symObjAddr: 0x4B8, symBinAddr: 0x41904, symSize: 0x68 }
  - { offset: 0x1B071E, size: 0x8, addend: 0x0, symName: '__ZN5tokio7runtime9scheduler12multi_thread11MultiThread8block_on28_$u7b$$u7b$closure$u7d$$u7d$17hc41f80ad40621b67E', symObjAddr: 0x520, symBinAddr: 0x4196C, symSize: 0x68 }
  - { offset: 0x1B0762, size: 0x8, addend: 0x0, symName: '__ZN5tokio7runtime9scheduler12multi_thread11MultiThread8block_on28_$u7b$$u7b$closure$u7d$$u7d$17hd9f384f9179c3caeE', symObjAddr: 0x588, symBinAddr: 0x419D4, symSize: 0x88 }
  - { offset: 0x1B07A7, size: 0x8, addend: 0x0, symName: '__ZN5tokio7runtime9scheduler12multi_thread11MultiThread8block_on28_$u7b$$u7b$closure$u7d$$u7d$17hdd39e63f3e87ddd4E', symObjAddr: 0x610, symBinAddr: 0x41A5C, symSize: 0x68 }
  - { offset: 0x1B826C, size: 0x8, addend: 0x0, symName: __ZN5tokio7runtime9scheduler12multi_thread11MultiThread8block_on17h5b7bd4f35e32949bE, symObjAddr: 0x0, symBinAddr: 0x4144C, symSize: 0x48 }
  - { offset: 0x1B8CA6, size: 0x8, addend: 0x0, symName: __ZN5tokio7runtime9scheduler12multi_thread11MultiThread8block_on17h6136a058200c085dE, symObjAddr: 0x48, symBinAddr: 0x41494, symSize: 0x64 }
  - { offset: 0x1B8E15, size: 0x8, addend: 0x0, symName: __ZN5tokio7runtime9scheduler12multi_thread11MultiThread8block_on17h7d90f5bad2184ef5E, symObjAddr: 0xAC, symBinAddr: 0x414F8, symSize: 0x48 }
  - { offset: 0x1B8E5C, size: 0x8, addend: 0x0, symName: __ZN5tokio7runtime9scheduler12multi_thread11MultiThread8block_on17h88fe3b5880316c4cE, symObjAddr: 0xF4, symBinAddr: 0x41540, symSize: 0x6C }
  - { offset: 0x1B8EB1, size: 0x8, addend: 0x0, symName: __ZN5tokio7runtime9scheduler12multi_thread11MultiThread8block_on17h8ce4636be04fd73dE, symObjAddr: 0x160, symBinAddr: 0x415AC, symSize: 0x48 }
  - { offset: 0x1B8F05, size: 0x8, addend: 0x0, symName: __ZN5tokio7runtime9scheduler12multi_thread11MultiThread8block_on17h91a99a3951d70c83E, symObjAddr: 0x1A8, symBinAddr: 0x415F4, symSize: 0x48 }
  - { offset: 0x1B8F4C, size: 0x8, addend: 0x0, symName: __ZN5tokio7runtime9scheduler12multi_thread11MultiThread8block_on17h92ec4c2aad8d07a2E, symObjAddr: 0x1F0, symBinAddr: 0x4163C, symSize: 0x6C }
  - { offset: 0x1B8F94, size: 0x8, addend: 0x0, symName: __ZN5tokio7runtime9scheduler12multi_thread11MultiThread8block_on17hed44d8c43b41231bE, symObjAddr: 0x25C, symBinAddr: 0x416A8, symSize: 0x70 }
  - { offset: 0x1B9007, size: 0x8, addend: 0x0, symName: '__ZN4pyo35impl_7pyclass16lazy_type_object23LazyTypeObject$LT$T$GT$11get_or_init17h17339c58294711a5E', symObjAddr: 0x0, symBinAddr: 0x41AC4, symSize: 0x40 }
  - { offset: 0x1BE8B1, size: 0x8, addend: 0x0, symName: '__ZN4pyo35impl_7pyclass16lazy_type_object23LazyTypeObject$LT$T$GT$11get_or_init28_$u7b$$u7b$closure$u7d$$u7d$17h04d40e989f9b2b85E', symObjAddr: 0xC0, symBinAddr: 0x41B84, symSize: 0x98 }
  - { offset: 0x1BE91E, size: 0x8, addend: 0x0, symName: '__ZN4pyo35impl_7pyclass16lazy_type_object23LazyTypeObject$LT$T$GT$11get_or_init28_$u7b$$u7b$closure$u7d$$u7d$17hc46844853655a224E', symObjAddr: 0x158, symBinAddr: 0x41C1C, symSize: 0x98 }
  - { offset: 0x1BE98B, size: 0x8, addend: 0x0, symName: '__ZN4pyo35impl_7pyclass16lazy_type_object23LazyTypeObject$LT$T$GT$11get_or_init28_$u7b$$u7b$closure$u7d$$u7d$17hf76bbebb41eafa7eE', symObjAddr: 0x1F0, symBinAddr: 0x41CB4, symSize: 0x98 }
  - { offset: 0x1C1C42, size: 0x8, addend: 0x0, symName: '__ZN4pyo35impl_7pyclass16lazy_type_object23LazyTypeObject$LT$T$GT$11get_or_init17h17339c58294711a5E', symObjAddr: 0x0, symBinAddr: 0x41AC4, symSize: 0x40 }
  - { offset: 0x1C1C93, size: 0x8, addend: 0x0, symName: '__ZN4pyo35impl_7pyclass16lazy_type_object23LazyTypeObject$LT$T$GT$11get_or_init17h35e6cfb0a2d6c2a3E', symObjAddr: 0x40, symBinAddr: 0x41B04, symSize: 0x40 }
  - { offset: 0x1C1CE4, size: 0x8, addend: 0x0, symName: '__ZN4pyo35impl_7pyclass16lazy_type_object23LazyTypeObject$LT$T$GT$11get_or_init17hb57625f0a970600cE', symObjAddr: 0x80, symBinAddr: 0x41B44, symSize: 0x40 }
  - { offset: 0x1C1D28, size: 0x8, addend: 0x0, symName: '__ZN4pyo35impl_7pyclass16lazy_type_object23LazyTypeObject$LT$T$GT$15get_or_try_init17h0a580d68a4715722E', symObjAddr: 0x288, symBinAddr: 0x41D4C, symSize: 0x58 }
  - { offset: 0x1C1D6C, size: 0x8, addend: 0x0, symName: '__ZN4pyo35impl_7pyclass16lazy_type_object23LazyTypeObject$LT$T$GT$15get_or_try_init17h67e971bc75654ab2E', symObjAddr: 0x2E0, symBinAddr: 0x41DA4, symSize: 0x58 }
  - { offset: 0x1C1DB0, size: 0x8, addend: 0x0, symName: '__ZN4pyo35impl_7pyclass16lazy_type_object23LazyTypeObject$LT$T$GT$15get_or_try_init17hb9db0ee5f4d2f418E', symObjAddr: 0x338, symBinAddr: 0x41DFC, symSize: 0x58 }
  - { offset: 0x1C1E91, size: 0x8, addend: 0x0, symName: '__ZN87_$LT$$BP$mut$u20$pyo3_ffi..object..PyObject$u20$as$u20$pyo3..ffi_ptr_ext..FfiPtrExt$GT$12assume_owned17hdab94dd47139277cE', symObjAddr: 0x0, symBinAddr: 0x41E54, symSize: 0x24 }
  - { offset: 0x1C1EE4, size: 0x8, addend: 0x0, symName: __ZN8pyo3_ffi6object10Py_IS_TYPE17h7f6549c1b15aa9faE, symObjAddr: 0x90, symBinAddr: 0x41EE4, symSize: 0x38 }
  - { offset: 0x1C1F1E, size: 0x8, addend: 0x0, symName: __ZN8pyo3_ffi6object17Py_NotImplemented17habe02bfa89226d1aE, symObjAddr: 0xC8, symBinAddr: 0x41F1C, symSize: 0xC }
  - { offset: 0x1C1F3C, size: 0x8, addend: 0x0, symName: __ZN8pyo3_ffi6object18PyObject_TypeCheck17h940f1826f1a620b4E, symObjAddr: 0xD4, symBinAddr: 0x41F28, symSize: 0x70 }
  - { offset: 0x1C1F79, size: 0x8, addend: 0x0, symName: __ZN8pyo3_ffi6object7Py_None17h3ccc106de3389154E, symObjAddr: 0x144, symBinAddr: 0x41F98, symSize: 0xC }
  - { offset: 0x1C1F97, size: 0x8, addend: 0x0, symName: __ZN8pyo3_ffi6object7Py_TYPE17hdc6b85c1b0885920E, symObjAddr: 0x150, symBinAddr: 0x41FA4, symSize: 0x74 }
  - { offset: 0x1C3130, size: 0x8, addend: 0x0, symName: '__ZN87_$LT$$BP$mut$u20$pyo3_ffi..object..PyObject$u20$as$u20$pyo3..ffi_ptr_ext..FfiPtrExt$GT$12assume_owned17hdab94dd47139277cE', symObjAddr: 0x0, symBinAddr: 0x41E54, symSize: 0x24 }
  - { offset: 0x1C3175, size: 0x8, addend: 0x0, symName: '__ZN87_$LT$$BP$mut$u20$pyo3_ffi..object..PyObject$u20$as$u20$pyo3..ffi_ptr_ext..FfiPtrExt$GT$15assume_borrowed17h600f0bd943bca6adE', symObjAddr: 0x24, symBinAddr: 0x41E78, symSize: 0x24 }
  - { offset: 0x1C31BA, size: 0x8, addend: 0x0, symName: '__ZN87_$LT$$BP$mut$u20$pyo3_ffi..object..PyObject$u20$as$u20$pyo3..ffi_ptr_ext..FfiPtrExt$GT$22assume_borrowed_or_opt17h58ca16f73cea423bE', symObjAddr: 0x48, symBinAddr: 0x41E9C, symSize: 0x24 }
  - { offset: 0x1C31FF, size: 0x8, addend: 0x0, symName: '__ZN87_$LT$$BP$mut$u20$pyo3_ffi..object..PyObject$u20$as$u20$pyo3..ffi_ptr_ext..FfiPtrExt$GT$25assume_borrowed_unchecked17h0efc9526ba13539fE', symObjAddr: 0x6C, symBinAddr: 0x41EC0, symSize: 0x24 }
  - { offset: 0x1C3835, size: 0x8, addend: 0x0, symName: '__ZN104_$LT$std..thread..Builder..spawn_unchecked_..MaybeDangling$LT$T$GT$$u20$as$u20$core..ops..drop..Drop$GT$4drop17h905e5a2a858ae458E', symObjAddr: 0x0, symBinAddr: 0x42018, symSize: 0x2C }
  - { offset: 0x1C54AA, size: 0x8, addend: 0x0, symName: '__ZN4core3ptr101drop_in_place$LT$alloc..vec..Vec$LT$pyo3..instance..Bound$LT$effect_log_native..PyToolDef$GT$$GT$$GT$17hb3f2f2b96842e749E', symObjAddr: 0xB4C, symBinAddr: 0x42B1C, symSize: 0x5C }
  - { offset: 0x1C54D9, size: 0x8, addend: 0x0, symName: '__ZN4core3ptr101drop_in_place$LT$core..option..Option$LT$tokio..runtime..scheduler..current_thread..CoreGuard$GT$$GT$17heac7b37bae4e33b4E', symObjAddr: 0xBA8, symBinAddr: 0x42B78, symSize: 0x44 }
  - { offset: 0x1C5508, size: 0x8, addend: 0x0, symName: '__ZN4core3ptr101drop_in_place$LT$effect_log_core..storage..sqlite..SqliteStore..open..$u7b$$u7b$closure$u7d$$u7d$$GT$17h7ecf93f63cc9158dE', symObjAddr: 0xBEC, symBinAddr: 0x42BBC, symSize: 0xF0 }
  - { offset: 0x1C557A, size: 0x8, addend: 0x0, symName: '__ZN4core3ptr101drop_in_place$LT$pyo3..pyclass_init..PyClassInitializerImpl$LT$effect_log_native..PyEffectLog$GT$$GT$17h6112ddaac36d98d3E', symObjAddr: 0xCDC, symBinAddr: 0x42CAC, symSize: 0x54 }
  - { offset: 0x1C55A9, size: 0x8, addend: 0x0, symName: '__ZN4core3ptr102drop_in_place$LT$effect_log_core..executor..EffectLog..apply_recovery..$u7b$$u7b$closure$u7d$$u7d$$GT$17h22349f358b6e6f24E', symObjAddr: 0xD30, symBinAddr: 0x42D00, symSize: 0xB4 }
  - { offset: 0x1C56B4, size: 0x8, addend: 0x0, symName: '__ZN4core3ptr102drop_in_place$LT$effect_log_core..executor..EffectLogBuilder..recover..$u7b$$u7b$closure$u7d$$u7d$$GT$17h5955c71eca4c2dd9E', symObjAddr: 0xDE4, symBinAddr: 0x42DB4, symSize: 0x150 }
  - { offset: 0x1C5758, size: 0x8, addend: 0x0, symName: '__ZN4core3ptr102drop_in_place$LT$effect_log_core..executor..execute_tool_with_logging..$u7b$$u7b$closure$u7d$$u7d$$GT$17h815ab11f1c557904E', symObjAddr: 0xF34, symBinAddr: 0x42F04, symSize: 0x1F8 }
  - { offset: 0x1C58FA, size: 0x8, addend: 0x0, symName: '__ZN4core3ptr102drop_in_place$LT$pyo3..pyclass_init..PyClassInitializerImpl$LT$effect_log_native..PyEffectKind$GT$$GT$17h19e57204522850cfE', symObjAddr: 0x112C, symBinAddr: 0x430FC, symSize: 0x40 }
  - { offset: 0x1C5929, size: 0x8, addend: 0x0, symName: '__ZN4core3ptr103drop_in_place$LT$core..result..Result$LT$$RF$effect_log_native..PyEffectKind$C$pyo3..err..PyErr$GT$$GT$17ha5bd2d75ad16e147E', symObjAddr: 0x116C, symBinAddr: 0x4313C, symSize: 0x40 }
  - { offset: 0x1C5958, size: 0x8, addend: 0x0, symName: '__ZN4core3ptr104drop_in_place$LT$alloc..sync..Weak$LT$effect_log_core..wal..WalEngine$C$$RF$alloc..alloc..Global$GT$$GT$17hdc34a5f5847ffc73E', symObjAddr: 0x11AC, symBinAddr: 0x4317C, symSize: 0x24 }
  - { offset: 0x1C5987, size: 0x8, addend: 0x0, symName: '__ZN4core3ptr105drop_in_place$LT$alloc..sync..Weak$LT$tokio..runtime..runtime..Runtime$C$$RF$alloc..alloc..Global$GT$$GT$17h551ba1e786c82f80E', symObjAddr: 0x1254, symBinAddr: 0x431A0, symSize: 0x24 }
  - { offset: 0x1C59B6, size: 0x8, addend: 0x0, symName: '__ZN4core3ptr106drop_in_place$LT$core..option..Option$LT$pyo3..pycell..PyRef$LT$effect_log_native..PyEffectLog$GT$$GT$$GT$17h3c7c2f0cd902201dE', symObjAddr: 0x1278, symBinAddr: 0x431C4, symSize: 0x44 }
  - { offset: 0x1C59E5, size: 0x8, addend: 0x0, symName: '__ZN4core3ptr107drop_in_place$LT$core..option..Option$LT$pyo3..pycell..PyRef$LT$effect_log_native..PyEffectKind$GT$$GT$$GT$17h9fb9d10949819a3bE', symObjAddr: 0x12BC, symBinAddr: 0x43208, symSize: 0x44 }
  - { offset: 0x1C5A14, size: 0x8, addend: 0x0, symName: '__ZN4core3ptr108drop_in_place$LT$alloc..raw_vec..RawVec$LT$pyo3..instance..Bound$LT$effect_log_native..PyToolDef$GT$$GT$$GT$17hf6c3d743296de3b2E', symObjAddr: 0x1300, symBinAddr: 0x4324C, symSize: 0x24 }
  - { offset: 0x1C5A43, size: 0x8, addend: 0x0, symName: '__ZN4core3ptr108drop_in_place$LT$core..result..Result$LT$$LP$$RP$$C$alloc..borrow..Cow$LT$core..ffi..c_str..CStr$GT$$GT$$GT$17hfaa96218d75ed3a5E', symObjAddr: 0x1324, symBinAddr: 0x43270, symSize: 0x44 }
  - { offset: 0x1C5A72, size: 0x8, addend: 0x0, symName: '__ZN4core3ptr108drop_in_place$LT$effect_log_core..executor..EffectLog..execute_with_logging..$u7b$$u7b$closure$u7d$$u7d$$GT$17h37ec2a1a4f80497cE', symObjAddr: 0x1368, symBinAddr: 0x432B4, symSize: 0xA4 }
  - { offset: 0x1C5B59, size: 0x8, addend: 0x0, symName: '__ZN4core3ptr109drop_in_place$LT$core..slice..sort..stable..merge..MergeState$LT$effect_log_core..types..IntentRecord$GT$$GT$17hc926974ea31d32f1E', symObjAddr: 0x140C, symBinAddr: 0x43358, symSize: 0x24 }
  - { offset: 0x1C5B88, size: 0x8, addend: 0x0, symName: '__ZN4core3ptr110drop_in_place$LT$alloc..boxed..Box$LT$effect_log_native..PyEffectLog..new..$u7b$$u7b$closure$u7d$$u7d$$GT$$GT$17h79aeb76826c17f5bE', symObjAddr: 0x1430, symBinAddr: 0x4337C, symSize: 0x60 }
  - { offset: 0x1C5BB7, size: 0x8, addend: 0x0, symName: '__ZN4core3ptr112drop_in_place$LT$$LP$alloc..boxed..Box$LT$tokio..runtime..scheduler..current_thread..Core$GT$$C$$LP$$RP$$RP$$GT$17hb65a15419f69464fE', symObjAddr: 0x14B4, symBinAddr: 0x433DC, symSize: 0x24 }
  - { offset: 0x1C5BE6, size: 0x8, addend: 0x0, symName: '__ZN4core3ptr113drop_in_place$LT$core..slice..sort..shared..smallsort..CopyOnDrop$LT$effect_log_core..types..IntentRecord$GT$$GT$17h38ab6a5f5a303829E', symObjAddr: 0x14D8, symBinAddr: 0x43400, symSize: 0x24 }
  - { offset: 0x1C5C15, size: 0x8, addend: 0x0, symName: '__ZN4core3ptr114drop_in_place$LT$alloc..boxed..Box$LT$effect_log_native..PyEffectLog..execute..$u7b$$u7b$closure$u7d$$u7d$$GT$$GT$17hc39475cdb81a8f07E', symObjAddr: 0x1520, symBinAddr: 0x43424, symSize: 0x60 }
  - { offset: 0x1C5C44, size: 0x8, addend: 0x0, symName: '__ZN4core3ptr114drop_in_place$LT$alloc..boxed..Box$LT$effect_log_native..PyEffectLog..history..$u7b$$u7b$closure$u7d$$u7d$$GT$$GT$17h73044e9eb873c824E', symObjAddr: 0x1580, symBinAddr: 0x43484, symSize: 0x60 }
  - { offset: 0x1C5C73, size: 0x8, addend: 0x0, symName: '__ZN4core3ptr114drop_in_place$LT$alloc..sync..Arc$LT$tokio..sync..mutex..Mutex$LT$effect_log_core..executor..EffectLog$GT$$GT$$GT$17h43aa3e8b32bb237cE', symObjAddr: 0x15E0, symBinAddr: 0x434E4, symSize: 0x24 }
  - { offset: 0x1C5CA2, size: 0x8, addend: 0x0, symName: '__ZN4core3ptr114drop_in_place$LT$alloc..sync..ArcInner$LT$effect_log_native..PyEffectLog..new..$u7b$$u7b$closure$u7d$$u7d$$GT$$GT$17h331376b4dbf38681E', symObjAddr: 0x1604, symBinAddr: 0x43508, symSize: 0x24 }
  - { offset: 0x1C5CD1, size: 0x8, addend: 0x0, symName: '__ZN4core3ptr114drop_in_place$LT$alloc..sync..ArcInner$LT$effect_log_native..PyEffectLog..new..$u7b$$u7b$closure$u7d$$u7d$$GT$$GT$17hf55547dba98dcb31E', symObjAddr: 0x1628, symBinAddr: 0x4352C, symSize: 0x24 }
  - { offset: 0x1C5D00, size: 0x8, addend: 0x0, symName: '__ZN4core3ptr114drop_in_place$LT$core..result..Result$LT$serde_json..value..Value$C$effect_log_core..error..EffectLogError$GT$$GT$17h0fa4fda96c059ca5E', symObjAddr: 0x164C, symBinAddr: 0x43550, symSize: 0x5C }
  - { offset: 0x1C5D2F, size: 0x8, addend: 0x0, symName: '__ZN4core3ptr114drop_in_place$LT$effect_log_native..PyEffectLog..new..$u7b$$u7b$closure$u7d$$u7d$..$u7b$$u7b$closure$u7d$$u7d$$GT$17h0aea45f058fe4bc4E', symObjAddr: 0x16A8, symBinAddr: 0x435AC, symSize: 0x94 }
  - { offset: 0x1C5D81, size: 0x8, addend: 0x0, symName: '__ZN4core3ptr114drop_in_place$LT$effect_log_native..PyEffectLog..new..$u7b$$u7b$closure$u7d$$u7d$..$u7b$$u7b$closure$u7d$$u7d$$GT$17h31fad9c2f95f0682E', symObjAddr: 0x173C, symBinAddr: 0x43640, symSize: 0x94 }
  - { offset: 0x1C5DD3, size: 0x8, addend: 0x0, symName: '__ZN4core3ptr117drop_in_place$LT$core..result..Result$LT$pyo3..instance..Py$LT$pyo3..types..any..PyAny$GT$$C$pyo3..err..PyErr$GT$$GT$17hbca87063a406f83aE', symObjAddr: 0x17F4, symBinAddr: 0x436D4, symSize: 0x50 }
  - { offset: 0x1C5E02, size: 0x8, addend: 0x0, symName: '__ZN4core3ptr119drop_in_place$LT$alloc..sync..ArcInner$LT$tokio..sync..mutex..Mutex$LT$effect_log_core..executor..EffectLog$GT$$GT$$GT$17h9f6b225d5c3af7caE', symObjAddr: 0x1844, symBinAddr: 0x43724, symSize: 0x24 }
  - { offset: 0x1C5E31, size: 0x8, addend: 0x0, symName: '__ZN4core3ptr120drop_in_place$LT$tokio..sync..oneshot..Receiver$LT$core..result..Result$LT$$LP$$RP$$C$rusqlite..error..Error$GT$$GT$$GT$17hb4bb0df4e7d6b4caE', symObjAddr: 0x1868, symBinAddr: 0x43748, symSize: 0x5C }
  - { offset: 0x1C5E60, size: 0x8, addend: 0x0, symName: '__ZN4core3ptr121drop_in_place$LT$core..result..Result$LT$$LP$$RP$$C$core..result..Result$LT$$LP$$RP$$C$rusqlite..error..Error$GT$$GT$$GT$17h10c29172260086f0E', symObjAddr: 0x18C4, symBinAddr: 0x437A4, symSize: 0x4C }
  - { offset: 0x1C5E8F, size: 0x8, addend: 0x0, symName: '__ZN4core3ptr124drop_in_place$LT$core..result..Result$LT$$RF$pyo3..instance..Bound$LT$pyo3..types..any..PyAny$GT$$C$pyo3..err..PyErr$GT$$GT$17h605661ed98cb0755E', symObjAddr: 0x1910, symBinAddr: 0x437F0, symSize: 0x40 }
  - { offset: 0x1C5EBE, size: 0x8, addend: 0x0, symName: '__ZN4core3ptr125drop_in_place$LT$tokio..sync..mutex..Mutex$LT$effect_log_core..executor..EffectLog$GT$..lock..$u7b$$u7b$closure$u7d$$u7d$$GT$17h1af0620ed4b7566bE', symObjAddr: 0x1950, symBinAddr: 0x43830, symSize: 0x84 }
  - { offset: 0x1C5F36, size: 0x8, addend: 0x0, symName: '__ZN4core3ptr126drop_in_place$LT$core..result..Result$LT$effect_log_core..executor..EffectLog$C$effect_log_core..error..EffectLogError$GT$$GT$17hae6c46d6d2f9e1dbE', symObjAddr: 0x19D4, symBinAddr: 0x438B4, symSize: 0x5C }
  - { offset: 0x1C5F65, size: 0x8, addend: 0x0, symName: '__ZN4core3ptr126drop_in_place$LT$tokio_rusqlite..Connection..open$LT$$RF$str$GT$..$u7b$$u7b$closure$u7d$$u7d$..$u7b$$u7b$closure$u7d$$u7d$$GT$17h9e355e0dcdff629cE', symObjAddr: 0x1A30, symBinAddr: 0x43910, symSize: 0x24 }
  - { offset: 0x1C5F94, size: 0x8, addend: 0x0, symName: '__ZN4core3ptr127drop_in_place$LT$alloc..boxed..Box$LT$effect_log_core..executor..EffectLogBuilder..recover..$u7b$$u7b$closure$u7d$$u7d$$GT$$GT$17h3c6cfd4726be03bdE', symObjAddr: 0x1A54, symBinAddr: 0x43934, symSize: 0x60 }
  - { offset: 0x1C5FC3, size: 0x8, addend: 0x0, symName: '__ZN4core3ptr128drop_in_place$LT$tokio..sync..mutex..Mutex$LT$effect_log_core..executor..EffectLog$GT$..acquire..$u7b$$u7b$closure$u7d$$u7d$$GT$17h68c69a349d491b82E', symObjAddr: 0x1AB4, symBinAddr: 0x43994, symSize: 0xC4 }
  - { offset: 0x1C601E, size: 0x8, addend: 0x0, symName: '__ZN4core3ptr130drop_in_place$LT$tokio..sync..mutex..MutexGuard$LT$std..collections..hash..map..HashMap$LT$alloc..string..String$C$u64$GT$$GT$$GT$17hcc8af6b0e892f9d0E', symObjAddr: 0x1BC0, symBinAddr: 0x43A58, symSize: 0x24 }
  - { offset: 0x1C604D, size: 0x8, addend: 0x0, symName: '__ZN4core3ptr132drop_in_place$LT$core..pin..Pin$LT$alloc..boxed..Box$LT$effect_log_native..PyEffectLog..new..$u7b$$u7b$closure$u7d$$u7d$$GT$$GT$$GT$17h539d2f0708b75504E', symObjAddr: 0x1BE4, symBinAddr: 0x43A7C, symSize: 0x24 }
  - { offset: 0x1C607C, size: 0x8, addend: 0x0, symName: '__ZN4core3ptr136drop_in_place$LT$$LP$effect_log_core..types..IntentRecord$C$core..option..Option$LT$effect_log_core..types..CompletionRecord$GT$$RP$$GT$17h037735f678f6b1d3E', symObjAddr: 0x1C08, symBinAddr: 0x43AA0, symSize: 0x60 }
  - { offset: 0x1C60AB, size: 0x8, addend: 0x0, symName: '__ZN4core3ptr136drop_in_place$LT$core..pin..Pin$LT$alloc..boxed..Box$LT$effect_log_native..PyEffectLog..execute..$u7b$$u7b$closure$u7d$$u7d$$GT$$GT$$GT$17h48c7d3addf409626E', symObjAddr: 0x1C68, symBinAddr: 0x43B00, symSize: 0x24 }
  - { offset: 0x1C60DA, size: 0x8, addend: 0x0, symName: '__ZN4core3ptr136drop_in_place$LT$core..pin..Pin$LT$alloc..boxed..Box$LT$effect_log_native..PyEffectLog..history..$u7b$$u7b$closure$u7d$$u7d$$GT$$GT$$GT$17hedb5f5856788f4a3E', symObjAddr: 0x1C8C, symBinAddr: 0x43B24, symSize: 0x24 }
  - { offset: 0x1C6109, size: 0x8, addend: 0x0, symName: '__ZN4core3ptr137drop_in_place$LT$tokio..runtime..task..LocalNotified$LT$alloc..sync..Arc$LT$tokio..runtime..scheduler..current_thread..Handle$GT$$GT$$GT$17h7919adb281f3e246E', symObjAddr: 0x1CB0, symBinAddr: 0x43B48, symSize: 0x24 }
  - { offset: 0x1C6138, size: 0x8, addend: 0x0, symName: '__ZN4core3ptr140drop_in_place$LT$core..result..Result$LT$$RF$pyo3..instance..Bound$LT$effect_log_native..PyEffectKind$GT$$C$pyo3..err..DowncastError$GT$$GT$17h2b9e3433a4d5256cE', symObjAddr: 0x1CD4, symBinAddr: 0x43B6C, symSize: 0x48 }
  - { offset: 0x1C6167, size: 0x8, addend: 0x0, symName: '__ZN4core3ptr142drop_in_place$LT$alloc..sync..Weak$LT$tokio..sync..mutex..Mutex$LT$effect_log_core..executor..EffectLog$GT$$C$$RF$alloc..alloc..Global$GT$$GT$17h93908f280859850fE', symObjAddr: 0x1D1C, symBinAddr: 0x43BB4, symSize: 0x24 }
  - { offset: 0x1C6196, size: 0x8, addend: 0x0, symName: '__ZN4core3ptr142drop_in_place$LT$core..option..Option$LT$core..result..Result$LT$serde_json..value..Value$C$effect_log_core..error..EffectLogError$GT$$GT$$GT$17haf0f825ca6d4f4c1E', symObjAddr: 0x1D40, symBinAddr: 0x43BD8, symSize: 0x4C }
  - { offset: 0x1C61C5, size: 0x8, addend: 0x0, symName: '__ZN4core3ptr144drop_in_place$LT$core..task..poll..Poll$LT$core..result..Result$LT$serde_json..value..Value$C$effect_log_core..error..EffectLogError$GT$$GT$$GT$17h29db54b6f3ad0d4fE', symObjAddr: 0x1D8C, symBinAddr: 0x43C24, symSize: 0x50 }
  - { offset: 0x1C61F4, size: 0x8, addend: 0x0, symName: '__ZN4core3ptr146drop_in_place$LT$$u5b$$LP$effect_log_core..types..IntentRecord$C$core..option..Option$LT$effect_log_core..types..CompletionRecord$GT$$RP$$u5d$$GT$17h4cece9c7e4e51ce4E', symObjAddr: 0x1DDC, symBinAddr: 0x43C74, symSize: 0xC4 }
  - { offset: 0x1C6223, size: 0x8, addend: 0x0, symName: '__ZN4core3ptr146drop_in_place$LT$alloc..sync..ArcInner$LT$tokio..sync..oneshot..Inner$LT$core..result..Result$LT$$LP$$RP$$C$rusqlite..error..Error$GT$$GT$$GT$$GT$17h237826fd7544f48eE', symObjAddr: 0x1EA0, symBinAddr: 0x43D38, symSize: 0x24 }
  - { offset: 0x1C6252, size: 0x8, addend: 0x0, symName: '__ZN4core3ptr149drop_in_place$LT$core..pin..Pin$LT$alloc..boxed..Box$LT$effect_log_core..executor..EffectLogBuilder..recover..$u7b$$u7b$closure$u7d$$u7d$$GT$$GT$$GT$17hfb7c374c8c7d8c3fE', symObjAddr: 0x1EC4, symBinAddr: 0x43D5C, symSize: 0x24 }
  - { offset: 0x1C6281, size: 0x8, addend: 0x0, symName: '__ZN4core3ptr151drop_in_place$LT$core..result..Result$LT$core..result..Result$LT$$LP$$RP$$C$rusqlite..error..Error$GT$$C$tokio..sync..oneshot..error..RecvError$GT$$GT$17hf344657218db36adE', symObjAddr: 0x1EE8, symBinAddr: 0x43D80, symSize: 0x50 }
  - { offset: 0x1C62B0, size: 0x8, addend: 0x0, symName: '__ZN4core3ptr154drop_in_place$LT$core..option..Option$LT$core..result..Result$LT$effect_log_core..executor..EffectLog$C$effect_log_core..error..EffectLogError$GT$$GT$$GT$17h2d979b945dc2e01cE', symObjAddr: 0x1F38, symBinAddr: 0x43DD0, symSize: 0x48 }
  - { offset: 0x1C62DF, size: 0x8, addend: 0x0, symName: '__ZN4core3ptr154drop_in_place$LT$tokio..sync..mutex..Mutex$LT$effect_log_core..executor..EffectLog$GT$..lock..$u7b$$u7b$closure$u7d$$u7d$..$u7b$$u7b$closure$u7d$$u7d$$GT$17h7d6594ca56201560E', symObjAddr: 0x1F80, symBinAddr: 0x43E18, symSize: 0x84 }
  - { offset: 0x1C6322, size: 0x8, addend: 0x0, symName: '__ZN4core3ptr155drop_in_place$LT$alloc..boxed..Box$LT$dyn$u20$core..future..future..Future$u2b$Output$u20$$u3d$$u20$serde_json..value..Value$u2b$core..marker..Send$GT$$GT$17he983d85d784ef253E', symObjAddr: 0x2004, symBinAddr: 0x43E9C, symSize: 0x80 }
  - { offset: 0x1C6351, size: 0x8, addend: 0x0, symName: '__ZN4core3ptr156drop_in_place$LT$core..task..poll..Poll$LT$core..result..Result$LT$effect_log_core..executor..EffectLog$C$effect_log_core..error..EffectLogError$GT$$GT$$GT$17h6392f0145c9e4a1fE', symObjAddr: 0x2084, symBinAddr: 0x43F1C, symSize: 0x4C }
  - { offset: 0x1C6380, size: 0x8, addend: 0x0, symName: '__ZN4core3ptr157drop_in_place$LT$core..result..Result$LT$alloc..sync..Arc$LT$dyn$u20$effect_log_core..storage..EffectStore$GT$$C$effect_log_core..error..StorageError$GT$$GT$17h24770349f466ca73E', symObjAddr: 0x20D0, symBinAddr: 0x43F68, symSize: 0x54 }
  - { offset: 0x1C63AF, size: 0x8, addend: 0x0, symName: '__ZN4core3ptr159drop_in_place$LT$alloc..vec..Vec$LT$$LP$effect_log_core..types..IntentRecord$C$core..option..Option$LT$effect_log_core..types..CompletionRecord$GT$$RP$$GT$$GT$17hffd5d4bc210c1c77E', symObjAddr: 0x2124, symBinAddr: 0x43FBC, symSize: 0x5C }
  - { offset: 0x1C63DE, size: 0x8, addend: 0x0, symName: '__ZN4core3ptr160drop_in_place$LT$tokio..sync..mutex..Mutex$LT$std..collections..hash..map..HashMap$LT$alloc..string..String$C$u64$GT$$GT$..lock..$u7b$$u7b$closure$u7d$$u7d$$GT$17h4cfddd2ca4bfc595E', symObjAddr: 0x2180, symBinAddr: 0x44018, symSize: 0x84 }
  - { offset: 0x1C6456, size: 0x8, addend: 0x0, symName: '__ZN4core3ptr163drop_in_place$LT$tokio..sync..mutex..Mutex$LT$std..collections..hash..map..HashMap$LT$alloc..string..String$C$u64$GT$$GT$..acquire..$u7b$$u7b$closure$u7d$$u7d$$GT$17h910786f16155110eE', symObjAddr: 0x2204, symBinAddr: 0x4409C, symSize: 0xC4 }
  - { offset: 0x1C64B1, size: 0x8, addend: 0x0, symName: '__ZN4core3ptr166drop_in_place$LT$alloc..raw_vec..RawVec$LT$$LP$effect_log_core..types..IntentRecord$C$core..option..Option$LT$effect_log_core..types..CompletionRecord$GT$$RP$$GT$$GT$17h4b63fc0fbc5765e4E', symObjAddr: 0x22C8, symBinAddr: 0x44160, symSize: 0x24 }
  - { offset: 0x1C64E0, size: 0x8, addend: 0x0, symName: '__ZN4core3ptr172drop_in_place$LT$core..task..poll..Poll$LT$core..option..Option$LT$core..result..Result$LT$serde_json..value..Value$C$effect_log_core..error..EffectLogError$GT$$GT$$GT$$GT$17h8aa3226f2e06210dE', symObjAddr: 0x2334, symBinAddr: 0x44184, symSize: 0x50 }
  - { offset: 0x1C650F, size: 0x8, addend: 0x0, symName: '__ZN4core3ptr172drop_in_place$LT$effect_log_native..PyEffectLog..new..$u7b$$u7b$closure$u7d$$u7d$..$u7b$$u7b$closure$u7d$$u7d$..$u7b$$u7b$closure$u7d$$u7d$..$u7b$$u7b$closure$u7d$$u7d$$GT$17h45e61c2e83186a15E', symObjAddr: 0x2384, symBinAddr: 0x441D4, symSize: 0x24 }
  - { offset: 0x1C653E, size: 0x8, addend: 0x0, symName: '__ZN4core3ptr172drop_in_place$LT$effect_log_native..PyEffectLog..new..$u7b$$u7b$closure$u7d$$u7d$..$u7b$$u7b$closure$u7d$$u7d$..$u7b$$u7b$closure$u7d$$u7d$..$u7b$$u7b$closure$u7d$$u7d$$GT$17h76a4ef38f8fbd895E', symObjAddr: 0x23A8, symBinAddr: 0x441F8, symSize: 0x24 }
  - { offset: 0x1C656D, size: 0x8, addend: 0x0, symName: '__ZN4core3ptr172drop_in_place$LT$effect_log_native..PyEffectLog..new..$u7b$$u7b$closure$u7d$$u7d$..$u7b$$u7b$closure$u7d$$u7d$..$u7b$$u7b$closure$u7d$$u7d$..$u7b$$u7b$closure$u7d$$u7d$$GT$17hfac47759410b0821E', symObjAddr: 0x23CC, symBinAddr: 0x4421C, symSize: 0x24 }
  - { offset: 0x1C659C, size: 0x8, addend: 0x0, symName: '__ZN4core3ptr175drop_in_place$LT$alloc..vec..into_iter..IntoIter$LT$$LP$effect_log_core..types..IntentRecord$C$core..option..Option$LT$effect_log_core..types..CompletionRecord$GT$$RP$$GT$$GT$17h6cd04154103d50f9E', symObjAddr: 0x23F0, symBinAddr: 0x44240, symSize: 0x24 }
  - { offset: 0x1C65CB, size: 0x8, addend: 0x0, symName: '__ZN4core3ptr177drop_in_place$LT$$LP$effect_log_core..types..IntentRecord$C$core..option..Option$LT$effect_log_core..types..CompletionRecord$GT$$C$effect_log_core..types..RecoveryAction$RP$$GT$17h0281298c49c1ca33E', symObjAddr: 0x2414, symBinAddr: 0x44264, symSize: 0x60 }
  - { offset: 0x1C65FA, size: 0x8, addend: 0x0, symName: '__ZN4core3ptr177drop_in_place$LT$core..pin..Pin$LT$alloc..boxed..Box$LT$dyn$u20$core..future..future..Future$u2b$Output$u20$$u3d$$u20$serde_json..value..Value$u2b$core..marker..Send$GT$$GT$$GT$17h9a9f79f4b724e6c9E', symObjAddr: 0x2474, symBinAddr: 0x442C4, symSize: 0x24 }
  - { offset: 0x1C6629, size: 0x8, addend: 0x0, symName: '__ZN4core3ptr182drop_in_place$LT$alloc..vec..in_place_drop..InPlaceDrop$LT$$LP$effect_log_core..types..IntentRecord$C$core..option..Option$LT$effect_log_core..types..CompletionRecord$GT$$RP$$GT$$GT$17h174e77dcb0c45bc4E', symObjAddr: 0x24E0, symBinAddr: 0x442E8, symSize: 0x24 }
  - { offset: 0x1C6658, size: 0x8, addend: 0x0, symName: '__ZN4core3ptr184drop_in_place$LT$core..task..poll..Poll$LT$core..option..Option$LT$core..result..Result$LT$effect_log_core..executor..EffectLog$C$effect_log_core..error..EffectLogError$GT$$GT$$GT$$GT$17h68d32dcb0830e79eE', symObjAddr: 0x2504, symBinAddr: 0x4430C, symSize: 0x50 }
  - { offset: 0x1C6687, size: 0x8, addend: 0x0, symName: '__ZN4core3ptr184drop_in_place$LT$tokio..runtime..scheduler..multi_thread..MultiThread..block_on$LT$effect_log_native..PyEffectLog..new..$u7b$$u7b$closure$u7d$$u7d$$GT$..$u7b$$u7b$closure$u7d$$u7d$$GT$17h6d8c99ad6470baa7E', symObjAddr: 0x2554, symBinAddr: 0x4435C, symSize: 0x24 }
  - { offset: 0x1C66B6, size: 0x8, addend: 0x0, symName: '__ZN4core3ptr184drop_in_place$LT$tokio_rusqlite..start$LT$tokio_rusqlite..Connection..open$LT$$RF$str$GT$..$u7b$$u7b$closure$u7d$$u7d$..$u7b$$u7b$closure$u7d$$u7d$$GT$..$u7b$$u7b$closure$u7d$$u7d$$GT$17h673178cd0904ca77E', symObjAddr: 0x2578, symBinAddr: 0x44380, symSize: 0x100 }
  - { offset: 0x1C6759, size: 0x8, addend: 0x0, symName: '__ZN4core3ptr185drop_in_place$LT$core..option..Option$LT$core..result..Result$LT$alloc..sync..Arc$LT$dyn$u20$effect_log_core..storage..EffectStore$GT$$C$effect_log_core..error..StorageError$GT$$GT$$GT$17hc464d1401020f8bbE', symObjAddr: 0x2678, symBinAddr: 0x44480, symSize: 0x44 }
  - { offset: 0x1C6788, size: 0x8, addend: 0x0, symName: '__ZN4core3ptr187drop_in_place$LT$$u5b$$LP$effect_log_core..types..IntentRecord$C$core..option..Option$LT$effect_log_core..types..CompletionRecord$GT$$C$effect_log_core..types..RecoveryAction$RP$$u5d$$GT$17h3338edb995438ad6E', symObjAddr: 0x26BC, symBinAddr: 0x444C4, symSize: 0xC4 }
  - { offset: 0x1C67B7, size: 0x8, addend: 0x0, symName: '__ZN4core3ptr187drop_in_place$LT$core..task..poll..Poll$LT$core..result..Result$LT$alloc..sync..Arc$LT$dyn$u20$effect_log_core..storage..EffectStore$GT$$C$effect_log_core..error..StorageError$GT$$GT$$GT$17hb5516f333c8bfa93E', symObjAddr: 0x2780, symBinAddr: 0x44588, symSize: 0x48 }
  - { offset: 0x1C67E6, size: 0x8, addend: 0x0, symName: '__ZN4core3ptr188drop_in_place$LT$$LT$alloc..vec..into_iter..IntoIter$LT$T$C$A$GT$$u20$as$u20$core..ops..drop..Drop$GT$..drop..DropGuard$LT$effect_log_core..storage..WalEntry$C$alloc..alloc..Global$GT$$GT$17h688995616b8d9305E', symObjAddr: 0x27C8, symBinAddr: 0x445D0, symSize: 0x24 }
  - { offset: 0x1C6815, size: 0x8, addend: 0x0, symName: '__ZN4core3ptr188drop_in_place$LT$tokio..runtime..scheduler..multi_thread..MultiThread..block_on$LT$effect_log_native..PyEffectLog..execute..$u7b$$u7b$closure$u7d$$u7d$$GT$..$u7b$$u7b$closure$u7d$$u7d$$GT$17h022748e77031da20E', symObjAddr: 0x27EC, symBinAddr: 0x445F4, symSize: 0x24 }
  - { offset: 0x1C6844, size: 0x8, addend: 0x0, symName: '__ZN4core3ptr188drop_in_place$LT$tokio..runtime..scheduler..multi_thread..MultiThread..block_on$LT$effect_log_native..PyEffectLog..history..$u7b$$u7b$closure$u7d$$u7d$$GT$..$u7b$$u7b$closure$u7d$$u7d$$GT$17h6b4bea692da2881dE', symObjAddr: 0x2810, symBinAddr: 0x44618, symSize: 0x24 }
  - { offset: 0x1C6873, size: 0x8, addend: 0x0, symName: '__ZN4core3ptr189drop_in_place$LT$tokio..sync..mutex..Mutex$LT$std..collections..hash..map..HashMap$LT$alloc..string..String$C$u64$GT$$GT$..lock..$u7b$$u7b$closure$u7d$$u7d$..$u7b$$u7b$closure$u7d$$u7d$$GT$17h66a23a09a76553efE', symObjAddr: 0x2834, symBinAddr: 0x4463C, symSize: 0x84 }
  - { offset: 0x1C68B6, size: 0x8, addend: 0x0, symName: '__ZN4core3ptr190drop_in_place$LT$$LT$alloc..vec..into_iter..IntoIter$LT$T$C$A$GT$$u20$as$u20$core..ops..drop..Drop$GT$..drop..DropGuard$LT$effect_log_core..types..IntentRecord$C$alloc..alloc..Global$GT$$GT$17h1a2bbc549f69932aE', symObjAddr: 0x28B8, symBinAddr: 0x446C0, symSize: 0x24 }
  - { offset: 0x1C68E5, size: 0x8, addend: 0x0, symName: '__ZN4core3ptr191drop_in_place$LT$alloc..boxed..Box$LT$dyn$u20$core..future..future..Future$u2b$Output$u20$$u3d$$u20$core..result..Result$LT$$LP$$RP$$C$alloc..string..String$GT$$u2b$core..marker..Send$GT$$GT$17h508abe7fa64e6be0E', symObjAddr: 0x28DC, symBinAddr: 0x446E4, symSize: 0x80 }
  - { offset: 0x1C6914, size: 0x8, addend: 0x0, symName: '__ZN4core3ptr199drop_in_place$LT$alloc..sync..Arc$LT$tokio..sync..rwlock..RwLock$LT$std..collections..hash..map..HashMap$LT$effect_log_core..types..EffectId$C$effect_log_core..types..CompletionRecord$GT$$GT$$GT$$GT$17hca442a5cfc77505bE', symObjAddr: 0x295C, symBinAddr: 0x44764, symSize: 0x24 }
  - { offset: 0x1C6943, size: 0x8, addend: 0x0, symName: '__ZN4core3ptr200drop_in_place$LT$alloc..vec..Vec$LT$$LP$effect_log_core..types..IntentRecord$C$core..option..Option$LT$effect_log_core..types..CompletionRecord$GT$$C$effect_log_core..types..RecoveryAction$RP$$GT$$GT$17hd6648d6655023a8eE', symObjAddr: 0x2980, symBinAddr: 0x44788, symSize: 0x5C }
  - { offset: 0x1C6972, size: 0x8, addend: 0x0, symName: '__ZN4core3ptr201drop_in_place$LT$tokio..runtime..scheduler..multi_thread..MultiThread..block_on$LT$effect_log_core..executor..EffectLogBuilder..recover..$u7b$$u7b$closure$u7d$$u7d$$GT$..$u7b$$u7b$closure$u7d$$u7d$$GT$17h3cb4279b1c42e73bE', symObjAddr: 0x29DC, symBinAddr: 0x447E4, symSize: 0x24 }
  - { offset: 0x1C69A1, size: 0x8, addend: 0x0, symName: '__ZN4core3ptr206drop_in_place$LT$alloc..boxed..Box$LT$dyn$u20$core..future..future..Future$u2b$Output$u20$$u3d$$u20$core..result..Result$LT$$LP$$RP$$C$effect_log_core..error..StorageError$GT$$u2b$core..marker..Send$GT$$GT$17h4f02f71638d4611bE', symObjAddr: 0x2A00, symBinAddr: 0x44808, symSize: 0x80 }
  - { offset: 0x1C69D0, size: 0x8, addend: 0x0, symName: '__ZN4core3ptr207drop_in_place$LT$alloc..raw_vec..RawVec$LT$$LP$effect_log_core..types..IntentRecord$C$core..option..Option$LT$effect_log_core..types..CompletionRecord$GT$$C$effect_log_core..types..RecoveryAction$RP$$GT$$GT$17h3c81721fa3c522f7E', symObjAddr: 0x2A80, symBinAddr: 0x44888, symSize: 0x24 }
  - { offset: 0x1C69FF, size: 0x8, addend: 0x0, symName: '__ZN4core3ptr210drop_in_place$LT$tokio_rusqlite..Connection..call$LT$effect_log_core..storage..sqlite..SqliteStore..open..$u7b$$u7b$closure$u7d$$u7d$..$u7b$$u7b$closure$u7d$$u7d$$C$$LP$$RP$$GT$..$u7b$$u7b$closure$u7d$$u7d$$GT$17h43ccf5246ccb53a2E', symObjAddr: 0x2AA4, symBinAddr: 0x448AC, symSize: 0xA0 }
  - { offset: 0x1C6AA7, size: 0x8, addend: 0x0, symName: '__ZN4core3ptr213drop_in_place$LT$core..pin..Pin$LT$alloc..boxed..Box$LT$dyn$u20$core..future..future..Future$u2b$Output$u20$$u3d$$u20$core..result..Result$LT$$LP$$RP$$C$alloc..string..String$GT$$u2b$core..marker..Send$GT$$GT$$GT$17h72c75988781d48ffE', symObjAddr: 0x2B44, symBinAddr: 0x4494C, symSize: 0x24 }
  - { offset: 0x1C6AD6, size: 0x8, addend: 0x0, symName: '__ZN4core3ptr213drop_in_place$LT$tokio_rusqlite..start$LT$tokio_rusqlite..Connection..open$LT$$RF$str$GT$..$u7b$$u7b$closure$u7d$$u7d$..$u7b$$u7b$closure$u7d$$u7d$$GT$..$u7b$$u7b$closure$u7d$$u7d$..$u7b$$u7b$closure$u7d$$u7d$$GT$17h44b18d0197576019E', symObjAddr: 0x2B68, symBinAddr: 0x44970, symSize: 0x8C }
  - { offset: 0x1C6B05, size: 0x8, addend: 0x0, symName: '__ZN4core3ptr213drop_in_place$LT$tokio_rusqlite..start$LT$tokio_rusqlite..Connection..open$LT$$RF$str$GT$..$u7b$$u7b$closure$u7d$$u7d$..$u7b$$u7b$closure$u7d$$u7d$$GT$..$u7b$$u7b$closure$u7d$$u7d$..$u7b$$u7b$closure$u7d$$u7d$$GT$17h473d5dbc70eb9dbeE', symObjAddr: 0x2BF4, symBinAddr: 0x449FC, symSize: 0x24 }
  - { offset: 0x1C6B34, size: 0x8, addend: 0x0, symName: '__ZN4core3ptr215drop_in_place$LT$$LT$pyo3..instance..Bound$LT$pyo3..types..any..PyAny$GT$$u20$as$u20$pyo3..types..any..PyAnyMethods$GT$..call_method$LT$$RF$str$C$$LP$alloc..string..String$C$$RP$$GT$..$u7b$$u7b$closure$u7d$$u7d$$GT$17h831f715af1d82202E', symObjAddr: 0x2C18, symBinAddr: 0x44A20, symSize: 0x24 }
  - { offset: 0x1C6B63, size: 0x8, addend: 0x0, symName: '__ZN4core3ptr215drop_in_place$LT$core..task..poll..Poll$LT$core..option..Option$LT$core..result..Result$LT$alloc..sync..Arc$LT$dyn$u20$effect_log_core..storage..EffectStore$GT$$C$effect_log_core..error..StorageError$GT$$GT$$GT$$GT$17h6a4b3099e4a66b7fE', symObjAddr: 0x2C3C, symBinAddr: 0x44A44, symSize: 0x48 }
  - { offset: 0x1C6B92, size: 0x8, addend: 0x0, symName: '__ZN4core3ptr216drop_in_place$LT$alloc..vec..into_iter..IntoIter$LT$$LP$effect_log_core..types..IntentRecord$C$core..option..Option$LT$effect_log_core..types..CompletionRecord$GT$$C$effect_log_core..types..RecoveryAction$RP$$GT$$GT$17h6cf53ceda24fa123E', symObjAddr: 0x2C84, symBinAddr: 0x44A8C, symSize: 0x24 }
  - { offset: 0x1C6BC1, size: 0x8, addend: 0x0, symName: '__ZN4core3ptr227drop_in_place$LT$alloc..sync..Weak$LT$tokio..sync..rwlock..RwLock$LT$std..collections..hash..map..HashMap$LT$effect_log_core..types..EffectId$C$effect_log_core..types..CompletionRecord$GT$$GT$$C$$RF$alloc..alloc..Global$GT$$GT$17h4864e305cf47182aE', symObjAddr: 0x2CA8, symBinAddr: 0x44AB0, symSize: 0x24 }
  - { offset: 0x1C6BF0, size: 0x8, addend: 0x0, symName: '__ZN4core3ptr227drop_in_place$LT$core..panic..unwind_safe..AssertUnwindSafe$LT$core..pin..Pin$LT$alloc..boxed..Box$LT$dyn$u20$core..future..future..Future$u2b$Output$u20$$u3d$$u20$serde_json..value..Value$u2b$core..marker..Send$GT$$GT$$GT$$GT$17hfbbb4305e0bfb7aaE', symObjAddr: 0x2CCC, symBinAddr: 0x44AD4, symSize: 0x24 }
  - { offset: 0x1C6C1F, size: 0x8, addend: 0x0, symName: '__ZN4core3ptr228drop_in_place$LT$core..pin..Pin$LT$alloc..boxed..Box$LT$dyn$u20$core..future..future..Future$u2b$Output$u20$$u3d$$u20$core..result..Result$LT$$LP$$RP$$C$effect_log_core..error..StorageError$GT$$u2b$core..marker..Send$GT$$GT$$GT$17he8e046eca4fffc4fE', symObjAddr: 0x2CF0, symBinAddr: 0x44AF8, symSize: 0x24 }
  - { offset: 0x1C6C4E, size: 0x8, addend: 0x0, symName: '__ZN4core3ptr228drop_in_place$LT$core..result..Result$LT$alloc..vec..Vec$LT$$LP$effect_log_core..types..IntentRecord$C$core..option..Option$LT$effect_log_core..types..CompletionRecord$GT$$RP$$GT$$C$effect_log_core..error..EffectLogError$GT$$GT$17he236317f87ce7ea8E', symObjAddr: 0x2D14, symBinAddr: 0x44B1C, symSize: 0x5C }
  - { offset: 0x1C6C7D, size: 0x8, addend: 0x0, symName: '__ZN4core3ptr231drop_in_place$LT$tokio..runtime..scheduler..multi_thread..MultiThread..block_on$LT$core..pin..Pin$LT$alloc..boxed..Box$LT$effect_log_native..PyEffectLog..new..$u7b$$u7b$closure$u7d$$u7d$$GT$$GT$$GT$..$u7b$$u7b$closure$u7d$$u7d$$GT$17h4102d2a89bb87a87E', symObjAddr: 0x2DB8, symBinAddr: 0x44B78, symSize: 0x24 }
  - { offset: 0x1C6CAC, size: 0x8, addend: 0x0, symName: '__ZN4core3ptr235drop_in_place$LT$tokio..runtime..scheduler..multi_thread..MultiThread..block_on$LT$core..pin..Pin$LT$alloc..boxed..Box$LT$effect_log_native..PyEffectLog..execute..$u7b$$u7b$closure$u7d$$u7d$$GT$$GT$$GT$..$u7b$$u7b$closure$u7d$$u7d$$GT$17ha5f55c25ab56543cE', symObjAddr: 0x2DDC, symBinAddr: 0x44B9C, symSize: 0x24 }
  - { offset: 0x1C6CDB, size: 0x8, addend: 0x0, symName: '__ZN4core3ptr235drop_in_place$LT$tokio..runtime..scheduler..multi_thread..MultiThread..block_on$LT$core..pin..Pin$LT$alloc..boxed..Box$LT$effect_log_native..PyEffectLog..history..$u7b$$u7b$closure$u7d$$u7d$$GT$$GT$$GT$..$u7b$$u7b$closure$u7d$$u7d$$GT$17h37ec9a0940663db2E', symObjAddr: 0x2E00, symBinAddr: 0x44BC0, symSize: 0x24 }
  - { offset: 0x1C6D0A, size: 0x8, addend: 0x0, symName: '__ZN4core3ptr239drop_in_place$LT$tokio_rusqlite..Connection..call$LT$effect_log_core..storage..sqlite..SqliteStore..open..$u7b$$u7b$closure$u7d$$u7d$..$u7b$$u7b$closure$u7d$$u7d$$C$$LP$$RP$$GT$..$u7b$$u7b$closure$u7d$$u7d$..$u7b$$u7b$closure$u7d$$u7d$$GT$17h8a4012883d1e58c7E', symObjAddr: 0x2E6C, symBinAddr: 0x44BE4, symSize: 0x24 }
  - { offset: 0x1C6D39, size: 0x8, addend: 0x0, symName: '__ZN4core3ptr243drop_in_place$LT$$LT$pyo3..instance..Bound$LT$pyo3..types..any..PyAny$GT$$u20$as$u20$pyo3..types..any..PyAnyMethods$GT$..call_method$LT$$RF$str$C$$LP$pyo3..instance..Py$LT$pyo3..types..any..PyAny$GT$$C$$RP$$GT$..$u7b$$u7b$closure$u7d$$u7d$$GT$17h6ded5d5dec0f735eE', symObjAddr: 0x2ED8, symBinAddr: 0x44C08, symSize: 0x24 }
  - { offset: 0x1C6D68, size: 0x8, addend: 0x0, symName: '__ZN4core3ptr247drop_in_place$LT$tokio..runtime..scheduler..current_thread..CoreGuard..block_on$LT$core..pin..Pin$LT$$RF$mut$u20$effect_log_native..PyEffectLog..new..$u7b$$u7b$closure$u7d$$u7d$$GT$$GT$..$u7b$$u7b$closure$u7d$$u7d$..$u7b$$u7b$closure$u7d$$u7d$$GT$17hdfb08d98e17f032fE', symObjAddr: 0x2EFC, symBinAddr: 0x44C2C, symSize: 0x24 }
  - { offset: 0x1C6D97, size: 0x8, addend: 0x0, symName: '__ZN4core3ptr248drop_in_place$LT$tokio..runtime..scheduler..multi_thread..MultiThread..block_on$LT$core..pin..Pin$LT$alloc..boxed..Box$LT$effect_log_core..executor..EffectLogBuilder..recover..$u7b$$u7b$closure$u7d$$u7d$$GT$$GT$$GT$..$u7b$$u7b$closure$u7d$$u7d$$GT$17h4d5babbac7c142abE', symObjAddr: 0x2F20, symBinAddr: 0x44C50, symSize: 0x24 }
  - { offset: 0x1C6DC6, size: 0x8, addend: 0x0, symName: '__ZN4core3ptr251drop_in_place$LT$tokio..runtime..scheduler..current_thread..CoreGuard..block_on$LT$core..pin..Pin$LT$$RF$mut$u20$effect_log_native..PyEffectLog..execute..$u7b$$u7b$closure$u7d$$u7d$$GT$$GT$..$u7b$$u7b$closure$u7d$$u7d$..$u7b$$u7b$closure$u7d$$u7d$$GT$17h30369ec9cc3a203dE', symObjAddr: 0x2F44, symBinAddr: 0x44C74, symSize: 0x24 }
  - { offset: 0x1C6DF5, size: 0x8, addend: 0x0, symName: '__ZN4core3ptr251drop_in_place$LT$tokio..runtime..scheduler..current_thread..CoreGuard..block_on$LT$core..pin..Pin$LT$$RF$mut$u20$effect_log_native..PyEffectLog..history..$u7b$$u7b$closure$u7d$$u7d$$GT$$GT$..$u7b$$u7b$closure$u7d$$u7d$..$u7b$$u7b$closure$u7d$$u7d$$GT$17hc386d9605deb3e66E', symObjAddr: 0x2F68, symBinAddr: 0x44C98, symSize: 0x24 }
  - { offset: 0x1C6E24, size: 0x8, addend: 0x0, symName: '__ZN4core3ptr255drop_in_place$LT$alloc..boxed..Box$LT$dyn$u20$core..future..future..Future$u2b$Output$u20$$u3d$$u20$core..result..Result$LT$alloc..vec..Vec$LT$effect_log_core..storage..WalEntry$GT$$C$effect_log_core..error..StorageError$GT$$u2b$core..marker..Send$GT$$GT$17h7254fbd372bdecbeE', symObjAddr: 0x2F8C, symBinAddr: 0x44CBC, symSize: 0x80 }
  - { offset: 0x1C6E53, size: 0x8, addend: 0x0, symName: '__ZN4core3ptr256drop_in_place$LT$core..option..Option$LT$core..result..Result$LT$alloc..vec..Vec$LT$$LP$effect_log_core..types..IntentRecord$C$core..option..Option$LT$effect_log_core..types..CompletionRecord$GT$$RP$$GT$$C$effect_log_core..error..EffectLogError$GT$$GT$$GT$17hce63bbd8d6d0f1ccE', symObjAddr: 0x300C, symBinAddr: 0x44D3C, symSize: 0x4C }
  - { offset: 0x1C6E82, size: 0x8, addend: 0x0, symName: '__ZN4core3ptr258drop_in_place$LT$core..task..poll..Poll$LT$core..result..Result$LT$alloc..vec..Vec$LT$$LP$effect_log_core..types..IntentRecord$C$core..option..Option$LT$effect_log_core..types..CompletionRecord$GT$$RP$$GT$$C$effect_log_core..error..EffectLogError$GT$$GT$$GT$17hd660f08da6284ee3E', symObjAddr: 0x3058, symBinAddr: 0x44D88, symSize: 0x50 }
  - { offset: 0x1C6EB1, size: 0x8, addend: 0x0, symName: '__ZN4core3ptr262drop_in_place$LT$alloc..boxed..Box$LT$dyn$u20$core..future..future..Future$u2b$Output$u20$$u3d$$u20$core..result..Result$LT$core..option..Option$LT$effect_log_core..types..IntentRecord$GT$$C$effect_log_core..error..StorageError$GT$$u2b$core..marker..Send$GT$$GT$17h502a37f5a5a3960eE', symObjAddr: 0x30A8, symBinAddr: 0x44DD8, symSize: 0x80 }
  - { offset: 0x1C6EE0, size: 0x8, addend: 0x0, symName: '__ZN4core3ptr264drop_in_place$LT$tokio..runtime..scheduler..current_thread..CoreGuard..block_on$LT$core..pin..Pin$LT$$RF$mut$u20$effect_log_core..executor..EffectLogBuilder..recover..$u7b$$u7b$closure$u7d$$u7d$$GT$$GT$..$u7b$$u7b$closure$u7d$$u7d$..$u7b$$u7b$closure$u7d$$u7d$$GT$17h3354c723b2ac6225E', symObjAddr: 0x3128, symBinAddr: 0x44E58, symSize: 0x24 }
  - { offset: 0x1C6F0F, size: 0x8, addend: 0x0, symName: '__ZN4core3ptr266drop_in_place$LT$alloc..boxed..Box$LT$dyn$u20$core..future..future..Future$u2b$Output$u20$$u3d$$u20$core..result..Result$LT$core..option..Option$LT$effect_log_core..types..CompletionRecord$GT$$C$effect_log_core..error..StorageError$GT$$u2b$core..marker..Send$GT$$GT$17hb619b407a32f83dcE', symObjAddr: 0x314C, symBinAddr: 0x44E7C, symSize: 0x80 }
  - { offset: 0x1C6F3E, size: 0x8, addend: 0x0, symName: '__ZN4core3ptr269drop_in_place$LT$$LT$alloc..vec..into_iter..IntoIter$LT$T$C$A$GT$$u20$as$u20$core..ops..drop..Drop$GT$..drop..DropGuard$LT$$LP$effect_log_core..types..IntentRecord$C$core..option..Option$LT$effect_log_core..types..CompletionRecord$GT$$RP$$C$alloc..alloc..Global$GT$$GT$17hacd2de2ec158a9d9E', symObjAddr: 0x31CC, symBinAddr: 0x44EFC, symSize: 0x24 }
  - { offset: 0x1C6F6D, size: 0x8, addend: 0x0, symName: '__ZN4core3ptr274drop_in_place$LT$std..thread..Builder..spawn_unchecked_..MaybeDangling$LT$tokio_rusqlite..start$LT$tokio_rusqlite..Connection..open$LT$$RF$str$GT$..$u7b$$u7b$closure$u7d$$u7d$..$u7b$$u7b$closure$u7d$$u7d$$GT$..$u7b$$u7b$closure$u7d$$u7d$..$u7b$$u7b$closure$u7d$$u7d$$GT$$GT$17h5fdd7f5eab38dc3dE', symObjAddr: 0x31F0, symBinAddr: 0x44F20, symSize: 0x24 }
  - { offset: 0x1C6F9C, size: 0x8, addend: 0x0, symName: '__ZN4core3ptr277drop_in_place$LT$core..pin..Pin$LT$alloc..boxed..Box$LT$dyn$u20$core..future..future..Future$u2b$Output$u20$$u3d$$u20$core..result..Result$LT$alloc..vec..Vec$LT$effect_log_core..storage..WalEntry$GT$$C$effect_log_core..error..StorageError$GT$$u2b$core..marker..Send$GT$$GT$$GT$17h6a5b7fe41439f56cE', symObjAddr: 0x3214, symBinAddr: 0x44F44, symSize: 0x24 }
  - { offset: 0x1C6FCB, size: 0x8, addend: 0x0, symName: '__ZN4core3ptr284drop_in_place$LT$core..pin..Pin$LT$alloc..boxed..Box$LT$dyn$u20$core..future..future..Future$u2b$Output$u20$$u3d$$u20$core..result..Result$LT$core..option..Option$LT$effect_log_core..types..IntentRecord$GT$$C$effect_log_core..error..StorageError$GT$$u2b$core..marker..Send$GT$$GT$$GT$17hb2a9614ab560bd2cE', symObjAddr: 0x3238, symBinAddr: 0x44F68, symSize: 0x24 }
  - { offset: 0x1C6FFA, size: 0x8, addend: 0x0, symName: '__ZN4core3ptr286drop_in_place$LT$core..task..poll..Poll$LT$core..option..Option$LT$core..result..Result$LT$alloc..vec..Vec$LT$$LP$effect_log_core..types..IntentRecord$C$core..option..Option$LT$effect_log_core..types..CompletionRecord$GT$$RP$$GT$$C$effect_log_core..error..EffectLogError$GT$$GT$$GT$$GT$17h392594a72d041936E', symObjAddr: 0x325C, symBinAddr: 0x44F8C, symSize: 0x50 }
  - { offset: 0x1C7029, size: 0x8, addend: 0x0, symName: '__ZN4core3ptr288drop_in_place$LT$core..pin..Pin$LT$alloc..boxed..Box$LT$dyn$u20$core..future..future..Future$u2b$Output$u20$$u3d$$u20$core..result..Result$LT$core..option..Option$LT$effect_log_core..types..CompletionRecord$GT$$C$effect_log_core..error..StorageError$GT$$u2b$core..marker..Send$GT$$GT$$GT$17hcd2bf9637a25a521E', symObjAddr: 0x32AC, symBinAddr: 0x44FDC, symSize: 0x24 }
  - { offset: 0x1C7058, size: 0x8, addend: 0x0, symName: '__ZN4core3ptr294drop_in_place$LT$tokio..runtime..scheduler..current_thread..CoreGuard..block_on$LT$core..pin..Pin$LT$$RF$mut$u20$core..pin..Pin$LT$alloc..boxed..Box$LT$effect_log_native..PyEffectLog..new..$u7b$$u7b$closure$u7d$$u7d$$GT$$GT$$GT$$GT$..$u7b$$u7b$closure$u7d$$u7d$..$u7b$$u7b$closure$u7d$$u7d$$GT$17h1b34720b113329e4E', symObjAddr: 0x32D0, symBinAddr: 0x45000, symSize: 0x24 }
  - { offset: 0x1C7087, size: 0x8, addend: 0x0, symName: '__ZN4core3ptr298drop_in_place$LT$tokio..runtime..scheduler..current_thread..CoreGuard..block_on$LT$core..pin..Pin$LT$$RF$mut$u20$core..pin..Pin$LT$alloc..boxed..Box$LT$effect_log_native..PyEffectLog..execute..$u7b$$u7b$closure$u7d$$u7d$$GT$$GT$$GT$$GT$..$u7b$$u7b$closure$u7d$$u7d$..$u7b$$u7b$closure$u7d$$u7d$$GT$17h0371225ab37a4b09E', symObjAddr: 0x32F4, symBinAddr: 0x45024, symSize: 0x24 }
  - { offset: 0x1C70B6, size: 0x8, addend: 0x0, symName: '__ZN4core3ptr298drop_in_place$LT$tokio..runtime..scheduler..current_thread..CoreGuard..block_on$LT$core..pin..Pin$LT$$RF$mut$u20$core..pin..Pin$LT$alloc..boxed..Box$LT$effect_log_native..PyEffectLog..history..$u7b$$u7b$closure$u7d$$u7d$$GT$$GT$$GT$$GT$..$u7b$$u7b$closure$u7d$$u7d$..$u7b$$u7b$closure$u7d$$u7d$$GT$17h21c13b5f171d3c98E', symObjAddr: 0x3318, symBinAddr: 0x45048, symSize: 0x24 }
  - { offset: 0x1C70E5, size: 0x8, addend: 0x0, symName: '__ZN4core3ptr299drop_in_place$LT$std..thread..Builder..spawn_unchecked_$LT$tokio_rusqlite..start$LT$tokio_rusqlite..Connection..open$LT$$RF$str$GT$..$u7b$$u7b$closure$u7d$$u7d$..$u7b$$u7b$closure$u7d$$u7d$$GT$..$u7b$$u7b$closure$u7d$$u7d$..$u7b$$u7b$closure$u7d$$u7d$$C$$LP$$RP$$GT$..$u7b$$u7b$closure$u7d$$u7d$$GT$17hb4b858808451a567E', symObjAddr: 0x333C, symBinAddr: 0x4506C, symSize: 0xBC }
  - { offset: 0x1C7114, size: 0x8, addend: 0x0, symName: '__ZN4core3ptr310drop_in_place$LT$$LT$alloc..vec..into_iter..IntoIter$LT$T$C$A$GT$$u20$as$u20$core..ops..drop..Drop$GT$..drop..DropGuard$LT$$LP$effect_log_core..types..IntentRecord$C$core..option..Option$LT$effect_log_core..types..CompletionRecord$GT$$C$effect_log_core..types..RecoveryAction$RP$$C$alloc..alloc..Global$GT$$GT$17h421ecb0253f3e111E', symObjAddr: 0x33F8, symBinAddr: 0x45128, symSize: 0x24 }
  - { offset: 0x1C7143, size: 0x8, addend: 0x0, symName: '__ZN4core3ptr311drop_in_place$LT$tokio..runtime..scheduler..current_thread..CoreGuard..block_on$LT$core..pin..Pin$LT$$RF$mut$u20$core..pin..Pin$LT$alloc..boxed..Box$LT$effect_log_core..executor..EffectLogBuilder..recover..$u7b$$u7b$closure$u7d$$u7d$$GT$$GT$$GT$$GT$..$u7b$$u7b$closure$u7d$$u7d$..$u7b$$u7b$closure$u7d$$u7d$$GT$17hc513acf864209e75E', symObjAddr: 0x341C, symBinAddr: 0x4514C, symSize: 0x24 }
  - { offset: 0x1C7172, size: 0x8, addend: 0x0, symName: '__ZN4core3ptr354drop_in_place$LT$alloc..vec..in_place_drop..InPlaceDstDataSrcBufDrop$LT$$LP$effect_log_core..types..IntentRecord$C$core..option..Option$LT$effect_log_core..types..CompletionRecord$GT$$C$effect_log_core..types..RecoveryAction$RP$$C$$LP$effect_log_core..types..IntentRecord$C$core..option..Option$LT$effect_log_core..types..CompletionRecord$GT$$RP$$GT$$GT$17he240c51eaecdddfbE', symObjAddr: 0x3440, symBinAddr: 0x45170, symSize: 0x24 }
  - { offset: 0x1C71A1, size: 0x8, addend: 0x0, symName: '__ZN4core3ptr355drop_in_place$LT$tokio..runtime..scheduler..current_thread..Context..run_task$LT$$LP$$RP$$C$tokio..runtime..scheduler..current_thread..CoreGuard..block_on$LT$core..pin..Pin$LT$$RF$mut$u20$effect_log_native..PyEffectLog..new..$u7b$$u7b$closure$u7d$$u7d$$GT$$GT$..$u7b$$u7b$closure$u7d$$u7d$..$u7b$$u7b$closure$u7d$$u7d$$GT$..$u7b$$u7b$closure$u7d$$u7d$$GT$17h8dd350cf43a847cfE', symObjAddr: 0x3464, symBinAddr: 0x45194, symSize: 0x24 }
  - { offset: 0x1C71D0, size: 0x8, addend: 0x0, symName: '__ZN4core3ptr359drop_in_place$LT$tokio..runtime..scheduler..current_thread..Context..run_task$LT$$LP$$RP$$C$tokio..runtime..scheduler..current_thread..CoreGuard..block_on$LT$core..pin..Pin$LT$$RF$mut$u20$effect_log_native..PyEffectLog..execute..$u7b$$u7b$closure$u7d$$u7d$$GT$$GT$..$u7b$$u7b$closure$u7d$$u7d$..$u7b$$u7b$closure$u7d$$u7d$$GT$..$u7b$$u7b$closure$u7d$$u7d$$GT$17h0a58c84682d34ec2E', symObjAddr: 0x3488, symBinAddr: 0x451B8, symSize: 0x24 }
  - { offset: 0x1C71FF, size: 0x8, addend: 0x0, symName: '__ZN4core3ptr359drop_in_place$LT$tokio..runtime..scheduler..current_thread..Context..run_task$LT$$LP$$RP$$C$tokio..runtime..scheduler..current_thread..CoreGuard..block_on$LT$core..pin..Pin$LT$$RF$mut$u20$effect_log_native..PyEffectLog..history..$u7b$$u7b$closure$u7d$$u7d$$GT$$GT$..$u7b$$u7b$closure$u7d$$u7d$..$u7b$$u7b$closure$u7d$$u7d$$GT$..$u7b$$u7b$closure$u7d$$u7d$$GT$17h6c2fe352029db7f9E', symObjAddr: 0x34AC, symBinAddr: 0x451DC, symSize: 0x24 }
  - { offset: 0x1C722E, size: 0x8, addend: 0x0, symName: '__ZN4core3ptr360drop_in_place$LT$core..iter..adapters..map..Map$LT$alloc..vec..into_iter..IntoIter$LT$$LP$effect_log_core..types..IntentRecord$C$core..option..Option$LT$effect_log_core..types..CompletionRecord$GT$$C$effect_log_core..types..RecoveryAction$RP$$GT$$C$effect_log_core..executor..EffectLog..history..$u7b$$u7b$closure$u7d$$u7d$..$u7b$$u7b$closure$u7d$$u7d$$GT$$GT$17hf3a713db31e08b65E', symObjAddr: 0x34D0, symBinAddr: 0x45200, symSize: 0x24 }
  - { offset: 0x1C725D, size: 0x8, addend: 0x0, symName: '__ZN4core3ptr372drop_in_place$LT$tokio..runtime..scheduler..current_thread..Context..run_task$LT$$LP$$RP$$C$tokio..runtime..scheduler..current_thread..CoreGuard..block_on$LT$core..pin..Pin$LT$$RF$mut$u20$effect_log_core..executor..EffectLogBuilder..recover..$u7b$$u7b$closure$u7d$$u7d$$GT$$GT$..$u7b$$u7b$closure$u7d$$u7d$..$u7b$$u7b$closure$u7d$$u7d$$GT$..$u7b$$u7b$closure$u7d$$u7d$$GT$17h2c3747c4d781b30fE', symObjAddr: 0x34F4, symBinAddr: 0x45224, symSize: 0x24 }
  - { offset: 0x1C728C, size: 0x8, addend: 0x0, symName: '__ZN4core3ptr402drop_in_place$LT$tokio..runtime..scheduler..current_thread..Context..run_task$LT$$LP$$RP$$C$tokio..runtime..scheduler..current_thread..CoreGuard..block_on$LT$core..pin..Pin$LT$$RF$mut$u20$core..pin..Pin$LT$alloc..boxed..Box$LT$effect_log_native..PyEffectLog..new..$u7b$$u7b$closure$u7d$$u7d$$GT$$GT$$GT$$GT$..$u7b$$u7b$closure$u7d$$u7d$..$u7b$$u7b$closure$u7d$$u7d$$GT$..$u7b$$u7b$closure$u7d$$u7d$$GT$17hdbf22ebbfc24622aE', symObjAddr: 0x3518, symBinAddr: 0x45248, symSize: 0x24 }
  - { offset: 0x1C72BB, size: 0x8, addend: 0x0, symName: '__ZN4core3ptr406drop_in_place$LT$tokio..runtime..scheduler..current_thread..Context..run_task$LT$$LP$$RP$$C$tokio..runtime..scheduler..current_thread..CoreGuard..block_on$LT$core..pin..Pin$LT$$RF$mut$u20$core..pin..Pin$LT$alloc..boxed..Box$LT$effect_log_native..PyEffectLog..execute..$u7b$$u7b$closure$u7d$$u7d$$GT$$GT$$GT$$GT$..$u7b$$u7b$closure$u7d$$u7d$..$u7b$$u7b$closure$u7d$$u7d$$GT$..$u7b$$u7b$closure$u7d$$u7d$$GT$17hcf726a35f0049889E', symObjAddr: 0x353C, symBinAddr: 0x4526C, symSize: 0x24 }
  - { offset: 0x1C72EA, size: 0x8, addend: 0x0, symName: '__ZN4core3ptr406drop_in_place$LT$tokio..runtime..scheduler..current_thread..Context..run_task$LT$$LP$$RP$$C$tokio..runtime..scheduler..current_thread..CoreGuard..block_on$LT$core..pin..Pin$LT$$RF$mut$u20$core..pin..Pin$LT$alloc..boxed..Box$LT$effect_log_native..PyEffectLog..history..$u7b$$u7b$closure$u7d$$u7d$$GT$$GT$$GT$$GT$..$u7b$$u7b$closure$u7d$$u7d$..$u7b$$u7b$closure$u7d$$u7d$$GT$..$u7b$$u7b$closure$u7d$$u7d$$GT$17h02d6893dfe0aad57E', symObjAddr: 0x3560, symBinAddr: 0x45290, symSize: 0x24 }
  - { offset: 0x1C7319, size: 0x8, addend: 0x0, symName: '__ZN4core3ptr419drop_in_place$LT$tokio..runtime..scheduler..current_thread..Context..run_task$LT$$LP$$RP$$C$tokio..runtime..scheduler..current_thread..CoreGuard..block_on$LT$core..pin..Pin$LT$$RF$mut$u20$core..pin..Pin$LT$alloc..boxed..Box$LT$effect_log_core..executor..EffectLogBuilder..recover..$u7b$$u7b$closure$u7d$$u7d$$GT$$GT$$GT$$GT$..$u7b$$u7b$closure$u7d$$u7d$..$u7b$$u7b$closure$u7d$$u7d$$GT$..$u7b$$u7b$closure$u7d$$u7d$$GT$17h53556ad9d5a0e322E', symObjAddr: 0x3584, symBinAddr: 0x452B4, symSize: 0x24 }
  - { offset: 0x1C7348, size: 0x8, addend: 0x0, symName: '__ZN4core3ptr442drop_in_place$LT$tokio..runtime..scheduler..current_thread..CoreGuard..enter$LT$tokio..runtime..scheduler..current_thread..CoreGuard..block_on$LT$core..pin..Pin$LT$$RF$mut$u20$effect_log_native..PyEffectLog..execute..$u7b$$u7b$closure$u7d$$u7d$$GT$$GT$..$u7b$$u7b$closure$u7d$$u7d$$C$core..option..Option$LT$core..result..Result$LT$serde_json..value..Value$C$effect_log_core..error..EffectLogError$GT$$GT$$GT$..$u7b$$u7b$closure$u7d$$u7d$$GT$17hecf9ad8cb9dc3c1aE', symObjAddr: 0x35A8, symBinAddr: 0x452D8, symSize: 0x24 }
  - { offset: 0x1C7377, size: 0x8, addend: 0x0, symName: '__ZN4core3ptr467drop_in_place$LT$tokio..runtime..scheduler..current_thread..CoreGuard..enter$LT$tokio..runtime..scheduler..current_thread..CoreGuard..block_on$LT$core..pin..Pin$LT$$RF$mut$u20$effect_log_core..executor..EffectLogBuilder..recover..$u7b$$u7b$closure$u7d$$u7d$$GT$$GT$..$u7b$$u7b$closure$u7d$$u7d$$C$core..option..Option$LT$core..result..Result$LT$effect_log_core..executor..EffectLog$C$effect_log_core..error..EffectLogError$GT$$GT$$GT$..$u7b$$u7b$closure$u7d$$u7d$$GT$17h6d27f5e0add06ec3E', symObjAddr: 0x35CC, symBinAddr: 0x452FC, symSize: 0x24 }
  - { offset: 0x1C73A6, size: 0x8, addend: 0x0, symName: '__ZN4core3ptr481drop_in_place$LT$tokio..runtime..scheduler..current_thread..CoreGuard..enter$LT$tokio..runtime..scheduler..current_thread..CoreGuard..block_on$LT$core..pin..Pin$LT$$RF$mut$u20$effect_log_native..PyEffectLog..new..$u7b$$u7b$closure$u7d$$u7d$$GT$$GT$..$u7b$$u7b$closure$u7d$$u7d$$C$core..option..Option$LT$core..result..Result$LT$alloc..sync..Arc$LT$dyn$u20$effect_log_core..storage..EffectStore$GT$$C$effect_log_core..error..StorageError$GT$$GT$$GT$..$u7b$$u7b$closure$u7d$$u7d$$GT$17hbda49413405583f2E', symObjAddr: 0x35F0, symBinAddr: 0x45320, symSize: 0x24 }
  - { offset: 0x1C73D5, size: 0x8, addend: 0x0, symName: '__ZN4core3ptr489drop_in_place$LT$tokio..runtime..scheduler..current_thread..CoreGuard..enter$LT$tokio..runtime..scheduler..current_thread..CoreGuard..block_on$LT$core..pin..Pin$LT$$RF$mut$u20$core..pin..Pin$LT$alloc..boxed..Box$LT$effect_log_native..PyEffectLog..execute..$u7b$$u7b$closure$u7d$$u7d$$GT$$GT$$GT$$GT$..$u7b$$u7b$closure$u7d$$u7d$$C$core..option..Option$LT$core..result..Result$LT$serde_json..value..Value$C$effect_log_core..error..EffectLogError$GT$$GT$$GT$..$u7b$$u7b$closure$u7d$$u7d$$GT$17h0d2c5276bc2a7ee8E', symObjAddr: 0x3614, symBinAddr: 0x45344, symSize: 0x24 }
  - { offset: 0x1C7404, size: 0x8, addend: 0x0, symName: '__ZN4core3ptr49drop_in_place$LT$effect_log_native..PyToolDef$GT$17h82ef5ff872fafd4fE', symObjAddr: 0x3638, symBinAddr: 0x45368, symSize: 0x90 }
  - { offset: 0x1C7433, size: 0x8, addend: 0x0, symName: '__ZN4core3ptr514drop_in_place$LT$tokio..runtime..scheduler..current_thread..CoreGuard..enter$LT$tokio..runtime..scheduler..current_thread..CoreGuard..block_on$LT$core..pin..Pin$LT$$RF$mut$u20$core..pin..Pin$LT$alloc..boxed..Box$LT$effect_log_core..executor..EffectLogBuilder..recover..$u7b$$u7b$closure$u7d$$u7d$$GT$$GT$$GT$$GT$..$u7b$$u7b$closure$u7d$$u7d$$C$core..option..Option$LT$core..result..Result$LT$effect_log_core..executor..EffectLog$C$effect_log_core..error..EffectLogError$GT$$GT$$GT$..$u7b$$u7b$closure$u7d$$u7d$$GT$17hdf8798e59521d640E', symObjAddr: 0x36C8, symBinAddr: 0x453F8, symSize: 0x24 }
  - { offset: 0x1C7462, size: 0x8, addend: 0x0, symName: '__ZN4core3ptr51drop_in_place$LT$effect_log_native..PyEffectLog$GT$17hfad730dff4e09aedE', symObjAddr: 0x36EC, symBinAddr: 0x4541C, symSize: 0x60 }
  - { offset: 0x1C7491, size: 0x8, addend: 0x0, symName: '__ZN4core3ptr528drop_in_place$LT$tokio..runtime..scheduler..current_thread..CoreGuard..enter$LT$tokio..runtime..scheduler..current_thread..CoreGuard..block_on$LT$core..pin..Pin$LT$$RF$mut$u20$core..pin..Pin$LT$alloc..boxed..Box$LT$effect_log_native..PyEffectLog..new..$u7b$$u7b$closure$u7d$$u7d$$GT$$GT$$GT$$GT$..$u7b$$u7b$closure$u7d$$u7d$$C$core..option..Option$LT$core..result..Result$LT$alloc..sync..Arc$LT$dyn$u20$effect_log_core..storage..EffectStore$GT$$C$effect_log_core..error..StorageError$GT$$GT$$GT$..$u7b$$u7b$closure$u7d$$u7d$$GT$17h501e19594412b7baE', symObjAddr: 0x374C, symBinAddr: 0x4547C, symSize: 0x24 }
  - { offset: 0x1C74C0, size: 0x8, addend: 0x0, symName: '__ZN4core3ptr556drop_in_place$LT$tokio..runtime..scheduler..current_thread..CoreGuard..enter$LT$tokio..runtime..scheduler..current_thread..CoreGuard..block_on$LT$core..pin..Pin$LT$$RF$mut$u20$effect_log_native..PyEffectLog..history..$u7b$$u7b$closure$u7d$$u7d$$GT$$GT$..$u7b$$u7b$closure$u7d$$u7d$$C$core..option..Option$LT$core..result..Result$LT$alloc..vec..Vec$LT$$LP$effect_log_core..types..IntentRecord$C$core..option..Option$LT$effect_log_core..types..CompletionRecord$GT$$RP$$GT$$C$effect_log_core..error..EffectLogError$GT$$GT$$GT$..$u7b$$u7b$closure$u7d$$u7d$$GT$17h4ad332357685f31aE', symObjAddr: 0x3794, symBinAddr: 0x454A0, symSize: 0x24 }
  - { offset: 0x1C74EF, size: 0x8, addend: 0x0, symName: '__ZN4core3ptr57drop_in_place$LT$effect_log_core..executor..EffectLog$GT$17h74de12d499397765E', symObjAddr: 0x37B8, symBinAddr: 0x454C4, symSize: 0xBC }
  - { offset: 0x1C751E, size: 0x8, addend: 0x0, symName: '__ZN4core3ptr59drop_in_place$LT$effect_log_core..error..EffectLogError$GT$17hfe4fa04d93982fd0E', symObjAddr: 0x3874, symBinAddr: 0x45580, symSize: 0x150 }
  - { offset: 0x1C754D, size: 0x8, addend: 0x0, symName: '__ZN4core3ptr603drop_in_place$LT$tokio..runtime..scheduler..current_thread..CoreGuard..enter$LT$tokio..runtime..scheduler..current_thread..CoreGuard..block_on$LT$core..pin..Pin$LT$$RF$mut$u20$core..pin..Pin$LT$alloc..boxed..Box$LT$effect_log_native..PyEffectLog..history..$u7b$$u7b$closure$u7d$$u7d$$GT$$GT$$GT$$GT$..$u7b$$u7b$closure$u7d$$u7d$$C$core..option..Option$LT$core..result..Result$LT$alloc..vec..Vec$LT$$LP$effect_log_core..types..IntentRecord$C$core..option..Option$LT$effect_log_core..types..CompletionRecord$GT$$RP$$GT$$C$effect_log_core..error..EffectLogError$GT$$GT$$GT$..$u7b$$u7b$closure$u7d$$u7d$$GT$17hd750147a16810eccE', symObjAddr: 0x39C4, symBinAddr: 0x456D0, symSize: 0x24 }
  - { offset: 0x1C757C, size: 0x8, addend: 0x0, symName: '__ZN4core3ptr60drop_in_place$LT$effect_log_core..recovery..RecoveryPlan$GT$17h5b41f2e5829046afE', symObjAddr: 0x39E8, symBinAddr: 0x456F4, symSize: 0x24 }
  - { offset: 0x1C75AB, size: 0x8, addend: 0x0, symName: '__ZN4core3ptr66drop_in_place$LT$effect_log_core..storage..sqlite..SqliteStore$GT$17h01cca5a4a5d57e43E', symObjAddr: 0x3A8C, symBinAddr: 0x45718, symSize: 0x24 }
  - { offset: 0x1C75DA, size: 0x8, addend: 0x0, symName: '__ZN4core3ptr67drop_in_place$LT$$u5b$effect_log_core..types..IntentRecord$u5d$$GT$17h3e48d1ee99914e68E', symObjAddr: 0x3AB0, symBinAddr: 0x4573C, symSize: 0xC4 }
  - { offset: 0x1C7609, size: 0x8, addend: 0x0, symName: '__ZN4core3ptr68drop_in_place$LT$effect_log_core..storage..memory..InMemoryStore$GT$17h615dcaf3bda0b235E', symObjAddr: 0x3B74, symBinAddr: 0x45800, symSize: 0x60 }
  - { offset: 0x1C7638, size: 0x8, addend: 0x0, symName: '__ZN4core3ptr69drop_in_place$LT$alloc..borrow..Cow$LT$core..ffi..c_str..CStr$GT$$GT$17h30d5feb65b7f741bE', symObjAddr: 0x3BD4, symBinAddr: 0x45860, symSize: 0x40 }
  - { offset: 0x1C7667, size: 0x8, addend: 0x0, symName: '__ZN4core3ptr724drop_in_place$LT$tokio..runtime..context..set_scheduler$LT$$LP$alloc..boxed..Box$LT$tokio..runtime..scheduler..current_thread..Core$GT$$C$core..option..Option$LT$core..result..Result$LT$serde_json..value..Value$C$effect_log_core..error..EffectLogError$GT$$GT$$RP$$C$tokio..runtime..scheduler..current_thread..CoreGuard..enter$LT$tokio..runtime..scheduler..current_thread..CoreGuard..block_on$LT$core..pin..Pin$LT$$RF$mut$u20$effect_log_native..PyEffectLog..execute..$u7b$$u7b$closure$u7d$$u7d$$GT$$GT$..$u7b$$u7b$closure$u7d$$u7d$$C$core..option..Option$LT$core..result..Result$LT$serde_json..value..Value$C$effect_log_core..error..EffectLogError$GT$$GT$$GT$..$u7b$$u7b$closure$u7d$$u7d$$GT$..$u7b$$u7b$closure$u7d$$u7d$$GT$17hd911c0353d918cbbE', symObjAddr: 0x3C14, symBinAddr: 0x458A0, symSize: 0x24 }
  - { offset: 0x1C7696, size: 0x8, addend: 0x0, symName: '__ZN4core3ptr73drop_in_place$LT$core..result..Result$LT$usize$C$pyo3..err..PyErr$GT$$GT$17hce40f294873cc430E', symObjAddr: 0x3C5C, symBinAddr: 0x458C4, symSize: 0x40 }
  - { offset: 0x1C76C5, size: 0x8, addend: 0x0, symName: '__ZN4core3ptr75drop_in_place$LT$pyo3..instance..Py$LT$effect_log_native..PyToolDef$GT$$GT$17h302c57bff4bb50d1E', symObjAddr: 0x3C9C, symBinAddr: 0x45904, symSize: 0x2C }
  - { offset: 0x1C76F4, size: 0x8, addend: 0x0, symName: '__ZN4core3ptr761drop_in_place$LT$tokio..runtime..context..set_scheduler$LT$$LP$alloc..boxed..Box$LT$tokio..runtime..scheduler..current_thread..Core$GT$$C$core..option..Option$LT$core..result..Result$LT$effect_log_core..executor..EffectLog$C$effect_log_core..error..EffectLogError$GT$$GT$$RP$$C$tokio..runtime..scheduler..current_thread..CoreGuard..enter$LT$tokio..runtime..scheduler..current_thread..CoreGuard..block_on$LT$core..pin..Pin$LT$$RF$mut$u20$effect_log_core..executor..EffectLogBuilder..recover..$u7b$$u7b$closure$u7d$$u7d$$GT$$GT$..$u7b$$u7b$closure$u7d$$u7d$$C$core..option..Option$LT$core..result..Result$LT$effect_log_core..executor..EffectLog$C$effect_log_core..error..EffectLogError$GT$$GT$$GT$..$u7b$$u7b$closure$u7d$$u7d$$GT$..$u7b$$u7b$closure$u7d$$u7d$$GT$17hf275125b6e200dc8E', symObjAddr: 0x3CC8, symBinAddr: 0x45930, symSize: 0x24 }
  - { offset: 0x1C7723, size: 0x8, addend: 0x0, symName: '__ZN4core3ptr76drop_in_place$LT$alloc..sync..Arc$LT$effect_log_core..wal..WalEngine$GT$$GT$17hc8c9084f976f009cE', symObjAddr: 0x3CEC, symBinAddr: 0x45954, symSize: 0x24 }
  - { offset: 0x1C7752, size: 0x8, addend: 0x0, symName: '__ZN4core3ptr76drop_in_place$LT$pyo3..pycell..PyRef$LT$effect_log_native..PyToolDef$GT$$GT$17hb7a26952f6aa7642E', symObjAddr: 0x3D10, symBinAddr: 0x45978, symSize: 0x5C }
  - { offset: 0x1C7781, size: 0x8, addend: 0x0, symName: '__ZN4core3ptr771drop_in_place$LT$tokio..runtime..context..set_scheduler$LT$$LP$alloc..boxed..Box$LT$tokio..runtime..scheduler..current_thread..Core$GT$$C$core..option..Option$LT$core..result..Result$LT$serde_json..value..Value$C$effect_log_core..error..EffectLogError$GT$$GT$$RP$$C$tokio..runtime..scheduler..current_thread..CoreGuard..enter$LT$tokio..runtime..scheduler..current_thread..CoreGuard..block_on$LT$core..pin..Pin$LT$$RF$mut$u20$core..pin..Pin$LT$alloc..boxed..Box$LT$effect_log_native..PyEffectLog..execute..$u7b$$u7b$closure$u7d$$u7d$$GT$$GT$$GT$$GT$..$u7b$$u7b$closure$u7d$$u7d$$C$core..option..Option$LT$core..result..Result$LT$serde_json..value..Value$C$effect_log_core..error..EffectLogError$GT$$GT$$GT$..$u7b$$u7b$closure$u7d$$u7d$$GT$..$u7b$$u7b$closure$u7d$$u7d$$GT$17hc7af3c3520792053E', symObjAddr: 0x3D6C, symBinAddr: 0x459D4, symSize: 0x24 }
  - { offset: 0x1C77B0, size: 0x8, addend: 0x0, symName: '__ZN4core3ptr77drop_in_place$LT$alloc..sync..Arc$LT$tokio..runtime..runtime..Runtime$GT$$GT$17he4ec43ead24b967aE', symObjAddr: 0x3D90, symBinAddr: 0x459F8, symSize: 0x24 }
  - { offset: 0x1C77DF, size: 0x8, addend: 0x0, symName: '__ZN4core3ptr77drop_in_place$LT$pyo3..instance..Py$LT$effect_log_native..PyEffectLog$GT$$GT$17h80cb0d73e1ec2842E', symObjAddr: 0x3DB4, symBinAddr: 0x45A1C, symSize: 0x2C }
  - { offset: 0x1C780E, size: 0x8, addend: 0x0, symName: '__ZN4core3ptr78drop_in_place$LT$pyo3..instance..Bound$LT$effect_log_native..PyToolDef$GT$$GT$17hba299c6fb6000af1E', symObjAddr: 0x3DE0, symBinAddr: 0x45A48, symSize: 0x24 }
  - { offset: 0x1C783D, size: 0x8, addend: 0x0, symName: '__ZN4core3ptr78drop_in_place$LT$pyo3..instance..Py$LT$effect_log_native..PyEffectKind$GT$$GT$17h27432900ea42e5fbE', symObjAddr: 0x3E04, symBinAddr: 0x45A6C, symSize: 0x2C }
  - { offset: 0x1C786C, size: 0x8, addend: 0x0, symName: '__ZN4core3ptr78drop_in_place$LT$pyo3..pycell..PyRef$LT$effect_log_native..PyEffectLog$GT$$GT$17h15aa3fee9ff38e0bE', symObjAddr: 0x3E30, symBinAddr: 0x45A98, symSize: 0x5C }
  - { offset: 0x1C789B, size: 0x8, addend: 0x0, symName: '__ZN4core3ptr79drop_in_place$LT$core..cell..UnsafeCell$LT$effect_log_native..PyToolDef$GT$$GT$17h33e084a6a12fe151E', symObjAddr: 0x3E8C, symBinAddr: 0x45AF4, symSize: 0x24 }
  - { offset: 0x1C78CA, size: 0x8, addend: 0x0, symName: '__ZN4core3ptr79drop_in_place$LT$pyo3..pycell..PyRef$LT$effect_log_native..PyEffectKind$GT$$GT$17h8c5a56efab9419c7E', symObjAddr: 0x3EB0, symBinAddr: 0x45B18, symSize: 0x5C }
  - { offset: 0x1C78F9, size: 0x8, addend: 0x0, symName: '__ZN4core3ptr806drop_in_place$LT$tokio..runtime..context..set_scheduler$LT$$LP$alloc..boxed..Box$LT$tokio..runtime..scheduler..current_thread..Core$GT$$C$core..option..Option$LT$core..result..Result$LT$alloc..sync..Arc$LT$dyn$u20$effect_log_core..storage..EffectStore$GT$$C$effect_log_core..error..StorageError$GT$$GT$$RP$$C$tokio..runtime..scheduler..current_thread..CoreGuard..enter$LT$tokio..runtime..scheduler..current_thread..CoreGuard..block_on$LT$core..pin..Pin$LT$$RF$mut$u20$effect_log_native..PyEffectLog..new..$u7b$$u7b$closure$u7d$$u7d$$GT$$GT$..$u7b$$u7b$closure$u7d$$u7d$$C$core..option..Option$LT$core..result..Result$LT$alloc..sync..Arc$LT$dyn$u20$effect_log_core..storage..EffectStore$GT$$C$effect_log_core..error..StorageError$GT$$GT$$GT$..$u7b$$u7b$closure$u7d$$u7d$$GT$..$u7b$$u7b$closure$u7d$$u7d$$GT$17h59de205490d558c7E', symObjAddr: 0x3F0C, symBinAddr: 0x45B74, symSize: 0x24 }
  - { offset: 0x1C7928, size: 0x8, addend: 0x0, symName: '__ZN4core3ptr808drop_in_place$LT$tokio..runtime..context..set_scheduler$LT$$LP$alloc..boxed..Box$LT$tokio..runtime..scheduler..current_thread..Core$GT$$C$core..option..Option$LT$core..result..Result$LT$effect_log_core..executor..EffectLog$C$effect_log_core..error..EffectLogError$GT$$GT$$RP$$C$tokio..runtime..scheduler..current_thread..CoreGuard..enter$LT$tokio..runtime..scheduler..current_thread..CoreGuard..block_on$LT$core..pin..Pin$LT$$RF$mut$u20$core..pin..Pin$LT$alloc..boxed..Box$LT$effect_log_core..executor..EffectLogBuilder..recover..$u7b$$u7b$closure$u7d$$u7d$$GT$$GT$$GT$$GT$..$u7b$$u7b$closure$u7d$$u7d$$C$core..option..Option$LT$core..result..Result$LT$effect_log_core..executor..EffectLog$C$effect_log_core..error..EffectLogError$GT$$GT$$GT$..$u7b$$u7b$closure$u7d$$u7d$$GT$..$u7b$$u7b$closure$u7d$$u7d$$GT$17h8bdf0531c9da83ebE', symObjAddr: 0x3F30, symBinAddr: 0x45B98, symSize: 0x24 }
  - { offset: 0x1C7957, size: 0x8, addend: 0x0, symName: '__ZN4core3ptr80drop_in_place$LT$alloc..vec..Vec$LT$effect_log_core..types..IntentRecord$GT$$GT$17h89c86d0ae7bb95ceE', symObjAddr: 0x3F54, symBinAddr: 0x45BBC, symSize: 0x5C }
  - { offset: 0x1C7986, size: 0x8, addend: 0x0, symName: '__ZN4core3ptr80drop_in_place$LT$pyo3..instance..Bound$LT$effect_log_native..PyEffectLog$GT$$GT$17h2519d9ae7ea6bd53E', symObjAddr: 0x4040, symBinAddr: 0x45C18, symSize: 0x24 }
  - { offset: 0x1C79B5, size: 0x8, addend: 0x0, symName: '__ZN4core3ptr81drop_in_place$LT$$LP$pyo3..instance..Py$LT$pyo3..types..any..PyAny$GT$$C$$RP$$GT$17hcf0ccb004565c180E', symObjAddr: 0x4064, symBinAddr: 0x45C3C, symSize: 0x24 }
  - { offset: 0x1C79E4, size: 0x8, addend: 0x0, symName: '__ZN4core3ptr81drop_in_place$LT$core..cell..UnsafeCell$LT$effect_log_native..PyEffectLog$GT$$GT$17hbc422caacaa95e34E', symObjAddr: 0x4088, symBinAddr: 0x45C60, symSize: 0x24 }
  - { offset: 0x1C7A13, size: 0x8, addend: 0x0, symName: '__ZN4core3ptr81drop_in_place$LT$core..result..Result$LT$isize$C$pyo3..err..DowncastError$GT$$GT$17h12d5fe684256afa2E', symObjAddr: 0x40AC, symBinAddr: 0x45C84, symSize: 0x48 }
  - { offset: 0x1C7A42, size: 0x8, addend: 0x0, symName: '__ZN4core3ptr81drop_in_place$LT$pyo3..instance..Bound$LT$effect_log_native..PyEffectKind$GT$$GT$17ha766fcb6589544b5E', symObjAddr: 0x40F4, symBinAddr: 0x45CCC, symSize: 0x24 }
  - { offset: 0x1C7A71, size: 0x8, addend: 0x0, symName: '__ZN4core3ptr82drop_in_place$LT$alloc..sync..ArcInner$LT$tokio..runtime..runtime..Runtime$GT$$GT$17hb7762fc1b0c36976E', symObjAddr: 0x4118, symBinAddr: 0x45CF0, symSize: 0x24 }
  - { offset: 0x1C7AA0, size: 0x8, addend: 0x0, symName: '__ZN4core3ptr84drop_in_place$LT$$LP$pyo3..instance..Bound$LT$pyo3..types..any..PyAny$GT$$C$$RP$$GT$17h004246613a752830E', symObjAddr: 0x413C, symBinAddr: 0x45D14, symSize: 0x24 }
  - { offset: 0x1C7ACF, size: 0x8, addend: 0x0, symName: '__ZN4core3ptr853drop_in_place$LT$tokio..runtime..context..set_scheduler$LT$$LP$alloc..boxed..Box$LT$tokio..runtime..scheduler..current_thread..Core$GT$$C$core..option..Option$LT$core..result..Result$LT$alloc..sync..Arc$LT$dyn$u20$effect_log_core..storage..EffectStore$GT$$C$effect_log_core..error..StorageError$GT$$GT$$RP$$C$tokio..runtime..scheduler..current_thread..CoreGuard..enter$LT$tokio..runtime..scheduler..current_thread..CoreGuard..block_on$LT$core..pin..Pin$LT$$RF$mut$u20$core..pin..Pin$LT$alloc..boxed..Box$LT$effect_log_native..PyEffectLog..new..$u7b$$u7b$closure$u7d$$u7d$$GT$$GT$$GT$$GT$..$u7b$$u7b$closure$u7d$$u7d$$C$core..option..Option$LT$core..result..Result$LT$alloc..sync..Arc$LT$dyn$u20$effect_log_core..storage..EffectStore$GT$$C$effect_log_core..error..StorageError$GT$$GT$$GT$..$u7b$$u7b$closure$u7d$$u7d$$GT$..$u7b$$u7b$closure$u7d$$u7d$$GT$17h35d9e27550253ff6E', symObjAddr: 0x4160, symBinAddr: 0x45D38, symSize: 0x24 }
  - { offset: 0x1C7AFE, size: 0x8, addend: 0x0, symName: '__ZN4core3ptr85drop_in_place$LT$effect_log_native..PyEffectLog..new..$u7b$$u7b$closure$u7d$$u7d$$GT$17ha9f0d7d4515288bbE', symObjAddr: 0x4184, symBinAddr: 0x45D5C, symSize: 0x84 }
  - { offset: 0x1C7B3F, size: 0x8, addend: 0x0, symName: '__ZN4core3ptr85drop_in_place$LT$effect_log_native..PyEffectLog..new..$u7b$$u7b$closure$u7d$$u7d$$GT$17haa17cbd0cede6933E', symObjAddr: 0x4208, symBinAddr: 0x45DE0, symSize: 0x24 }
  - { offset: 0x1C7B6E, size: 0x8, addend: 0x0, symName: '__ZN4core3ptr85drop_in_place$LT$effect_log_native..PyEffectLog..new..$u7b$$u7b$closure$u7d$$u7d$$GT$17hffc451c7e7ad51a6E', symObjAddr: 0x422C, symBinAddr: 0x45E04, symSize: 0x24 }
  - { offset: 0x1C7B9D, size: 0x8, addend: 0x0, symName: '__ZN4core3ptr87drop_in_place$LT$alloc..raw_vec..RawVec$LT$effect_log_core..types..IntentRecord$GT$$GT$17he980c9ea73ac754aE', symObjAddr: 0x4250, symBinAddr: 0x45E28, symSize: 0x24 }
  - { offset: 0x1C7BCC, size: 0x8, addend: 0x0, symName: '__ZN4core3ptr87drop_in_place$LT$core..cell..UnsafeCell$LT$effect_log_core..executor..EffectLog$GT$$GT$17h9f3c0b27f5c348dbE', symObjAddr: 0x4274, symBinAddr: 0x45E4C, symSize: 0x24 }
  - { offset: 0x1C7BFB, size: 0x8, addend: 0x0, symName: '__ZN4core3ptr88drop_in_place$LT$$u5b$pyo3..instance..Bound$LT$effect_log_native..PyToolDef$GT$$u5d$$GT$17h745ef386033d971bE', symObjAddr: 0x4298, symBinAddr: 0x45E70, symSize: 0xB4 }
  - { offset: 0x1C7C2A, size: 0x8, addend: 0x0, symName: '__ZN4core3ptr88drop_in_place$LT$core..option..Option$LT$effect_log_core..recovery..RecoveryPlan$GT$$GT$17h24b3307a2d234e9aE', symObjAddr: 0x434C, symBinAddr: 0x45F24, symSize: 0x48 }
  - { offset: 0x1C7C59, size: 0x8, addend: 0x0, symName: '__ZN4core3ptr89drop_in_place$LT$effect_log_native..PyEffectLog..execute..$u7b$$u7b$closure$u7d$$u7d$$GT$17hfda5882d21552fcdE', symObjAddr: 0x4394, symBinAddr: 0x45F6C, symSize: 0x14C }
  - { offset: 0x1C7CDF, size: 0x8, addend: 0x0, symName: '__ZN4core3ptr89drop_in_place$LT$effect_log_native..PyEffectLog..history..$u7b$$u7b$closure$u7d$$u7d$$GT$17h2d1642139dee005aE', symObjAddr: 0x44E0, symBinAddr: 0x460B8, symSize: 0xF8 }
  - { offset: 0x1C7D40, size: 0x8, addend: 0x0, symName: '__ZN4core3ptr90drop_in_place$LT$effect_log_core..wal..WalEngine..recover..$u7b$$u7b$closure$u7d$$u7d$$GT$17hb3c2f8a0f78fd2d5E', symObjAddr: 0x45D8, symBinAddr: 0x461B0, symSize: 0x148 }
  - { offset: 0x1C7E37, size: 0x8, addend: 0x0, symName: '__ZN4core3ptr90drop_in_place$LT$tokio..sync..mutex..Mutex$LT$effect_log_core..executor..EffectLog$GT$$GT$17hc2ba842ddfc4b6aeE', symObjAddr: 0x4720, symBinAddr: 0x462F8, symSize: 0x24 }
  - { offset: 0x1C7E66, size: 0x8, addend: 0x0, symName: '__ZN4core3ptr92drop_in_place$LT$core..result..Result$LT$pyo3..pyclass..CompareOp$C$pyo3..err..PyErr$GT$$GT$17hf87b592f0b7fc517E', symObjAddr: 0x4744, symBinAddr: 0x4631C, symSize: 0x40 }
  - { offset: 0x1C7E95, size: 0x8, addend: 0x0, symName: '__ZN4core3ptr92drop_in_place$LT$core..result..Result$LT$serde_json..value..Value$C$pyo3..err..PyErr$GT$$GT$17h5a2790b481d5cac5E', symObjAddr: 0x4784, symBinAddr: 0x4635C, symSize: 0x50 }
  - { offset: 0x1C7EC4, size: 0x8, addend: 0x0, symName: '__ZN4core3ptr94drop_in_place$LT$alloc..vec..into_iter..IntoIter$LT$effect_log_core..storage..WalEntry$GT$$GT$17hf0b6f98f70b7385cE', symObjAddr: 0x47D4, symBinAddr: 0x463AC, symSize: 0x24 }
  - { offset: 0x1C7EF3, size: 0x8, addend: 0x0, symName: '__ZN4core3ptr952drop_in_place$LT$tokio..runtime..context..set_scheduler$LT$$LP$alloc..boxed..Box$LT$tokio..runtime..scheduler..current_thread..Core$GT$$C$core..option..Option$LT$core..result..Result$LT$alloc..vec..Vec$LT$$LP$effect_log_core..types..IntentRecord$C$core..option..Option$LT$effect_log_core..types..CompletionRecord$GT$$RP$$GT$$C$effect_log_core..error..EffectLogError$GT$$GT$$RP$$C$tokio..runtime..scheduler..current_thread..CoreGuard..enter$LT$tokio..runtime..scheduler..current_thread..CoreGuard..block_on$LT$core..pin..Pin$LT$$RF$mut$u20$effect_log_native..PyEffectLog..history..$u7b$$u7b$closure$u7d$$u7d$$GT$$GT$..$u7b$$u7b$closure$u7d$$u7d$$C$core..option..Option$LT$core..result..Result$LT$alloc..vec..Vec$LT$$LP$effect_log_core..types..IntentRecord$C$core..option..Option$LT$effect_log_core..types..CompletionRecord$GT$$RP$$GT$$C$effect_log_core..error..EffectLogError$GT$$GT$$GT$..$u7b$$u7b$closure$u7d$$u7d$$GT$..$u7b$$u7b$closure$u7d$$u7d$$GT$17h64ac284c4f79bb79E', symObjAddr: 0x47F8, symBinAddr: 0x463D0, symSize: 0x24 }
  - { offset: 0x1C7F22, size: 0x8, addend: 0x0, symName: '__ZN4core3ptr95drop_in_place$LT$alloc..sync..ArcInner$LT$effect_log_core..storage..sqlite..SqliteStore$GT$$GT$17h293983ad9bd12f0cE', symObjAddr: 0x481C, symBinAddr: 0x463F4, symSize: 0x24 }
  - { offset: 0x1C7F51, size: 0x8, addend: 0x0, symName: '__ZN4core3ptr95drop_in_place$LT$effect_log_core..executor..EffectLog..execute..$u7b$$u7b$closure$u7d$$u7d$$GT$17h199ff379ef688cbaE', symObjAddr: 0x4864, symBinAddr: 0x46418, symSize: 0x36C }
  - { offset: 0x1C8068, size: 0x8, addend: 0x0, symName: '__ZN4core3ptr95drop_in_place$LT$effect_log_core..executor..EffectLog..history..$u7b$$u7b$closure$u7d$$u7d$$GT$17ha563c45f6f27a343E', symObjAddr: 0x4BD0, symBinAddr: 0x46784, symSize: 0x8C }
  - { offset: 0x1C80BA, size: 0x8, addend: 0x0, symName: '__ZN4core3ptr95drop_in_place$LT$effect_log_core..wal..WalEngine..write_intent..$u7b$$u7b$closure$u7d$$u7d$$GT$17h74540043eb06cac9E', symObjAddr: 0x4C5C, symBinAddr: 0x46810, symSize: 0x84 }
  - { offset: 0x1C8140, size: 0x8, addend: 0x0, symName: '__ZN4core3ptr95drop_in_place$LT$pyo3..pyclass_init..PyClassInitializer$LT$effect_log_native..PyToolDef$GT$$GT$17hbe8ff60d987312aeE', symObjAddr: 0x4CE0, symBinAddr: 0x46894, symSize: 0x24 }
  - { offset: 0x1C816F, size: 0x8, addend: 0x0, symName: '__ZN4core3ptr95drop_in_place$LT$tokio..sync..mutex..MutexGuard$LT$effect_log_core..executor..EffectLog$GT$$GT$17h9f5599f5e33804edE', symObjAddr: 0x4D04, symBinAddr: 0x468B8, symSize: 0x24 }
  - { offset: 0x1C819E, size: 0x8, addend: 0x0, symName: '__ZN4core3ptr96drop_in_place$LT$alloc..vec..into_iter..IntoIter$LT$effect_log_core..types..IntentRecord$GT$$GT$17hf75f605b9c8cfa23E', symObjAddr: 0x4D28, symBinAddr: 0x468DC, symSize: 0x24 }
  - { offset: 0x1C81CD, size: 0x8, addend: 0x0, symName: '__ZN4core3ptr96drop_in_place$LT$effect_log_core..wal..WalEngine..lookup_intent..$u7b$$u7b$closure$u7d$$u7d$$GT$17hd448edfcbe0e1fb8E', symObjAddr: 0x4D4C, symBinAddr: 0x46900, symSize: 0x84 }
  - { offset: 0x1C827F, size: 0x8, addend: 0x0, symName: '__ZN4core3ptr97drop_in_place$LT$alloc..sync..ArcInner$LT$effect_log_core..storage..memory..InMemoryStore$GT$$GT$17h005aff3b216c6ed2E', symObjAddr: 0x4DD0, symBinAddr: 0x46984, symSize: 0x24 }
  - { offset: 0x1C82AE, size: 0x8, addend: 0x0, symName: '__ZN4core3ptr97drop_in_place$LT$core..option..Option$LT$alloc..borrow..Cow$LT$core..ffi..c_str..CStr$GT$$GT$$GT$17hddb904828690befaE', symObjAddr: 0x4DF4, symBinAddr: 0x469A8, symSize: 0x44 }
  - { offset: 0x1C82DD, size: 0x8, addend: 0x0, symName: '__ZN4core3ptr97drop_in_place$LT$core..result..Result$LT$alloc..string..String$C$serde_json..error..Error$GT$$GT$17h143808cb3fb83c79E', symObjAddr: 0x4E38, symBinAddr: 0x469EC, symSize: 0x5C }
  - { offset: 0x1C830C, size: 0x8, addend: 0x0, symName: '__ZN4core3ptr97drop_in_place$LT$effect_log_core..wal..WalEngine..advance_cursor..$u7b$$u7b$closure$u7d$$u7d$$GT$17h1a691c6f232bff62E', symObjAddr: 0x4E94, symBinAddr: 0x46A48, symSize: 0x84 }
  - { offset: 0x1C8398, size: 0x8, addend: 0x0, symName: '__ZN4core3ptr97drop_in_place$LT$effect_log_core..wal..WalEngine..get_completion..$u7b$$u7b$closure$u7d$$u7d$$GT$17hb6adcbd8abc75eaeE', symObjAddr: 0x4F18, symBinAddr: 0x46ACC, symSize: 0x84 }
  - { offset: 0x1C841E, size: 0x8, addend: 0x0, symName: '__ZN4core3ptr97drop_in_place$LT$pyo3..pyclass_init..PyClassInitializer$LT$effect_log_native..PyEffectLog$GT$$GT$17h4a2dfc0602c833f6E', symObjAddr: 0x4F9C, symBinAddr: 0x46B50, symSize: 0x24 }
  - { offset: 0x1C844D, size: 0x8, addend: 0x0, symName: '__ZN4core3ptr97drop_in_place$LT$tokio_rusqlite..Connection..open$LT$$RF$str$GT$..$u7b$$u7b$closure$u7d$$u7d$$GT$17hba97e6cff736a950E', symObjAddr: 0x4FC0, symBinAddr: 0x46B74, symSize: 0x94 }
  - { offset: 0x1C84C7, size: 0x8, addend: 0x0, symName: '__ZN4core3ptr98drop_in_place$LT$core..result..Result$LT$effect_log_native..PyEffectLog$C$pyo3..err..PyErr$GT$$GT$17h9195f04cefd2637fE', symObjAddr: 0x5054, symBinAddr: 0x46C08, symSize: 0x50 }
  - { offset: 0x1C84F6, size: 0x8, addend: 0x0, symName: '__ZN4core3ptr98drop_in_place$LT$effect_log_core..executor..apply_recovery_action..$u7b$$u7b$closure$u7d$$u7d$$GT$17hd337ba1f3e8168d0E', symObjAddr: 0x50A4, symBinAddr: 0x46C58, symSize: 0x2CC }
  - { offset: 0x1C86BA, size: 0x8, addend: 0x0, symName: '__ZN4core3ptr98drop_in_place$LT$pyo3..pyclass_init..PyClassInitializer$LT$effect_log_native..PyEffectKind$GT$$GT$17h2d7e848583f0abb5E', symObjAddr: 0x5370, symBinAddr: 0x46F24, symSize: 0x24 }
  - { offset: 0x1C86E9, size: 0x8, addend: 0x0, symName: '__ZN4core3ptr999drop_in_place$LT$tokio..runtime..context..set_scheduler$LT$$LP$alloc..boxed..Box$LT$tokio..runtime..scheduler..current_thread..Core$GT$$C$core..option..Option$LT$core..result..Result$LT$alloc..vec..Vec$LT$$LP$effect_log_core..types..IntentRecord$C$core..option..Option$LT$effect_log_core..types..CompletionRecord$GT$$RP$$GT$$C$effect_log_core..error..EffectLogError$GT$$GT$$RP$$C$tokio..runtime..scheduler..current_thread..CoreGuard..enter$LT$tokio..runtime..scheduler..current_thread..CoreGuard..block_on$LT$core..pin..Pin$LT$$RF$mut$u20$core..pin..Pin$LT$alloc..boxed..Box$LT$effect_log_native..PyEffectLog..history..$u7b$$u7b$closure$u7d$$u7d$$GT$$GT$$GT$$GT$..$u7b$$u7b$closure$u7d$$u7d$$C$core..option..Option$LT$core..result..Result$LT$alloc..vec..Vec$LT$$LP$effect_log_core..types..IntentRecord$C$core..option..Option$LT$effect_log_core..types..CompletionRecord$GT$$RP$$GT$$C$effect_log_core..error..EffectLogError$GT$$GT$$GT$..$u7b$$u7b$closure$u7d$$u7d$$GT$..$u7b$$u7b$closure$u7d$$u7d$$GT$17h6600dd3156289dc1E', symObjAddr: 0x5394, symBinAddr: 0x46F48, symSize: 0x24 }
  - { offset: 0x1C8718, size: 0x8, addend: 0x0, symName: '__ZN4core3ptr99drop_in_place$LT$effect_log_core..wal..WalEngine..write_completion..$u7b$$u7b$closure$u7d$$u7d$$GT$17h532c65e3de93fe7dE', symObjAddr: 0x53B8, symBinAddr: 0x46F6C, symSize: 0x84 }
  - { offset: 0x1C879E, size: 0x8, addend: 0x0, symName: '__ZN4core3ptr99drop_in_place$LT$pyo3..pyclass_init..PyClassInitializerImpl$LT$effect_log_native..PyToolDef$GT$$GT$17h2d6e31fb48d39806E', symObjAddr: 0x543C, symBinAddr: 0x46FF0, symSize: 0x58 }
  - { offset: 0x1CDE84, size: 0x8, addend: 0x0, symName: '__ZN4core3ops8function6FnOnce40call_once$u7b$$u7b$vtable.shim$u7d$$u7d$17h00bc301ba559e35dE', symObjAddr: 0x2D4, symBinAddr: 0x422EC, symSize: 0x40 }
  - { offset: 0x1CDEC8, size: 0x8, addend: 0x0, symName: '__ZN4core3ops8function6FnOnce40call_once$u7b$$u7b$vtable.shim$u7d$$u7d$17h0e7e12ac7b7daeefE', symObjAddr: 0x314, symBinAddr: 0x4232C, symSize: 0x38 }
  - { offset: 0x1CDF0C, size: 0x8, addend: 0x0, symName: '__ZN4core3ops8function6FnOnce40call_once$u7b$$u7b$vtable.shim$u7d$$u7d$17h4d00b741256294ecE', symObjAddr: 0x34C, symBinAddr: 0x42364, symSize: 0x38 }
  - { offset: 0x1CDF50, size: 0x8, addend: 0x0, symName: '__ZN4core3ops8function6FnOnce40call_once$u7b$$u7b$vtable.shim$u7d$$u7d$17h5c8e04ce46d18a3dE', symObjAddr: 0x384, symBinAddr: 0x4239C, symSize: 0x30 }
  - { offset: 0x1CDF90, size: 0x8, addend: 0x0, symName: '__ZN4core3ops8function6FnOnce40call_once$u7b$$u7b$vtable.shim$u7d$$u7d$17h6f6919d14c4f852aE', symObjAddr: 0x3B4, symBinAddr: 0x423CC, symSize: 0x24 }
  - { offset: 0x1CDFD0, size: 0x8, addend: 0x0, symName: '__ZN4core3ops8function6FnOnce40call_once$u7b$$u7b$vtable.shim$u7d$$u7d$17hac066a04d5b07351E', symObjAddr: 0x3D8, symBinAddr: 0x423F0, symSize: 0x30 }
  - { offset: 0x1CE010, size: 0x8, addend: 0x0, symName: '__ZN4core3ops8function6FnOnce40call_once$u7b$$u7b$vtable.shim$u7d$$u7d$17hcd3953b7692e2716E', symObjAddr: 0x408, symBinAddr: 0x42420, symSize: 0x40 }
  - { offset: 0x1CE054, size: 0x8, addend: 0x0, symName: '__ZN4core3ops8function6FnOnce40call_once$u7b$$u7b$vtable.shim$u7d$$u7d$17hedd5cc0afcb81482E', symObjAddr: 0x448, symBinAddr: 0x42460, symSize: 0x38 }
  - { offset: 0x1CE098, size: 0x8, addend: 0x0, symName: __ZN4core3ops8function6FnOnce9call_once17h00f569b14b3f5fd0E, symObjAddr: 0x480, symBinAddr: 0x42498, symSize: 0x24 }
  - { offset: 0x1CE0DC, size: 0x8, addend: 0x0, symName: __ZN4core3ops8function6FnOnce9call_once17h0b0dd6c1f4b4ff4dE, symObjAddr: 0x4A4, symBinAddr: 0x424BC, symSize: 0x4C }
  - { offset: 0x1CE120, size: 0x8, addend: 0x0, symName: __ZN4core3ops8function6FnOnce9call_once17h318ad5b53ae8e141E, symObjAddr: 0x4F0, symBinAddr: 0x42508, symSize: 0x24 }
  - { offset: 0x1CE164, size: 0x8, addend: 0x0, symName: __ZN4core3ops8function6FnOnce9call_once17h3a6a6e8306002d92E, symObjAddr: 0x538, symBinAddr: 0x4252C, symSize: 0x58 }
  - { offset: 0x1CE1A8, size: 0x8, addend: 0x0, symName: __ZN4core3ops8function6FnOnce9call_once17h4099f09e2ff85a73E, symObjAddr: 0x590, symBinAddr: 0x42584, symSize: 0x24 }
  - { offset: 0x1CE1EC, size: 0x8, addend: 0x0, symName: __ZN4core3ops8function6FnOnce9call_once17h416ac54b5f162c20E, symObjAddr: 0x5B4, symBinAddr: 0x425A8, symSize: 0x5C }
  - { offset: 0x1CE230, size: 0x8, addend: 0x0, symName: __ZN4core3ops8function6FnOnce9call_once17h4aaa1cea52e3f953E, symObjAddr: 0x610, symBinAddr: 0x42604, symSize: 0x84 }
  - { offset: 0x1CE274, size: 0x8, addend: 0x0, symName: __ZN4core3ops8function6FnOnce9call_once17h5c40edcf5eb089e1E, symObjAddr: 0x694, symBinAddr: 0x42688, symSize: 0x48 }
  - { offset: 0x1CE2B8, size: 0x8, addend: 0x0, symName: __ZN4core3ops8function6FnOnce9call_once17h66969ecdc25c7945E, symObjAddr: 0x6DC, symBinAddr: 0x426D0, symSize: 0x34 }
  - { offset: 0x1CE2FC, size: 0x8, addend: 0x0, symName: __ZN4core3ops8function6FnOnce9call_once17h703782f36ddc5fffE, symObjAddr: 0x710, symBinAddr: 0x42704, symSize: 0x4C }
  - { offset: 0x1CE33C, size: 0x8, addend: 0x0, symName: __ZN4core3ops8function6FnOnce9call_once17h70c07e91a8a46692E, symObjAddr: 0x75C, symBinAddr: 0x42750, symSize: 0x24 }
  - { offset: 0x1CE380, size: 0x8, addend: 0x0, symName: __ZN4core3ops8function6FnOnce9call_once17h7b5fb0f26f6391aaE, symObjAddr: 0x780, symBinAddr: 0x42774, symSize: 0x58 }
  - { offset: 0x1CE3C4, size: 0x8, addend: 0x0, symName: __ZN4core3ops8function6FnOnce9call_once17h7b701319a4c12432E, symObjAddr: 0x7D8, symBinAddr: 0x427CC, symSize: 0x24 }
  - { offset: 0x1CE408, size: 0x8, addend: 0x0, symName: __ZN4core3ops8function6FnOnce9call_once17h84ef35a62a942584E, symObjAddr: 0x7FC, symBinAddr: 0x427F0, symSize: 0x24 }
  - { offset: 0x1CE44C, size: 0x8, addend: 0x0, symName: __ZN4core3ops8function6FnOnce9call_once17h8794d3eae49b8d33E, symObjAddr: 0x820, symBinAddr: 0x42814, symSize: 0x4C }
  - { offset: 0x1CE490, size: 0x8, addend: 0x0, symName: __ZN4core3ops8function6FnOnce9call_once17h8e00396691cbe005E, symObjAddr: 0x86C, symBinAddr: 0x42860, symSize: 0x24 }
  - { offset: 0x1CE4D4, size: 0x8, addend: 0x0, symName: __ZN4core3ops8function6FnOnce9call_once17ha0de5a765a580749E, symObjAddr: 0x890, symBinAddr: 0x42884, symSize: 0x84 }
  - { offset: 0x1CE518, size: 0x8, addend: 0x0, symName: __ZN4core3ops8function6FnOnce9call_once17ha40f83624cdb891fE, symObjAddr: 0x914, symBinAddr: 0x42908, symSize: 0x44 }
  - { offset: 0x1CE55C, size: 0x8, addend: 0x0, symName: __ZN4core3ops8function6FnOnce9call_once17haa775630d2bce99eE, symObjAddr: 0x958, symBinAddr: 0x4294C, symSize: 0x44 }
  - { offset: 0x1CE59C, size: 0x8, addend: 0x0, symName: __ZN4core3ops8function6FnOnce9call_once17hb3f4a03ea624eb55E, symObjAddr: 0x99C, symBinAddr: 0x42990, symSize: 0x24 }
  - { offset: 0x1CE5DC, size: 0x8, addend: 0x0, symName: __ZN4core3ops8function6FnOnce9call_once17hb972f8b93548cb71E, symObjAddr: 0x9C0, symBinAddr: 0x429B4, symSize: 0x3C }
  - { offset: 0x1CE620, size: 0x8, addend: 0x0, symName: __ZN4core3ops8function6FnOnce9call_once17hc16bffc4733a6e9bE, symObjAddr: 0x9FC, symBinAddr: 0x429F0, symSize: 0x24 }
  - { offset: 0x1CE664, size: 0x8, addend: 0x0, symName: __ZN4core3ops8function6FnOnce9call_once17hc1bf3cde35165727E, symObjAddr: 0xA20, symBinAddr: 0x42A14, symSize: 0x44 }
  - { offset: 0x1CE6A8, size: 0x8, addend: 0x0, symName: __ZN4core3ops8function6FnOnce9call_once17hc229bf02d85d887aE, symObjAddr: 0xA64, symBinAddr: 0x42A58, symSize: 0x3C }
  - { offset: 0x1CE6EC, size: 0x8, addend: 0x0, symName: __ZN4core3ops8function6FnOnce9call_once17hd2edd9042f5c5ea8E, symObjAddr: 0xAA0, symBinAddr: 0x42A94, symSize: 0x24 }
  - { offset: 0x1CE730, size: 0x8, addend: 0x0, symName: __ZN4core3ops8function6FnOnce9call_once17hd4e3a9dfeea7bfacE, symObjAddr: 0xAC4, symBinAddr: 0x42AB8, symSize: 0x40 }
  - { offset: 0x1CE774, size: 0x8, addend: 0x0, symName: __ZN4core3ops8function6FnOnce9call_once17he5576e21705fcb48E, symObjAddr: 0xB04, symBinAddr: 0x42AF8, symSize: 0x24 }
  - { offset: 0x1CEDFD, size: 0x8, addend: 0x0, symName: '__ZN95_$LT$core..slice..sort..stable..merge..MergeState$LT$T$GT$$u20$as$u20$core..ops..drop..Drop$GT$4drop17h9b8f67f818667412E', symObjAddr: 0x6FF8, symBinAddr: 0x48A90, symSize: 0xF4 }
  - { offset: 0x1CEF37, size: 0x8, addend: 0x0, symName: '__ZN99_$LT$core..slice..sort..shared..smallsort..CopyOnDrop$LT$T$GT$$u20$as$u20$core..ops..drop..Drop$GT$4drop17h75a1fb861445a34aE', symObjAddr: 0x70EC, symBinAddr: 0x48B84, symSize: 0x8C }
  - { offset: 0x1D2F02, size: 0x8, addend: 0x0, symName: '__ZN81_$LT$tokio..sync..oneshot..Receiver$LT$T$GT$$u20$as$u20$core..ops..drop..Drop$GT$4drop17h4924b44b8c0ef409E', symObjAddr: 0x6CA8, symBinAddr: 0x48740, symSize: 0x80 }
  - { offset: 0x1D36BF, size: 0x8, addend: 0x0, symName: '__ZN81_$LT$tokio..sync..mutex..MutexGuard$LT$T$GT$$u20$as$u20$core..ops..drop..Drop$GT$4drop17h3d47fe8af3ac0036E', symObjAddr: 0x6C48, symBinAddr: 0x486E0, symSize: 0x30 }
  - { offset: 0x1D36F2, size: 0x8, addend: 0x0, symName: '__ZN81_$LT$tokio..sync..mutex..MutexGuard$LT$T$GT$$u20$as$u20$core..ops..drop..Drop$GT$4drop17hb312759503a532f5E', symObjAddr: 0x6C78, symBinAddr: 0x48710, symSize: 0x30 }
  - { offset: 0x1D4648, size: 0x8, addend: 0x0, symName: '__ZN69_$LT$pyo3..instance..Py$LT$T$GT$$u20$as$u20$core..ops..drop..Drop$GT$4drop17h329eb7b078b2cf50E', symObjAddr: 0x54B0, symBinAddr: 0x47064, symSize: 0x28 }
  - { offset: 0x1D467B, size: 0x8, addend: 0x0, symName: '__ZN69_$LT$pyo3..instance..Py$LT$T$GT$$u20$as$u20$core..ops..drop..Drop$GT$4drop17h497539901abcaf9bE', symObjAddr: 0x54D8, symBinAddr: 0x4708C, symSize: 0x28 }
  - { offset: 0x1D46AE, size: 0x8, addend: 0x0, symName: '__ZN69_$LT$pyo3..instance..Py$LT$T$GT$$u20$as$u20$core..ops..drop..Drop$GT$4drop17hfb903ffa22d65006E', symObjAddr: 0x5500, symBinAddr: 0x470B4, symSize: 0x28 }
  - { offset: 0x1D4765, size: 0x8, addend: 0x0, symName: '__ZN72_$LT$pyo3..instance..Bound$LT$T$GT$$u20$as$u20$core..ops..drop..Drop$GT$4drop17h4f3c1f0ecff2e7eaE', symObjAddr: 0x66B8, symBinAddr: 0x48248, symSize: 0x144 }
  - { offset: 0x1D47B6, size: 0x8, addend: 0x0, symName: '__ZN72_$LT$pyo3..instance..Bound$LT$T$GT$$u20$as$u20$core..ops..drop..Drop$GT$4drop17h79e2a7898af500ffE', symObjAddr: 0x67FC, symBinAddr: 0x4838C, symSize: 0x144 }
  - { offset: 0x1D4807, size: 0x8, addend: 0x0, symName: '__ZN72_$LT$pyo3..instance..Bound$LT$T$GT$$u20$as$u20$core..ops..drop..Drop$GT$4drop17h83cb66788af0c633E', symObjAddr: 0x6940, symBinAddr: 0x484D0, symSize: 0x144 }
  - { offset: 0x1D4CCF, size: 0x8, addend: 0x0, symName: '__ZN70_$LT$pyo3..pycell..PyRef$LT$T$GT$$u20$as$u20$core..ops..drop..Drop$GT$4drop17h06fd452544b207ecE', symObjAddr: 0x562C, symBinAddr: 0x471BC, symSize: 0x2C }
  - { offset: 0x1D4D02, size: 0x8, addend: 0x0, symName: '__ZN70_$LT$pyo3..pycell..PyRef$LT$T$GT$$u20$as$u20$core..ops..drop..Drop$GT$4drop17h1b626cbadcd150aaE', symObjAddr: 0x5658, symBinAddr: 0x471E8, symSize: 0x2C }
  - { offset: 0x1D4D35, size: 0x8, addend: 0x0, symName: '__ZN70_$LT$pyo3..pycell..PyRef$LT$T$GT$$u20$as$u20$core..ops..drop..Drop$GT$4drop17h4d194a54cc4ebccaE', symObjAddr: 0x5684, symBinAddr: 0x47214, symSize: 0x2C }
  - { offset: 0x1D5A84, size: 0x8, addend: 0x0, symName: '__ZN104_$LT$std..thread..Builder..spawn_unchecked_..MaybeDangling$LT$T$GT$$u20$as$u20$core..ops..drop..Drop$GT$4drop17h905e5a2a858ae458E', symObjAddr: 0x0, symBinAddr: 0x42018, symSize: 0x2C }
  - { offset: 0x1D62AE, size: 0x8, addend: 0x0, symName: '__ZN111_$LT$alloc..vec..in_place_drop..InPlaceDstDataSrcBufDrop$LT$Src$C$Dest$GT$$u20$as$u20$core..ops..drop..Drop$GT$4drop17h488bbdd15fe6b829E', symObjAddr: 0x2C, symBinAddr: 0x42044, symSize: 0xB8 }
  - { offset: 0x1D63FA, size: 0x8, addend: 0x0, symName: '__ZN89_$LT$alloc..vec..in_place_drop..InPlaceDrop$LT$T$GT$$u20$as$u20$core..ops..drop..Drop$GT$4drop17h155d0683fdfac10bE', symObjAddr: 0x6F88, symBinAddr: 0x48A20, symSize: 0x70 }
  - { offset: 0x1D64DB, size: 0x8, addend: 0x0, symName: '__ZN157_$LT$$LT$alloc..vec..into_iter..IntoIter$LT$T$C$A$GT$$u20$as$u20$core..ops..drop..Drop$GT$..drop..DropGuard$LT$T$C$A$GT$$u20$as$u20$core..ops..drop..Drop$GT$4drop17h28c408adcbc5744fE', symObjAddr: 0xE4, symBinAddr: 0x420FC, symSize: 0x7C }
  - { offset: 0x1D65E8, size: 0x8, addend: 0x0, symName: '__ZN157_$LT$$LT$alloc..vec..into_iter..IntoIter$LT$T$C$A$GT$$u20$as$u20$core..ops..drop..Drop$GT$..drop..DropGuard$LT$T$C$A$GT$$u20$as$u20$core..ops..drop..Drop$GT$4drop17h3727c015b4a25d50E', symObjAddr: 0x160, symBinAddr: 0x42178, symSize: 0x7C }
  - { offset: 0x1D66F5, size: 0x8, addend: 0x0, symName: '__ZN157_$LT$$LT$alloc..vec..into_iter..IntoIter$LT$T$C$A$GT$$u20$as$u20$core..ops..drop..Drop$GT$..drop..DropGuard$LT$T$C$A$GT$$u20$as$u20$core..ops..drop..Drop$GT$4drop17ha7e28c25ef2a5aa5E', symObjAddr: 0x1DC, symBinAddr: 0x421F4, symSize: 0x7C }
  - { offset: 0x1D6802, size: 0x8, addend: 0x0, symName: '__ZN157_$LT$$LT$alloc..vec..into_iter..IntoIter$LT$T$C$A$GT$$u20$as$u20$core..ops..drop..Drop$GT$..drop..DropGuard$LT$T$C$A$GT$$u20$as$u20$core..ops..drop..Drop$GT$4drop17hd87de76f7c3076f9E', symObjAddr: 0x258, symBinAddr: 0x42270, symSize: 0x7C }
  - { offset: 0x1D69AD, size: 0x8, addend: 0x0, symName: '__ZN86_$LT$alloc..vec..into_iter..IntoIter$LT$T$C$A$GT$$u20$as$u20$core..ops..drop..Drop$GT$4drop17h43e4407d3317bdaeE', symObjAddr: 0x6D28, symBinAddr: 0x487C0, symSize: 0x98 }
  - { offset: 0x1D6A47, size: 0x8, addend: 0x0, symName: '__ZN86_$LT$alloc..vec..into_iter..IntoIter$LT$T$C$A$GT$$u20$as$u20$core..ops..drop..Drop$GT$4drop17h6d81a8beabf24ef1E', symObjAddr: 0x6DC0, symBinAddr: 0x48858, symSize: 0x98 }
  - { offset: 0x1D6AE1, size: 0x8, addend: 0x0, symName: '__ZN86_$LT$alloc..vec..into_iter..IntoIter$LT$T$C$A$GT$$u20$as$u20$core..ops..drop..Drop$GT$4drop17h99a51a61b42a5c9dE', symObjAddr: 0x6E58, symBinAddr: 0x488F0, symSize: 0x98 }
  - { offset: 0x1D6B7B, size: 0x8, addend: 0x0, symName: '__ZN86_$LT$alloc..vec..into_iter..IntoIter$LT$T$C$A$GT$$u20$as$u20$core..ops..drop..Drop$GT$4drop17hf1c2761d943cf5dfE', symObjAddr: 0x6EF0, symBinAddr: 0x48988, symSize: 0x98 }
  - { offset: 0x1D6E44, size: 0x8, addend: 0x0, symName: '__ZN5alloc3vec16in_place_collect48from_iter_in_place$u7b$$u7b$reify.shim$u7d$$u7d$17hbeca91e6b0f3ed9eE', symObjAddr: 0x5494, symBinAddr: 0x47048, symSize: 0x1C }
  - { offset: 0x1D6E85, size: 0x8, addend: 0x0, symName: '__ZN70_$LT$alloc..vec..Vec$LT$T$C$A$GT$$u20$as$u20$core..ops..drop..Drop$GT$4drop17h40fae314b4b69144E', symObjAddr: 0x554C, symBinAddr: 0x470DC, symSize: 0x38 }
  - { offset: 0x1D6F35, size: 0x8, addend: 0x0, symName: '__ZN70_$LT$alloc..vec..Vec$LT$T$C$A$GT$$u20$as$u20$core..ops..drop..Drop$GT$4drop17h4df2214eef7f0f3dE', symObjAddr: 0x5584, symBinAddr: 0x47114, symSize: 0x38 }
  - { offset: 0x1D6FE5, size: 0x8, addend: 0x0, symName: '__ZN70_$LT$alloc..vec..Vec$LT$T$C$A$GT$$u20$as$u20$core..ops..drop..Drop$GT$4drop17h967f5c6650f0f1ffE', symObjAddr: 0x55BC, symBinAddr: 0x4714C, symSize: 0x38 }
  - { offset: 0x1D7095, size: 0x8, addend: 0x0, symName: '__ZN70_$LT$alloc..vec..Vec$LT$T$C$A$GT$$u20$as$u20$core..ops..drop..Drop$GT$4drop17hbc88980a2eeb6087E', symObjAddr: 0x55F4, symBinAddr: 0x47184, symSize: 0x38 }
  - { offset: 0x1D7AE1, size: 0x8, addend: 0x0, symName: '__ZN77_$LT$alloc..raw_vec..RawVec$LT$T$C$A$GT$$u20$as$u20$core..ops..drop..Drop$GT$4drop17h5ad1f6944dd71433E', symObjAddr: 0x6B4C, symBinAddr: 0x48614, symSize: 0x34 }
  - { offset: 0x1D7B1D, size: 0x8, addend: 0x0, symName: '__ZN77_$LT$alloc..raw_vec..RawVec$LT$T$C$A$GT$$u20$as$u20$core..ops..drop..Drop$GT$4drop17h8d6aa573c6ea85f6E', symObjAddr: 0x6B80, symBinAddr: 0x48648, symSize: 0x30 }
  - { offset: 0x1D7B59, size: 0x8, addend: 0x0, symName: '__ZN77_$LT$alloc..raw_vec..RawVec$LT$T$C$A$GT$$u20$as$u20$core..ops..drop..Drop$GT$4drop17hd93613cb41c595e6E', symObjAddr: 0x6BB0, symBinAddr: 0x48678, symSize: 0x34 }
  - { offset: 0x1D7B95, size: 0x8, addend: 0x0, symName: '__ZN77_$LT$alloc..raw_vec..RawVec$LT$T$C$A$GT$$u20$as$u20$core..ops..drop..Drop$GT$4drop17he34f791d0354bc9aE', symObjAddr: 0x6BE4, symBinAddr: 0x486AC, symSize: 0x34 }
  - { offset: 0x1D8719, size: 0x8, addend: 0x0, symName: '__ZN71_$LT$alloc..sync..Arc$LT$T$C$A$GT$$u20$as$u20$core..ops..drop..Drop$GT$4drop17h357374b13f0ba632E', symObjAddr: 0x56B0, symBinAddr: 0x47240, symSize: 0xA8 }
  - { offset: 0x1D8843, size: 0x8, addend: 0x0, symName: '__ZN71_$LT$alloc..sync..Arc$LT$T$C$A$GT$$u20$as$u20$core..ops..drop..Drop$GT$4drop17h3c74c818874adf51E', symObjAddr: 0x5758, symBinAddr: 0x472E8, symSize: 0xA8 }
  - { offset: 0x1D896D, size: 0x8, addend: 0x0, symName: '__ZN71_$LT$alloc..sync..Arc$LT$T$C$A$GT$$u20$as$u20$core..ops..drop..Drop$GT$4drop17h87e86d2fefa83614E', symObjAddr: 0x5800, symBinAddr: 0x47390, symSize: 0xA8 }
  - { offset: 0x1D8A97, size: 0x8, addend: 0x0, symName: '__ZN71_$LT$alloc..sync..Arc$LT$T$C$A$GT$$u20$as$u20$core..ops..drop..Drop$GT$4drop17he8c06f4c828a73cdE', symObjAddr: 0x58A8, symBinAddr: 0x47438, symSize: 0xA8 }
  - { offset: 0x1D9063, size: 0x8, addend: 0x0, symName: '__ZN72_$LT$alloc..sync..Weak$LT$T$C$A$GT$$u20$as$u20$core..ops..drop..Drop$GT$4drop17h32a46d1f50771b75E', symObjAddr: 0x60F8, symBinAddr: 0x47C88, symSize: 0x170 }
  - { offset: 0x1D9281, size: 0x8, addend: 0x0, symName: '__ZN72_$LT$alloc..sync..Weak$LT$T$C$A$GT$$u20$as$u20$core..ops..drop..Drop$GT$4drop17hbe819a5b7123f156E', symObjAddr: 0x6268, symBinAddr: 0x47DF8, symSize: 0x170 }
  - { offset: 0x1D949F, size: 0x8, addend: 0x0, symName: '__ZN72_$LT$alloc..sync..Weak$LT$T$C$A$GT$$u20$as$u20$core..ops..drop..Drop$GT$4drop17hef0485517918e0e1E', symObjAddr: 0x63D8, symBinAddr: 0x47F68, symSize: 0x170 }
  - { offset: 0x1D96BD, size: 0x8, addend: 0x0, symName: '__ZN72_$LT$alloc..sync..Weak$LT$T$C$A$GT$$u20$as$u20$core..ops..drop..Drop$GT$4drop17hf80f00c1669e4370E', symObjAddr: 0x6548, symBinAddr: 0x480D8, symSize: 0x170 }
  - { offset: 0x1DA03B, size: 0x8, addend: 0x0, symName: '__ZN72_$LT$alloc..boxed..Box$LT$T$C$A$GT$$u20$as$u20$core..ops..drop..Drop$GT$4drop17h0152fe4466f20546E', symObjAddr: 0x5950, symBinAddr: 0x474E0, symSize: 0xCC }
  - { offset: 0x1DA172, size: 0x8, addend: 0x0, symName: '__ZN72_$LT$alloc..boxed..Box$LT$T$C$A$GT$$u20$as$u20$core..ops..drop..Drop$GT$4drop17h5361f5040c05f38bE', symObjAddr: 0x5A1C, symBinAddr: 0x475AC, symSize: 0xCC }
  - { offset: 0x1DA2A9, size: 0x8, addend: 0x0, symName: '__ZN72_$LT$alloc..boxed..Box$LT$T$C$A$GT$$u20$as$u20$core..ops..drop..Drop$GT$4drop17h656d3692789d3606E', symObjAddr: 0x5AE8, symBinAddr: 0x47678, symSize: 0xB8 }
  - { offset: 0x1DA3E0, size: 0x8, addend: 0x0, symName: '__ZN72_$LT$alloc..boxed..Box$LT$T$C$A$GT$$u20$as$u20$core..ops..drop..Drop$GT$4drop17h6a87cbad31106dc7E', symObjAddr: 0x5BA0, symBinAddr: 0x47730, symSize: 0xCC }
  - { offset: 0x1DA517, size: 0x8, addend: 0x0, symName: '__ZN72_$LT$alloc..boxed..Box$LT$T$C$A$GT$$u20$as$u20$core..ops..drop..Drop$GT$4drop17h74f356ccbfef7240E', symObjAddr: 0x5C6C, symBinAddr: 0x477FC, symSize: 0xCC }
  - { offset: 0x1DA64E, size: 0x8, addend: 0x0, symName: '__ZN72_$LT$alloc..boxed..Box$LT$T$C$A$GT$$u20$as$u20$core..ops..drop..Drop$GT$4drop17h9c289c1064c22a8bE', symObjAddr: 0x5D38, symBinAddr: 0x478C8, symSize: 0xB8 }
  - { offset: 0x1DA785, size: 0x8, addend: 0x0, symName: '__ZN72_$LT$alloc..boxed..Box$LT$T$C$A$GT$$u20$as$u20$core..ops..drop..Drop$GT$4drop17habd77343e29e6696E', symObjAddr: 0x5DF0, symBinAddr: 0x47980, symSize: 0xB8 }
  - { offset: 0x1DA8BC, size: 0x8, addend: 0x0, symName: '__ZN72_$LT$alloc..boxed..Box$LT$T$C$A$GT$$u20$as$u20$core..ops..drop..Drop$GT$4drop17hbcb8efa14fa78f1aE', symObjAddr: 0x5EA8, symBinAddr: 0x47A38, symSize: 0xB8 }
  - { offset: 0x1DA9F3, size: 0x8, addend: 0x0, symName: '__ZN72_$LT$alloc..boxed..Box$LT$T$C$A$GT$$u20$as$u20$core..ops..drop..Drop$GT$4drop17hc6e028aac803cd44E', symObjAddr: 0x5F60, symBinAddr: 0x47AF0, symSize: 0xCC }
  - { offset: 0x1DAB2A, size: 0x8, addend: 0x0, symName: '__ZN72_$LT$alloc..boxed..Box$LT$T$C$A$GT$$u20$as$u20$core..ops..drop..Drop$GT$4drop17hc7d69578c4d550daE', symObjAddr: 0x602C, symBinAddr: 0x47BBC, symSize: 0xCC }
  - { offset: 0x1DFE67, size: 0x8, addend: 0x0, symName: '__ZN4core3cmp5impls69_$LT$impl$u20$core..cmp..PartialEq$LT$$RF$B$GT$$u20$for$u20$$RF$A$GT$2eq17hf5036030a416b6beE', symObjAddr: 0x0, symBinAddr: 0x48C10, symSize: 0x34 }
  - { offset: 0x1E4F7B, size: 0x8, addend: 0x0, symName: '__ZN4core3cmp5impls69_$LT$impl$u20$core..cmp..PartialEq$LT$$RF$B$GT$$u20$for$u20$$RF$A$GT$2eq17hf5036030a416b6beE', symObjAddr: 0x0, symBinAddr: 0x48C10, symSize: 0x34 }
  - { offset: 0x1E4FCA, size: 0x8, addend: 0x0, symName: '__ZN4core3cmp5impls69_$LT$impl$u20$core..cmp..PartialEq$LT$$RF$B$GT$$u20$for$u20$$RF$A$GT$2ne17h3eb388811de8e810E', symObjAddr: 0x34, symBinAddr: 0x48C44, symSize: 0x34 }
  - { offset: 0x1E5020, size: 0x8, addend: 0x0, symName: __ZN4core3cmp9PartialEq2ne17h299a65cdbd629f64E, symObjAddr: 0x68, symBinAddr: 0x48C78, symSize: 0x30 }
  - { offset: 0x1E507B, size: 0x8, addend: 0x0, symName: '__ZN50_$LT$T$u20$as$u20$core..convert..Into$LT$U$GT$$GT$4into17h09e4f7b0da0622dbE', symObjAddr: 0x36C, symBinAddr: 0x48F7C, symSize: 0x2C }
  - { offset: 0x1E50BB, size: 0x8, addend: 0x0, symName: '__ZN50_$LT$T$u20$as$u20$core..convert..Into$LT$U$GT$$GT$4into17h998744c67651a77fE', symObjAddr: 0x398, symBinAddr: 0x48FA8, symSize: 0x20 }
  - { offset: 0x1E50FB, size: 0x8, addend: 0x0, symName: '__ZN50_$LT$T$u20$as$u20$core..convert..Into$LT$U$GT$$GT$4into17h9ded436a0f52753eE', symObjAddr: 0x3B8, symBinAddr: 0x48FC8, symSize: 0x20 }
  - { offset: 0x1E513B, size: 0x8, addend: 0x0, symName: '__ZN50_$LT$T$u20$as$u20$core..convert..Into$LT$U$GT$$GT$4into17hbf2d2889e60781e6E', symObjAddr: 0x3D8, symBinAddr: 0x48FE8, symSize: 0x14 }
  - { offset: 0x1E5197, size: 0x8, addend: 0x0, symName: '__ZN60_$LT$$RF$mut$u20$T$u20$as$u20$core..ops..deref..DerefMut$GT$9deref_mut17h15c8e37711293036E', symObjAddr: 0x5B8, symBinAddr: 0x491C8, symSize: 0x18 }
  - { offset: 0x1E51CE, size: 0x8, addend: 0x0, symName: '__ZN60_$LT$$RF$mut$u20$T$u20$as$u20$core..ops..deref..DerefMut$GT$9deref_mut17h7cdb32d711abbd74E', symObjAddr: 0x5D0, symBinAddr: 0x491E0, symSize: 0x18 }
  - { offset: 0x1E5205, size: 0x8, addend: 0x0, symName: '__ZN60_$LT$$RF$mut$u20$T$u20$as$u20$core..ops..deref..DerefMut$GT$9deref_mut17hb0984209e4c7815eE', symObjAddr: 0x5E8, symBinAddr: 0x491F8, symSize: 0x18 }
  - { offset: 0x1EB724, size: 0x8, addend: 0x0, symName: '__ZN17effect_log_native11PyEffectLog3new28_$u7b$$u7b$closure$u7d$$u7d$28_$u7b$$u7b$closure$u7d$$u7d$17hae010f45d80cce95E', symObjAddr: 0xCF8, symBinAddr: 0x49908, symSize: 0x24 }
  - { offset: 0x1EB76B, size: 0x8, addend: 0x0, symName: '__ZN17effect_log_native11PyEffectLog3new28_$u7b$$u7b$closure$u7d$$u7d$28_$u7b$$u7b$closure$u7d$$u7d$17h6649a34893583710E', symObjAddr: 0xD1C, symBinAddr: 0x4992C, symSize: 0x380 }
  - { offset: 0x1EB81E, size: 0x8, addend: 0x0, symName: '__ZN17effect_log_native11PyEffectLog3new28_$u7b$$u7b$closure$u7d$$u7d$28_$u7b$$u7b$closure$u7d$$u7d$28_$u7b$$u7b$closure$u7d$$u7d$17hca0fbb1b0be5a93bE', symObjAddr: 0x109C, symBinAddr: 0x49CAC, symSize: 0x350 }
  - { offset: 0x1EB970, size: 0x8, addend: 0x0, symName: '__ZN17effect_log_native11PyEffectLog3new28_$u7b$$u7b$closure$u7d$$u7d$28_$u7b$$u7b$closure$u7d$$u7d$28_$u7b$$u7b$closure$u7d$$u7d$28_$u7b$$u7b$closure$u7d$$u7d$17hc6bb71badbfadd5aE', symObjAddr: 0x13EC, symBinAddr: 0x49FFC, symSize: 0xE8 }
  - { offset: 0x1EB9AC, size: 0x8, addend: 0x0, symName: '__ZN17effect_log_native11PyEffectLog3new28_$u7b$$u7b$closure$u7d$$u7d$28_$u7b$$u7b$closure$u7d$$u7d$28_$u7b$$u7b$closure$u7d$$u7d$28_$u7b$$u7b$closure$u7d$$u7d$17hc036197be6547cfcE', symObjAddr: 0x14D4, symBinAddr: 0x4A0E4, symSize: 0xC4 }
  - { offset: 0x1EB9E7, size: 0x8, addend: 0x0, symName: '__ZN17effect_log_native11PyEffectLog3new28_$u7b$$u7b$closure$u7d$$u7d$28_$u7b$$u7b$closure$u7d$$u7d$28_$u7b$$u7b$closure$u7d$$u7d$28_$u7b$$u7b$closure$u7d$$u7d$17h290dbe765f45a93fE', symObjAddr: 0x1598, symBinAddr: 0x4A1A8, symSize: 0x5C }
  - { offset: 0x1EBA1D, size: 0x8, addend: 0x0, symName: '__ZN17effect_log_native11PyEffectLog3new28_$u7b$$u7b$closure$u7d$$u7d$28_$u7b$$u7b$closure$u7d$$u7d$28_$u7b$$u7b$closure$u7d$$u7d$28_$u7b$$u7b$closure$u7d$$u7d$17h7d01c0f2b521b64dE', symObjAddr: 0x15F4, symBinAddr: 0x4A204, symSize: 0x74 }
  - { offset: 0x1EBB0C, size: 0x8, addend: 0x0, symName: '__ZN17effect_log_native11PyEffectLog3new28_$u7b$$u7b$closure$u7d$$u7d$28_$u7b$$u7b$closure$u7d$$u7d$17h5a4536ee47cf3afdE', symObjAddr: 0x1790, symBinAddr: 0x4A3A0, symSize: 0x24 }
  - { offset: 0x1EBB53, size: 0x8, addend: 0x0, symName: '__ZN17effect_log_native11PyEffectLog3new28_$u7b$$u7b$closure$u7d$$u7d$28_$u7b$$u7b$closure$u7d$$u7d$17hf49c27d6c0e819b7E', symObjAddr: 0x17B4, symBinAddr: 0x4A3C4, symSize: 0x158 }
  - { offset: 0x1EBBA7, size: 0x8, addend: 0x0, symName: '__ZN17effect_log_native11PyEffectLog3new28_$u7b$$u7b$closure$u7d$$u7d$28_$u7b$$u7b$closure$u7d$$u7d$28_$u7b$$u7b$closure$u7d$$u7d$17h535f7e3f8d2bb501E', symObjAddr: 0x190C, symBinAddr: 0x4A51C, symSize: 0x204 }
  - { offset: 0x1EBC96, size: 0x8, addend: 0x0, symName: '__ZN17effect_log_native11PyEffectLog3new28_$u7b$$u7b$closure$u7d$$u7d$28_$u7b$$u7b$closure$u7d$$u7d$28_$u7b$$u7b$closure$u7d$$u7d$28_$u7b$$u7b$closure$u7d$$u7d$17hd8fd06c28b928918E', symObjAddr: 0x1B10, symBinAddr: 0x4A720, symSize: 0xE8 }
  - { offset: 0x1EBCD3, size: 0x8, addend: 0x0, symName: '__ZN17effect_log_native11PyEffectLog3new28_$u7b$$u7b$closure$u7d$$u7d$28_$u7b$$u7b$closure$u7d$$u7d$28_$u7b$$u7b$closure$u7d$$u7d$17hc2e90b091ba1b3d8E', symObjAddr: 0x1BF8, symBinAddr: 0x4A808, symSize: 0x54 }
  - { offset: 0x1EBD13, size: 0x8, addend: 0x0, symName: '__ZN17effect_log_native11PyEffectLog3new28_$u7b$$u7b$closure$u7d$$u7d$17h45139a32298ee074E', symObjAddr: 0x878, symBinAddr: 0x49488, symSize: 0x74 }
  - { offset: 0x1EBD49, size: 0x8, addend: 0x0, symName: '__ZN17effect_log_native11PyEffectLog3new28_$u7b$$u7b$closure$u7d$$u7d$17h6bdd7d46c9f215c6E', symObjAddr: 0x8EC, symBinAddr: 0x494FC, symSize: 0x218 }
  - { offset: 0x1EBDCB, size: 0x8, addend: 0x0, symName: '__ZN17effect_log_native11PyEffectLog3new28_$u7b$$u7b$closure$u7d$$u7d$28_$u7b$$u7b$closure$u7d$$u7d$17hb5c5573fb924428eE', symObjAddr: 0xB04, symBinAddr: 0x49714, symSize: 0x30 }
  - { offset: 0x1EBE09, size: 0x8, addend: 0x0, symName: '__ZN17effect_log_native11PyEffectLog3new28_$u7b$$u7b$closure$u7d$$u7d$17h5787e7c6334d95abE', symObjAddr: 0xB34, symBinAddr: 0x49744, symSize: 0x6C }
  - { offset: 0x1EBE40, size: 0x8, addend: 0x0, symName: '__ZN17effect_log_native11PyEffectLog3new28_$u7b$$u7b$closure$u7d$$u7d$17h2e0ce54cf52624d4E', symObjAddr: 0xBA0, symBinAddr: 0x497B0, symSize: 0x30 }
  - { offset: 0x1EBE85, size: 0x8, addend: 0x0, symName: '__ZN17effect_log_native11PyEffectLog3new28_$u7b$$u7b$closure$u7d$$u7d$17hf026df89f96b74b0E', symObjAddr: 0xBD0, symBinAddr: 0x497E0, symSize: 0x128 }
  - { offset: 0x1EBF1A, size: 0x8, addend: 0x0, symName: '__ZN17effect_log_native11PyEffectLog3new28_$u7b$$u7b$closure$u7d$$u7d$17h43ec54b934c73b94E', symObjAddr: 0x1668, symBinAddr: 0x4A278, symSize: 0x128 }
  - { offset: 0x1EBFAF, size: 0x8, addend: 0x0, symName: '__ZN17effect_log_native11PyEffectLog3new28_$u7b$$u7b$closure$u7d$$u7d$17h1865758504209f30E', symObjAddr: 0x1C4C, symBinAddr: 0x4A85C, symSize: 0x6C }
  - { offset: 0x1EBFE6, size: 0x8, addend: 0x0, symName: '__ZN17effect_log_native11PyEffectLog3new28_$u7b$$u7b$closure$u7d$$u7d$17h20e8582241e4509bE', symObjAddr: 0x1CB8, symBinAddr: 0x4A8C8, symSize: 0x6C }
  - { offset: 0x1EC01D, size: 0x8, addend: 0x0, symName: '__ZN17effect_log_native11PyEffectLog3new28_$u7b$$u7b$closure$u7d$$u7d$17h4352064ae35b58dbE', symObjAddr: 0x1D24, symBinAddr: 0x4A934, symSize: 0x6C }
  - { offset: 0x1EC054, size: 0x8, addend: 0x0, symName: '__ZN17effect_log_native11PyEffectLog3new28_$u7b$$u7b$closure$u7d$$u7d$17h4ceb8fa3dd0e190dE', symObjAddr: 0x1D90, symBinAddr: 0x4A9A0, symSize: 0x6C }
  - { offset: 0x1EC17E, size: 0x8, addend: 0x0, symName: '__ZN17effect_log_native11PyEffectLog7execute28_$u7b$$u7b$closure$u7d$$u7d$17h438619c0069b1ffaE', symObjAddr: 0x1DFC, symBinAddr: 0x4AA0C, symSize: 0x74 }
  - { offset: 0x1EC1B4, size: 0x8, addend: 0x0, symName: '__ZN17effect_log_native11PyEffectLog7execute28_$u7b$$u7b$closure$u7d$$u7d$17h890896b580c4cb4cE', symObjAddr: 0x1E70, symBinAddr: 0x4AA80, symSize: 0x408 }
  - { offset: 0x1EC2C7, size: 0x8, addend: 0x0, symName: '__ZN17effect_log_native11PyEffectLog7execute28_$u7b$$u7b$closure$u7d$$u7d$17hdbcf02842a0324ddE', symObjAddr: 0x2278, symBinAddr: 0x4AE88, symSize: 0x74 }
  - { offset: 0x1EC484, size: 0x8, addend: 0x0, symName: '__ZN17effect_log_native11PyEffectLog7history28_$u7b$$u7b$closure$u7d$$u7d$17h0413035e4c63aa4cE', symObjAddr: 0x22EC, symBinAddr: 0x4AEFC, symSize: 0x374 }
  - { offset: 0x1EC570, size: 0x8, addend: 0x0, symName: '__ZN17effect_log_native11PyEffectLog7history28_$u7b$$u7b$closure$u7d$$u7d$17h7351c3bb93c39565E', symObjAddr: 0x2660, symBinAddr: 0x4B270, symSize: 0x74 }
  - { offset: 0x1EC5A6, size: 0x8, addend: 0x0, symName: '__ZN17effect_log_native11PyEffectLog7history28_$u7b$$u7b$closure$u7d$$u7d$17h3fe8d399d66d5a38E', symObjAddr: 0x26D4, symBinAddr: 0x4B2E4, symSize: 0x74 }
  - { offset: 0x1EC70F, size: 0x8, addend: 0x0, symName: '__ZN85_$LT$effect_log_native..PyEffectKind$u20$as$u20$pyo3..impl_..pyclass..PyClassImpl$GT$3doc28_$u7b$$u7b$closure$u7d$$u7d$17h45e35a5f9a529eb9E', symObjAddr: 0x628, symBinAddr: 0x49238, symSize: 0x58 }
  - { offset: 0x1EC767, size: 0x8, addend: 0x0, symName: '__ZN17effect_log_native12PyEffectKind24__pymethod___richcmp____28_$u7b$$u7b$closure$u7d$$u7d$17hcac2d594391fb0a5E', symObjAddr: 0x680, symBinAddr: 0x49290, symSize: 0x2C }
  - { offset: 0x1EC7A2, size: 0x8, addend: 0x0, symName: '__ZN17effect_log_native12PyEffectKind30__pyo3__generated____richcmp__28_$u7b$$u7b$closure$u7d$$u7d$17hadc1d496389c63eaE', symObjAddr: 0x6AC, symBinAddr: 0x492BC, symSize: 0x74 }
  - { offset: 0x1EC7E0, size: 0x8, addend: 0x0, symName: '__ZN17effect_log_native12PyEffectKind30__pyo3__generated____richcmp__28_$u7b$$u7b$closure$u7d$$u7d$28_$u7b$$u7b$closure$u7d$$u7d$17h49900fe79989378fE', symObjAddr: 0x720, symBinAddr: 0x49330, symSize: 0x88 }
  - { offset: 0x1EC82A, size: 0x8, addend: 0x0, symName: '__ZN82_$LT$effect_log_native..PyToolDef$u20$as$u20$pyo3..impl_..pyclass..PyClassImpl$GT$3doc28_$u7b$$u7b$closure$u7d$$u7d$17h25c8b552de861949E', symObjAddr: 0x7A8, symBinAddr: 0x493B8, symSize: 0x54 }
  - { offset: 0x1EC882, size: 0x8, addend: 0x0, symName: '__ZN17effect_log_native9PyToolDef20__pymethod___new____28_$u7b$$u7b$closure$u7d$$u7d$17h7e026cde8e2bd103E', symObjAddr: 0x7FC, symBinAddr: 0x4940C, symSize: 0x28 }
  - { offset: 0x1EC8BD, size: 0x8, addend: 0x0, symName: '__ZN84_$LT$effect_log_native..PyEffectLog$u20$as$u20$pyo3..impl_..pyclass..PyClassImpl$GT$3doc28_$u7b$$u7b$closure$u7d$$u7d$17ha2ec3cb68ebac85fE', symObjAddr: 0x824, symBinAddr: 0x49434, symSize: 0x54 }
  - { offset: 0x1EC915, size: 0x8, addend: 0x0, symName: '__ZN17effect_log_native11PyEffectLog20__pymethod___new____28_$u7b$$u7b$closure$u7d$$u7d$17hda9d52216b49997eE', symObjAddr: 0x2748, symBinAddr: 0x4B358, symSize: 0x20 }
  - { offset: 0x1EC93D, size: 0x8, addend: 0x0, symName: '__ZN17effect_log_native11PyEffectLog20__pymethod___new____28_$u7b$$u7b$closure$u7d$$u7d$17h5def009913ea299eE', symObjAddr: 0x2768, symBinAddr: 0x4B378, symSize: 0x18 }
  - { offset: 0x1ECCF3, size: 0x8, addend: 0x0, symName: __ZN4pyo310conversion15IntoPyObjectExt11into_py_any17hab5677e707415af8E, symObjAddr: 0x98, symBinAddr: 0x48CA8, symSize: 0xB8 }
  - { offset: 0x1ECD88, size: 0x8, addend: 0x0, symName: '__ZN52_$LT$T$u20$as$u20$pyo3..conversion..FromPyObject$GT$13extract_bound17h105c188659833fdaE', symObjAddr: 0x3EC, symBinAddr: 0x48FFC, symSize: 0x12C }
  - { offset: 0x1ECE36, size: 0x8, addend: 0x0, symName: '__ZN57_$LT$T$u20$as$u20$pyo3..conversion..FromPyObjectBound$GT$20from_py_object_bound17ha47c890acbfa0a08E', symObjAddr: 0x584, symBinAddr: 0x49194, symSize: 0x34 }
  - { offset: 0x1ECE79, size: 0x8, addend: 0x0, symName: __ZN4pyo311type_object10PyTypeInfo10is_type_of17h064a3743010e3068E, symObjAddr: 0x150, symBinAddr: 0x48D60, symSize: 0x50 }
  - { offset: 0x1ECEAE, size: 0x8, addend: 0x0, symName: __ZN4pyo311type_object10PyTypeInfo10is_type_of17h2e31d90757f4d790E, symObjAddr: 0x1A0, symBinAddr: 0x48DB0, symSize: 0x50 }
  - { offset: 0x1ECEE3, size: 0x8, addend: 0x0, symName: __ZN4pyo311type_object10PyTypeInfo10is_type_of17h955c0f4e7933cdddE, symObjAddr: 0x1F0, symBinAddr: 0x48E00, symSize: 0x50 }
  - { offset: 0x1ECF1E, size: 0x8, addend: 0x0, symName: '__ZN52_$LT$T$u20$as$u20$pyo3..type_object..PyTypeCheck$GT$10type_check17h70a6178b3be6e405E', symObjAddr: 0x518, symBinAddr: 0x49128, symSize: 0x24 }
  - { offset: 0x1ECF53, size: 0x8, addend: 0x0, symName: '__ZN52_$LT$T$u20$as$u20$pyo3..type_object..PyTypeCheck$GT$10type_check17hba954d8433b5a993E', symObjAddr: 0x53C, symBinAddr: 0x4914C, symSize: 0x24 }
  - { offset: 0x1ECF88, size: 0x8, addend: 0x0, symName: '__ZN52_$LT$T$u20$as$u20$pyo3..type_object..PyTypeCheck$GT$10type_check17hdf17cf36a11449f5E', symObjAddr: 0x560, symBinAddr: 0x49170, symSize: 0x24 }
  - { offset: 0x1ECFC9, size: 0x8, addend: 0x0, symName: '__ZN4pyo312pyclass_init130_$LT$impl$u20$pyo3..impl_..callback..IntoPyCallbackOutput$LT$pyo3..pyclass_init..PyClassInitializer$LT$T$GT$$GT$$u20$for$u20$U$GT$7convert17h73b602efeaf974e0E', symObjAddr: 0x240, symBinAddr: 0x48E50, symSize: 0x50 }
  - { offset: 0x1ED025, size: 0x8, addend: 0x0, symName: '__ZN4pyo312pyclass_init130_$LT$impl$u20$pyo3..impl_..callback..IntoPyCallbackOutput$LT$pyo3..pyclass_init..PyClassInitializer$LT$T$GT$$GT$$u20$for$u20$U$GT$7convert17hb0606e9a42c5bea0E', symObjAddr: 0x290, symBinAddr: 0x48EA0, symSize: 0x4C }
  - { offset: 0x1ED25E, size: 0x8, addend: 0x0, symName: __ZN4pyo35impl_7pyclass11PyClassImpl11dict_offset17h49072c7f20c5404eE, symObjAddr: 0x2DC, symBinAddr: 0x48EEC, symSize: 0x18 }
  - { offset: 0x1ED285, size: 0x8, addend: 0x0, symName: __ZN4pyo35impl_7pyclass11PyClassImpl11dict_offset17h7f8b01b0e9f6b58fE, symObjAddr: 0x2F4, symBinAddr: 0x48F04, symSize: 0x18 }
  - { offset: 0x1ED2AC, size: 0x8, addend: 0x0, symName: __ZN4pyo35impl_7pyclass11PyClassImpl11dict_offset17hd00e77931ad73089E, symObjAddr: 0x30C, symBinAddr: 0x48F1C, symSize: 0x18 }
  - { offset: 0x1ED2D3, size: 0x8, addend: 0x0, symName: __ZN4pyo35impl_7pyclass11PyClassImpl15weaklist_offset17h2e24227d07926036E, symObjAddr: 0x324, symBinAddr: 0x48F34, symSize: 0x18 }
  - { offset: 0x1ED2FA, size: 0x8, addend: 0x0, symName: __ZN4pyo35impl_7pyclass11PyClassImpl15weaklist_offset17h3c257b0d6d75ca34E, symObjAddr: 0x33C, symBinAddr: 0x48F4C, symSize: 0x18 }
  - { offset: 0x1ED321, size: 0x8, addend: 0x0, symName: __ZN4pyo35impl_7pyclass11PyClassImpl15weaklist_offset17h3f3734ea9a6b4250E, symObjAddr: 0x354, symBinAddr: 0x48F64, symSize: 0x18 }
  - { offset: 0x1ED3AE, size: 0x8, addend: 0x0, symName: '__ZN71_$LT$T$u20$as$u20$pyo3..impl_..extract_argument..PyFunctionArgument$GT$7extract17h7147726823263bd8E', symObjAddr: 0x600, symBinAddr: 0x49210, symSize: 0x28 }
  - { offset: 0x1EF334, size: 0x8, addend: 0x0, symName: '__ZN4core3cmp5impls69_$LT$impl$u20$core..cmp..PartialEq$LT$$RF$B$GT$$u20$for$u20$$RF$A$GT$2eq17h054fdbd6d8589814E', symObjAddr: 0x0, symBinAddr: 0x4B390, symSize: 0x34 }
  - { offset: 0x1EF355, size: 0x8, addend: 0x0, symName: '__ZN4core3cmp5impls69_$LT$impl$u20$core..cmp..PartialEq$LT$$RF$B$GT$$u20$for$u20$$RF$A$GT$2eq17h054fdbd6d8589814E', symObjAddr: 0x0, symBinAddr: 0x4B390, symSize: 0x34 }
  - { offset: 0x1EF49C, size: 0x8, addend: 0x0, symName: '__ZN110_$LT$core..iter..adapters..enumerate..Enumerate$LT$I$GT$$u20$as$u20$core..iter..traits..iterator..Iterator$GT$4next17h743c3a0b31fdfab8E', symObjAddr: 0x0, symBinAddr: 0x4B3C4, symSize: 0xE0 }
  - { offset: 0x1F07FA, size: 0x8, addend: 0x0, symName: '__ZN110_$LT$core..iter..adapters..enumerate..Enumerate$LT$I$GT$$u20$as$u20$core..iter..traits..iterator..Iterator$GT$4next17h743c3a0b31fdfab8E', symObjAddr: 0x0, symBinAddr: 0x4B3C4, symSize: 0xE0 }
  - { offset: 0x1F0948, size: 0x8, addend: 0x0, symName: '__ZN63_$LT$I$u20$as$u20$core..iter..traits..collect..IntoIterator$GT$9into_iter17h1aec2edce65d8671E', symObjAddr: 0xE0, symBinAddr: 0x4B4A4, symSize: 0x30 }
  - { offset: 0x1F103D, size: 0x8, addend: 0x0, symName: __ZN4pyo36marker6Python14NotImplemented17he3279e838d6b687bE, symObjAddr: 0x0, symBinAddr: 0x4B4D4, symSize: 0x28 }
  - { offset: 0x1F26F2, size: 0x8, addend: 0x0, symName: __ZN4pyo36marker6Python14NotImplemented17he3279e838d6b687bE, symObjAddr: 0x0, symBinAddr: 0x4B4D4, symSize: 0x28 }
  - { offset: 0x1F2721, size: 0x8, addend: 0x0, symName: __ZN4pyo36marker6Python19assume_gil_acquired17h39dda0dc437c1d34E, symObjAddr: 0x28, symBinAddr: 0x4B4FC, symSize: 0x4 }
  - { offset: 0x1F2734, size: 0x8, addend: 0x0, symName: __ZN4pyo36marker6Python4None17h4a95532f2b5a3ed5E, symObjAddr: 0x2C, symBinAddr: 0x4B500, symSize: 0x28 }
  - { offset: 0x1F2781, size: 0x8, addend: 0x0, symName: __ZN4pyo35impl_16extract_argument16extract_argument17h014c7c1d5dbcc4b3E, symObjAddr: 0x0, symBinAddr: 0x4B528, symSize: 0x150 }
  - { offset: 0x1F8770, size: 0x8, addend: 0x0, symName: __ZN4pyo35impl_16extract_argument16extract_argument17h014c7c1d5dbcc4b3E, symObjAddr: 0x0, symBinAddr: 0x4B528, symSize: 0x150 }
  - { offset: 0x1F87F5, size: 0x8, addend: 0x0, symName: __ZN4pyo35impl_16extract_argument16extract_argument17h0ea3fdd2c42e1567E, symObjAddr: 0x150, symBinAddr: 0x4B678, symSize: 0x144 }
  - { offset: 0x1F887B, size: 0x8, addend: 0x0, symName: __ZN4pyo35impl_16extract_argument16extract_argument17h12110ba8fd8418d8E, symObjAddr: 0x294, symBinAddr: 0x4B7BC, symSize: 0x138 }
  - { offset: 0x1F8900, size: 0x8, addend: 0x0, symName: __ZN4pyo35impl_16extract_argument16extract_argument17h472e194408922363E, symObjAddr: 0x3CC, symBinAddr: 0x4B8F4, symSize: 0x138 }
  - { offset: 0x1F8985, size: 0x8, addend: 0x0, symName: __ZN4pyo35impl_16extract_argument16extract_argument17h6ff3b1ec5033ad1bE, symObjAddr: 0x504, symBinAddr: 0x4BA2C, symSize: 0x138 }
  - { offset: 0x1F8A0A, size: 0x8, addend: 0x0, symName: __ZN4pyo35impl_16extract_argument16extract_argument17hafc0cf3190a8467aE, symObjAddr: 0x63C, symBinAddr: 0x4BB64, symSize: 0x138 }
  - { offset: 0x1F8A8F, size: 0x8, addend: 0x0, symName: __ZN4pyo35impl_16extract_argument16extract_argument17hd68c58e2cfa614d8E, symObjAddr: 0x774, symBinAddr: 0x4BC9C, symSize: 0x144 }
  - { offset: 0x1F8B14, size: 0x8, addend: 0x0, symName: __ZN4pyo35impl_16extract_argument16extract_argument17hf7b18797ad29b455E, symObjAddr: 0x8B8, symBinAddr: 0x4BDE0, symSize: 0x150 }
  - { offset: 0x1F8D1A, size: 0x8, addend: 0x0, symName: '__ZN4pyo35impl_16extract_argument19FunctionDescription26extract_arguments_fastcall28_$u7b$$u7b$closure$u7d$$u7d$17h197c00c24a4246aaE', symObjAddr: 0x1DD4, symBinAddr: 0x4D2FC, symSize: 0x24 }
  - { offset: 0x1F8D72, size: 0x8, addend: 0x0, symName: '__ZN4pyo35impl_16extract_argument19FunctionDescription28extract_arguments_tuple_dict28_$u7b$$u7b$closure$u7d$$u7d$17ha34b507b27eddedfE', symObjAddr: 0x2278, symBinAddr: 0x4D7A0, symSize: 0x24 }
  - { offset: 0x1F8DCA, size: 0x8, addend: 0x0, symName: '__ZN4pyo35impl_16extract_argument19FunctionDescription36find_keyword_parameter_in_positional28_$u7b$$u7b$closure$u7d$$u7d$17h0aa4733934b9a4c1E', symObjAddr: 0x229C, symBinAddr: 0x4D7C4, symSize: 0x48 }
  - { offset: 0x1F8E2A, size: 0x8, addend: 0x0, symName: '__ZN4pyo35impl_16extract_argument19FunctionDescription38find_keyword_parameter_in_keyword_only28_$u7b$$u7b$closure$u7d$$u7d$17h2785ece825fa5f99E', symObjAddr: 0x22E4, symBinAddr: 0x4D80C, symSize: 0x38 }
  - { offset: 0x1F8E6C, size: 0x8, addend: 0x0, symName: __ZN4pyo35impl_16extract_argument19extract_pyclass_ref17h2bb2951c5c6666caE, symObjAddr: 0x231C, symBinAddr: 0x4D844, symSize: 0xB0 }
  - { offset: 0x1F8ECD, size: 0x8, addend: 0x0, symName: __ZN4pyo35impl_16extract_argument19extract_pyclass_ref17hfd80c2090ec2b9e6E, symObjAddr: 0x23CC, symBinAddr: 0x4D8F4, symSize: 0xB0 }
  - { offset: 0x1F8F2E, size: 0x8, addend: 0x0, symName: __ZN4pyo35impl_16extract_argument25extract_optional_argument17h00704344b6df173aE, symObjAddr: 0x247C, symBinAddr: 0x4D9A4, symSize: 0xC8 }
  - { offset: 0x1F8FA3, size: 0x8, addend: 0x0, symName: __ZN4pyo35impl_16extract_argument29extract_argument_with_default17h36b09044a48dcf36E, symObjAddr: 0x2544, symBinAddr: 0x4DA6C, symSize: 0x8C }
  - { offset: 0x1F901F, size: 0x8, addend: 0x0, symName: __ZN4pyo35impl_16extract_argument29extract_argument_with_default17hc1e507c4168df601E, symObjAddr: 0x25D0, symBinAddr: 0x4DAF8, symSize: 0x90 }
  - { offset: 0x1F90A0, size: 0x8, addend: 0x0, symName: '__ZN71_$LT$T$u20$as$u20$pyo3..impl_..extract_argument..PyFunctionArgument$GT$7extract17h74b195def77fcec2E', symObjAddr: 0x2660, symBinAddr: 0x4DB88, symSize: 0x28 }
  - { offset: 0x1F90DF, size: 0x8, addend: 0x0, symName: '__ZN71_$LT$T$u20$as$u20$pyo3..impl_..extract_argument..PyFunctionArgument$GT$7extract17hbf7a4fec2fc386b7E', symObjAddr: 0x2688, symBinAddr: 0x4DBB0, symSize: 0x28 }
  - { offset: 0x1FA4AD, size: 0x8, addend: 0x0, symName: __ZN4pyo35impl_16extract_argument19FunctionDescription13handle_kwargs17h907fa1caad00f59aE, symObjAddr: 0xA08, symBinAddr: 0x4BF30, symSize: 0x6F8 }
  - { offset: 0x1FA6C2, size: 0x8, addend: 0x0, symName: __ZN4pyo35impl_16extract_argument19FunctionDescription13handle_kwargs17he65b4bbbe4fa5a31E, symObjAddr: 0x1100, symBinAddr: 0x4C628, symSize: 0x6FC }
  - { offset: 0x1FA8DB, size: 0x8, addend: 0x0, symName: __ZN4pyo35impl_16extract_argument19FunctionDescription26extract_arguments_fastcall17h4ac02ded5d9248e8E, symObjAddr: 0x17FC, symBinAddr: 0x4CD24, symSize: 0x5D8 }
  - { offset: 0x1FAC0D, size: 0x8, addend: 0x0, symName: __ZN4pyo35impl_16extract_argument19FunctionDescription28extract_arguments_tuple_dict17hffb98ecf79120352E, symObjAddr: 0x1DF8, symBinAddr: 0x4D320, symSize: 0x480 }
  - { offset: 0x1FCF83, size: 0x8, addend: 0x0, symName: '__ZN4core3num23_$LT$impl$u20$usize$GT$13unchecked_add18precondition_check17h9c90c119385963f1E', symObjAddr: 0x0, symBinAddr: 0x4DBD8, symSize: 0xB0 }
  - { offset: 0x1FD013, size: 0x8, addend: 0x0, symName: '__ZN4core3num23_$LT$impl$u20$usize$GT$13unchecked_add18precondition_check17h9c90c119385963f1E', symObjAddr: 0x0, symBinAddr: 0x4DBD8, symSize: 0xB0 }
  - { offset: 0x1FD0D1, size: 0x8, addend: 0x0, symName: '__ZN4core3num23_$LT$impl$u20$usize$GT$13unchecked_mul18precondition_check17h3971b9946905fd8dE', symObjAddr: 0xB0, symBinAddr: 0x4DC88, symSize: 0xAC }
  - { offset: 0x1FD25C, size: 0x8, addend: 0x0, symName: '__ZN4core3num23_$LT$impl$u20$usize$GT$16from_ascii_radix17h4f024ad3a0030b1cE', symObjAddr: 0x15C, symBinAddr: 0x4DD34, symSize: 0x574 }
  - { offset: 0x1FDAB4, size: 0x8, addend: 0x0, symName: __ZN4pyo33err5PyErr16write_unraisable17hb9b661979aeca264E, symObjAddr: 0x0, symBinAddr: 0x4E2A8, symSize: 0x34 }
  - { offset: 0x1FF870, size: 0x8, addend: 0x0, symName: __ZN4pyo33err5PyErr16write_unraisable17hb9b661979aeca264E, symObjAddr: 0x0, symBinAddr: 0x4E2A8, symSize: 0x34 }
  - { offset: 0x1FF8BE, size: 0x8, addend: 0x0, symName: __ZN4pyo33err5PyErr7restore17hb3aef0ab63594f64E, symObjAddr: 0x34, symBinAddr: 0x4E2DC, symSize: 0x38 }
  - { offset: 0x1FF91B, size: 0x8, addend: 0x0, symName: __ZN4pyo35types8sequence16extract_sequence17he2353e80f3bd43b8E, symObjAddr: 0x0, symBinAddr: 0x4E314, symSize: 0x3A8 }
  - { offset: 0x201082, size: 0x8, addend: 0x0, symName: __ZN4pyo35types8sequence16extract_sequence17he2353e80f3bd43b8E, symObjAddr: 0x0, symBinAddr: 0x4E314, symSize: 0x3A8 }
  - { offset: 0x201D52, size: 0x8, addend: 0x0, symName: __ZN12tracing_core8callsite15DefaultCallsite8interest17h7089b7c26c716fd1E, symObjAddr: 0x0, symBinAddr: 0x4E6BC, symSize: 0xA0 }
  - { offset: 0x202122, size: 0x8, addend: 0x0, symName: __ZN12tracing_core8callsite15DefaultCallsite8interest17h7089b7c26c716fd1E, symObjAddr: 0x0, symBinAddr: 0x4E6BC, symSize: 0xA0 }
  - { offset: 0x202163, size: 0x8, addend: 0x0, symName: '__ZN63_$LT$serde_json..value..Value$u20$as$u20$core..clone..Clone$GT$5clone17h324cac823c57979eE', symObjAddr: 0x0, symBinAddr: 0x4E75C, symSize: 0x198 }
  - { offset: 0x20217F, size: 0x8, addend: 0x0, symName: '__ZN63_$LT$serde_json..value..Value$u20$as$u20$core..clone..Clone$GT$5clone17h324cac823c57979eE', symObjAddr: 0x0, symBinAddr: 0x4E75C, symSize: 0x198 }
  - { offset: 0x202242, size: 0x8, addend: 0x0, symName: '__ZN65_$LT$serde_json..value..Value$u20$as$u20$core..cmp..PartialEq$GT$2eq17h2520afb035c4a9a0E', symObjAddr: 0x198, symBinAddr: 0x4E8F4, symSize: 0x210 }
  - { offset: 0x202C30, size: 0x8, addend: 0x0, symName: __ZN4core4sync6atomic11AtomicUsize3new17hed1a4f9043e01ffaE, symObjAddr: 0x0, symBinAddr: 0x4EB04, symSize: 0x18 }
  - { offset: 0x202D3F, size: 0x8, addend: 0x0, symName: __ZN4core4sync6atomic11AtomicUsize3new17hed1a4f9043e01ffaE, symObjAddr: 0x0, symBinAddr: 0x4EB04, symSize: 0x18 }
  - { offset: 0x202D6F, size: 0x8, addend: 0x0, symName: __ZN4core4sync6atomic11AtomicUsize4load17h7eb26af209f7c555E, symObjAddr: 0x18, symBinAddr: 0x4EB1C, symSize: 0x30 }
  - { offset: 0x202DAE, size: 0x8, addend: 0x0, symName: __ZN4core4sync6atomic8AtomicU84load17hb8bcffff1bf3de07E, symObjAddr: 0x48, symBinAddr: 0x4EB4C, symSize: 0x30 }
  - { offset: 0x202DFE, size: 0x8, addend: 0x0, symName: __ZN10serde_json3ser6to_vec17hc05e7cf0ccf68c00E, symObjAddr: 0x0, symBinAddr: 0x4EB7C, symSize: 0xE4 }
  - { offset: 0x20307A, size: 0x8, addend: 0x0, symName: __ZN10serde_json3ser6to_vec17hc05e7cf0ccf68c00E, symObjAddr: 0x0, symBinAddr: 0x4EB7C, symSize: 0xE4 }
  - { offset: 0x2030E5, size: 0x8, addend: 0x0, symName: __ZN10serde_json3ser9to_string17h5ddce21f29913038E, symObjAddr: 0xE4, symBinAddr: 0x4EC60, symSize: 0x108 }
  - { offset: 0x20318E, size: 0x8, addend: 0x0, symName: __ZN10serde_json3ser9to_writer17h30a9cc233109046bE, symObjAddr: 0x1EC, symBinAddr: 0x4ED68, symSize: 0x64 }
  - { offset: 0x203FCA, size: 0x8, addend: 0x0, symName: __ZN15effect_log_core8executor16EffectLogBuilder12execution_id17hba98e147bce04329E, symObjAddr: 0x0, symBinAddr: 0x4EDCC, symSize: 0xC8 }
  - { offset: 0x20576D, size: 0x8, addend: 0x0, symName: '__ZN59_$LT$F$u20$as$u20$core..future..into_future..IntoFuture$GT$11into_future17h4b60ec93be33e593E', symObjAddr: 0x4D54, symBinAddr: 0x53B20, symSize: 0x30 }
  - { offset: 0x2057A3, size: 0x8, addend: 0x0, symName: '__ZN59_$LT$F$u20$as$u20$core..future..into_future..IntoFuture$GT$11into_future17h4cc38f19b3ea5044E', symObjAddr: 0x4D84, symBinAddr: 0x53B50, symSize: 0x30 }
  - { offset: 0x2057D9, size: 0x8, addend: 0x0, symName: '__ZN59_$LT$F$u20$as$u20$core..future..into_future..IntoFuture$GT$11into_future17h5a7a2732be13589fE', symObjAddr: 0x4DB4, symBinAddr: 0x53B80, symSize: 0x30 }
  - { offset: 0x20580F, size: 0x8, addend: 0x0, symName: '__ZN59_$LT$F$u20$as$u20$core..future..into_future..IntoFuture$GT$11into_future17h5d116558316b4313E', symObjAddr: 0x4DE4, symBinAddr: 0x53BB0, symSize: 0x30 }
  - { offset: 0x205845, size: 0x8, addend: 0x0, symName: '__ZN59_$LT$F$u20$as$u20$core..future..into_future..IntoFuture$GT$11into_future17hd26ed5af0572740aE', symObjAddr: 0x4E14, symBinAddr: 0x53BE0, symSize: 0x30 }
  - { offset: 0x20587B, size: 0x8, addend: 0x0, symName: '__ZN59_$LT$F$u20$as$u20$core..future..into_future..IntoFuture$GT$11into_future17hdccf5614a2063fa3E', symObjAddr: 0x4E44, symBinAddr: 0x53C10, symSize: 0x30 }
  - { offset: 0x205938, size: 0x8, addend: 0x0, symName: '__ZN60_$LT$$RF$mut$u20$T$u20$as$u20$core..ops..deref..DerefMut$GT$9deref_mut17hd101f8c109c4afc8E', symObjAddr: 0x4E74, symBinAddr: 0x53C40, symSize: 0x18 }
  - { offset: 0x20666E, size: 0x8, addend: 0x0, symName: '__ZN15effect_log_core8executor16EffectLogBuilder7recover28_$u7b$$u7b$closure$u7d$$u7d$17ha0c3b8c1049174deE', symObjAddr: 0xC8, symBinAddr: 0x4EE94, symSize: 0xA84 }
  - { offset: 0x20697A, size: 0x8, addend: 0x0, symName: '__ZN15effect_log_core8executor16EffectLogBuilder7recover28_$u7b$$u7b$closure$u7d$$u7d$28_$u7b$$u7b$closure$u7d$$u7d$17h306eddf7dc037e40E', symObjAddr: 0xB4C, symBinAddr: 0x4F918, symSize: 0x38 }
  - { offset: 0x2069EC, size: 0x8, addend: 0x0, symName: '__ZN15effect_log_core8executor16EffectLogBuilder7recover28_$u7b$$u7b$closure$u7d$$u7d$28_$u7b$$u7b$closure$u7d$$u7d$17hbf673b4a04feede1E', symObjAddr: 0xB84, symBinAddr: 0x4F950, symSize: 0x5C }
  - { offset: 0x206A14, size: 0x8, addend: 0x0, symName: '__ZN15effect_log_core8executor16EffectLogBuilder7recover28_$u7b$$u7b$closure$u7d$$u7d$28_$u7b$$u7b$closure$u7d$$u7d$17hc602b6d01703023fE', symObjAddr: 0xBE0, symBinAddr: 0x4F9AC, symSize: 0x5C }
  - { offset: 0x206B48, size: 0x8, addend: 0x0, symName: '__ZN15effect_log_core8executor21apply_recovery_action28_$u7b$$u7b$closure$u7d$$u7d$17hd85078f772ce3793E', symObjAddr: 0xC3C, symBinAddr: 0x4FA08, symSize: 0x1994 }
  - { offset: 0x207348, size: 0x8, addend: 0x0, symName: '__ZN15effect_log_core8executor21apply_recovery_action28_$u7b$$u7b$closure$u7d$$u7d$28_$u7b$$u7b$closure$u7d$$u7d$17h0c1f628884946e53E', symObjAddr: 0x25D0, symBinAddr: 0x5139C, symSize: 0x40 }
  - { offset: 0x207387, size: 0x8, addend: 0x0, symName: '__ZN15effect_log_core8executor21apply_recovery_action28_$u7b$$u7b$closure$u7d$$u7d$28_$u7b$$u7b$closure$u7d$$u7d$17h759fa099c57918e2E', symObjAddr: 0x2610, symBinAddr: 0x513DC, symSize: 0x38 }
  - { offset: 0x2073F9, size: 0x8, addend: 0x0, symName: '__ZN15effect_log_core8executor21apply_recovery_action28_$u7b$$u7b$closure$u7d$$u7d$28_$u7b$$u7b$closure$u7d$$u7d$17hae4a69143afbb094E', symObjAddr: 0x2648, symBinAddr: 0x51414, symSize: 0x38 }
  - { offset: 0x20746B, size: 0x8, addend: 0x0, symName: '__ZN15effect_log_core8executor21apply_recovery_action28_$u7b$$u7b$closure$u7d$$u7d$28_$u7b$$u7b$closure$u7d$$u7d$17hf4be00dd063f11e5E', symObjAddr: 0x2680, symBinAddr: 0x5144C, symSize: 0x38 }
  - { offset: 0x207913, size: 0x8, addend: 0x0, symName: '__ZN15effect_log_core8executor25execute_tool_with_logging28_$u7b$$u7b$closure$u7d$$u7d$17h9106502ce8fc1480E', symObjAddr: 0x26B8, symBinAddr: 0x51484, symSize: 0xB9C }
  - { offset: 0x207C27, size: 0x8, addend: 0x0, symName: '__ZN15effect_log_core8executor25execute_tool_with_logging28_$u7b$$u7b$closure$u7d$$u7d$28_$u7b$$u7b$closure$u7d$$u7d$17h031391b23575e882E', symObjAddr: 0x3254, symBinAddr: 0x52020, symSize: 0x48 }
  - { offset: 0x207FA5, size: 0x8, addend: 0x0, symName: '__ZN15effect_log_core8executor9EffectLog14apply_recovery28_$u7b$$u7b$closure$u7d$$u7d$17he2b2b45450d63fadE', symObjAddr: 0x329C, symBinAddr: 0x52068, symSize: 0x328 }
  - { offset: 0x208283, size: 0x8, addend: 0x0, symName: '__ZN15effect_log_core8executor9EffectLog20execute_with_logging28_$u7b$$u7b$closure$u7d$$u7d$17hc39bb79a7e813be5E', symObjAddr: 0x35C4, symBinAddr: 0x52390, symSize: 0x2F4 }
  - { offset: 0x2084E2, size: 0x8, addend: 0x0, symName: '__ZN15effect_log_core8executor9EffectLog7execute28_$u7b$$u7b$closure$u7d$$u7d$17h34df16030010efd6E', symObjAddr: 0x38B8, symBinAddr: 0x52684, symSize: 0x1014 }
  - { offset: 0x208960, size: 0x8, addend: 0x0, symName: '__ZN15effect_log_core8executor9EffectLog7execute28_$u7b$$u7b$closure$u7d$$u7d$28_$u7b$$u7b$closure$u7d$$u7d$17h1ab5662b333d2481E', symObjAddr: 0x48CC, symBinAddr: 0x53698, symSize: 0x38 }
  - { offset: 0x2089D2, size: 0x8, addend: 0x0, symName: '__ZN15effect_log_core8executor9EffectLog7execute28_$u7b$$u7b$closure$u7d$$u7d$28_$u7b$$u7b$closure$u7d$$u7d$17h761473902a54dbf3E', symObjAddr: 0x4904, symBinAddr: 0x536D0, symSize: 0x50 }
  - { offset: 0x208D94, size: 0x8, addend: 0x0, symName: '__ZN15effect_log_core8executor9EffectLog7history28_$u7b$$u7b$closure$u7d$$u7d$17h47496ef5472250b4E', symObjAddr: 0x4954, symBinAddr: 0x53720, symSize: 0x378 }
  - { offset: 0x208E7E, size: 0x8, addend: 0x0, symName: '__ZN15effect_log_core8executor9EffectLog7history28_$u7b$$u7b$closure$u7d$$u7d$28_$u7b$$u7b$closure$u7d$$u7d$17he1410c43fd290d1fE', symObjAddr: 0x4CCC, symBinAddr: 0x53A98, symSize: 0x88 }
  - { offset: 0x209DF3, size: 0x8, addend: 0x0, symName: __ZN15effect_log_core8executor16EffectLogBuilder12execution_id17hba98e147bce04329E, symObjAddr: 0x0, symBinAddr: 0x4EDCC, symSize: 0xC8 }
  - { offset: 0x20AE5A, size: 0x8, addend: 0x0, symName: __ZN4pyo33gil8GILGuard6python17h34cf25be5f58e116E, symObjAddr: 0x0, symBinAddr: 0x53C58, symSize: 0x20 }
  - { offset: 0x20AF0A, size: 0x8, addend: 0x0, symName: __ZN4pyo33gil8GILGuard6python17h34cf25be5f58e116E, symObjAddr: 0x0, symBinAddr: 0x53C58, symSize: 0x20 }
  - { offset: 0x20AF4A, size: 0x8, addend: 0x0, symName: '__ZN4pyo34sync20GILOnceCell$LT$T$GT$15get_or_try_init17h327a45e81d28fc29E', symObjAddr: 0x0, symBinAddr: 0x53C78, symSize: 0xB4 }
  - { offset: 0x20C8D9, size: 0x8, addend: 0x0, symName: '__ZN4pyo34sync20GILOnceCell$LT$T$GT$3set28_$u7b$$u7b$closure$u7d$$u7d$17h6b8f2a42149298c3E', symObjAddr: 0x388, symBinAddr: 0x54000, symSize: 0xFC }
  - { offset: 0x20D3F0, size: 0x8, addend: 0x0, symName: '__ZN4pyo34sync20GILOnceCell$LT$T$GT$15get_or_try_init17h327a45e81d28fc29E', symObjAddr: 0x0, symBinAddr: 0x53C78, symSize: 0xB4 }
  - { offset: 0x20D469, size: 0x8, addend: 0x0, symName: '__ZN4pyo34sync20GILOnceCell$LT$T$GT$15get_or_try_init17h5b5faf84baddafe3E', symObjAddr: 0xB4, symBinAddr: 0x53D2C, symSize: 0xB4 }
  - { offset: 0x20D4E2, size: 0x8, addend: 0x0, symName: '__ZN4pyo34sync20GILOnceCell$LT$T$GT$15get_or_try_init17hf8249087066213d4E', symObjAddr: 0x168, symBinAddr: 0x53DE0, symSize: 0xB4 }
  - { offset: 0x20D55B, size: 0x8, addend: 0x0, symName: '__ZN4pyo34sync20GILOnceCell$LT$T$GT$3get17h61a8cba46f8bdceaE', symObjAddr: 0x21C, symBinAddr: 0x53E94, symSize: 0xA8 }
  - { offset: 0x20D59F, size: 0x8, addend: 0x0, symName: '__ZN4pyo34sync20GILOnceCell$LT$T$GT$3set17h6cfaf1cb3e8620fdE', symObjAddr: 0x2C4, symBinAddr: 0x53F3C, symSize: 0xC4 }
  - { offset: 0x20D714, size: 0x8, addend: 0x0, symName: '__ZN4pyo34sync20GILOnceCell$LT$T$GT$4init17h0861c2c9766ed574E', symObjAddr: 0x484, symBinAddr: 0x356B58, symSize: 0x188 }
  - { offset: 0x20D7E6, size: 0x8, addend: 0x0, symName: '__ZN4pyo34sync20GILOnceCell$LT$T$GT$4init17h88dcca25d7174ce3E', symObjAddr: 0x60C, symBinAddr: 0x356CE0, symSize: 0x188 }
  - { offset: 0x20D8B8, size: 0x8, addend: 0x0, symName: '__ZN4pyo34sync20GILOnceCell$LT$T$GT$4init17hb737da15b7957051E', symObjAddr: 0x794, symBinAddr: 0x356E68, symSize: 0x188 }
  - { offset: 0x20D9BC, size: 0x8, addend: 0x0, symName: '__ZN58_$LT$std..path..Path$u20$as$u20$alloc..borrow..ToOwned$GT$8to_owned17h01f21d310fddd1e1E', symObjAddr: 0x0, symBinAddr: 0x540FC, symSize: 0x28 }
  - { offset: 0x20D9D8, size: 0x8, addend: 0x0, symName: '__ZN58_$LT$std..path..Path$u20$as$u20$alloc..borrow..ToOwned$GT$8to_owned17h01f21d310fddd1e1E', symObjAddr: 0x0, symBinAddr: 0x540FC, symSize: 0x28 }
  - { offset: 0x20DA79, size: 0x8, addend: 0x0, symName: '__ZN82_$LT$std..path..PathBuf$u20$as$u20$core..convert..AsRef$LT$std..path..Path$GT$$GT$6as_ref17hc18923028ee33005E', symObjAddr: 0x28, symBinAddr: 0x54124, symSize: 0x34 }
  - { offset: 0x20DDEE, size: 0x8, addend: 0x0, symName: __ZN4core3fmt2rt8Argument9new_debug17h43cbedd27358d805E, symObjAddr: 0x0, symBinAddr: 0x54158, symSize: 0x2C }
  - { offset: 0x20E1EE, size: 0x8, addend: 0x0, symName: __ZN4core3fmt2rt8Argument9new_debug17h43cbedd27358d805E, symObjAddr: 0x0, symBinAddr: 0x54158, symSize: 0x2C }
  - { offset: 0x20E311, size: 0x8, addend: 0x0, symName: __ZN4core3fmt2rt8Argument9new_debug17h53c8c1ee01e08db4E, symObjAddr: 0x2C, symBinAddr: 0x54184, symSize: 0x2C }
  - { offset: 0x20E35A, size: 0x8, addend: 0x0, symName: '__ZN80_$LT$effect_log_core..registry..RegisteredTool$u20$as$u20$core..clone..Clone$GT$5clone17h99b7bc97f7fda073E', symObjAddr: 0x0, symBinAddr: 0x541B0, symSize: 0x1C8 }
  - { offset: 0x20E3BE, size: 0x8, addend: 0x0, symName: '__ZN80_$LT$effect_log_core..registry..RegisteredTool$u20$as$u20$core..clone..Clone$GT$5clone17h99b7bc97f7fda073E', symObjAddr: 0x0, symBinAddr: 0x541B0, symSize: 0x1C8 }
  - { offset: 0x20EA1C, size: 0x8, addend: 0x0, symName: __ZN4core4hint16assert_unchecked18precondition_check17h65579aceeb3ecfc9E, symObjAddr: 0x0, symBinAddr: 0x54378, symSize: 0xA4 }
  - { offset: 0x20ED3E, size: 0x8, addend: 0x0, symName: __ZN4core4hint16assert_unchecked18precondition_check17h65579aceeb3ecfc9E, symObjAddr: 0x0, symBinAddr: 0x54378, symSize: 0xA4 }
  - { offset: 0x20ED9E, size: 0x8, addend: 0x0, symName: __ZN4core4hint21unreachable_unchecked18precondition_check17hba209475088c5693E, symObjAddr: 0xA4, symBinAddr: 0x5441C, symSize: 0x84 }
  - { offset: 0x20EFB1, size: 0x8, addend: 0x0, symName: '__ZN4core4iter6traits8iterator8Iterator3all5check28_$u7b$$u7b$closure$u7d$$u7d$17h23bdea20dd9eb019E', symObjAddr: 0x0, symBinAddr: 0x544A0, symSize: 0x60 }
  - { offset: 0x20EFE1, size: 0x8, addend: 0x0, symName: '__ZN4core4iter6traits8iterator8Iterator3all5check28_$u7b$$u7b$closure$u7d$$u7d$17h23bdea20dd9eb019E', symObjAddr: 0x0, symBinAddr: 0x544A0, symSize: 0x60 }
  - { offset: 0x20F992, size: 0x8, addend: 0x0, symName: __ZN14tokio_rusqlite5Error8Rusqlite17h17196dd1630d9c6bE, symObjAddr: 0x0, symBinAddr: 0x54500, symSize: 0x3C }
  - { offset: 0x210627, size: 0x8, addend: 0x0, symName: __ZN14tokio_rusqlite5Error8Rusqlite17h17196dd1630d9c6bE, symObjAddr: 0x0, symBinAddr: 0x54500, symSize: 0x3C }
  - { offset: 0x2114BE, size: 0x8, addend: 0x0, symName: '__ZN4core3cmp5impls69_$LT$impl$u20$core..cmp..PartialEq$LT$$RF$B$GT$$u20$for$u20$$RF$A$GT$2eq17h9cdcedc80bdff869E', symObjAddr: 0x0, symBinAddr: 0x5453C, symSize: 0x34 }
  - { offset: 0x2114DF, size: 0x8, addend: 0x0, symName: '__ZN4core3cmp5impls69_$LT$impl$u20$core..cmp..PartialEq$LT$$RF$B$GT$$u20$for$u20$$RF$A$GT$2eq17h9cdcedc80bdff869E', symObjAddr: 0x0, symBinAddr: 0x5453C, symSize: 0x34 }
  - { offset: 0x211571, size: 0x8, addend: 0x0, symName: '__ZN63_$LT$I$u20$as$u20$core..iter..traits..collect..IntoIterator$GT$9into_iter17h329902f6f7d2b7a4E', symObjAddr: 0x0, symBinAddr: 0x54570, symSize: 0x18 }
  - { offset: 0x211D43, size: 0x8, addend: 0x0, symName: '__ZN63_$LT$I$u20$as$u20$core..iter..traits..collect..IntoIterator$GT$9into_iter17h329902f6f7d2b7a4E', symObjAddr: 0x0, symBinAddr: 0x54570, symSize: 0x18 }
  - { offset: 0x212CFE, size: 0x8, addend: 0x0, symName: __ZN4core5slice3raw14from_raw_parts17h97545b776e363d68E, symObjAddr: 0x0, symBinAddr: 0x54588, symSize: 0x58 }
  - { offset: 0x2134C6, size: 0x8, addend: 0x0, symName: __ZN4core5slice3raw14from_raw_parts17h97545b776e363d68E, symObjAddr: 0x0, symBinAddr: 0x54588, symSize: 0x58 }
  - { offset: 0x213509, size: 0x8, addend: 0x0, symName: __ZN4core5slice3raw14from_raw_parts17hed6e69695698ceb7E, symObjAddr: 0x58, symBinAddr: 0x545E0, symSize: 0x58 }
  - { offset: 0x214549, size: 0x8, addend: 0x0, symName: '__ZN4core5slice29_$LT$impl$u20$$u5b$T$u5d$$GT$7reverse7revswap17ha842f038ec3beefcE', symObjAddr: 0x0, symBinAddr: 0x54638, symSize: 0x2A8 }
  - { offset: 0x214CA7, size: 0x8, addend: 0x0, symName: '__ZN4core5slice29_$LT$impl$u20$$u5b$T$u5d$$GT$7reverse7revswap17ha842f038ec3beefcE', symObjAddr: 0x0, symBinAddr: 0x54638, symSize: 0x2A8 }
  - { offset: 0x2157BF, size: 0x8, addend: 0x0, symName: '__ZN17effect_log_native17effect_log_native11__pyo3_init28_$u7b$$u7b$closure$u7d$$u7d$17h243ea7b6cac4f7a9E', symObjAddr: 0x0, symBinAddr: 0x548E0, symSize: 0x30 }
  - { offset: 0x216C18, size: 0x8, addend: 0x0, symName: '__ZN17effect_log_native17effect_log_native11__pyo3_init28_$u7b$$u7b$closure$u7d$$u7d$17h243ea7b6cac4f7a9E', symObjAddr: 0x0, symBinAddr: 0x548E0, symSize: 0x30 }
  - { offset: 0x2175B0, size: 0x8, addend: 0x0, symName: '__ZN4core5slice29_$LT$impl$u20$$u5b$T$u5d$$GT$18split_at_unchecked18precondition_check17h3744c9ec63fab08bE', symObjAddr: 0x0, symBinAddr: 0x54910, symSize: 0xAC }
  - { offset: 0x2178D7, size: 0x8, addend: 0x0, symName: '__ZN4core5slice29_$LT$impl$u20$$u5b$T$u5d$$GT$18split_at_unchecked18precondition_check17h3744c9ec63fab08bE', symObjAddr: 0x0, symBinAddr: 0x54910, symSize: 0xAC }
  - { offset: 0x217945, size: 0x8, addend: 0x0, symName: '__ZN4core5slice29_$LT$impl$u20$$u5b$T$u5d$$GT$22split_at_mut_unchecked18precondition_check17h1768c99aaeef5f38E', symObjAddr: 0xAC, symBinAddr: 0x549BC, symSize: 0xAC }
  - { offset: 0x217B66, size: 0x8, addend: 0x0, symName: __ZN4core9ub_checks23maybe_is_nonoverlapping7runtime17h6c3fa7f9b495db9dE, symObjAddr: 0x0, symBinAddr: 0x54A68, symSize: 0xD8 }
  - { offset: 0x217CEB, size: 0x8, addend: 0x0, symName: __ZN4core9ub_checks23maybe_is_nonoverlapping7runtime17h6c3fa7f9b495db9dE, symObjAddr: 0x0, symBinAddr: 0x54A68, symSize: 0xD8 }
  - { offset: 0x217EFA, size: 0x8, addend: 0x0, symName: '__ZN109_$LT$pyo3..types..dict..borrowed_iter..BorrowedDictIter$u20$as$u20$core..iter..traits..iterator..Iterator$GT$4next17h710f339c1d250df6E', symObjAddr: 0x0, symBinAddr: 0x54B40, symSize: 0xE4 }
  - { offset: 0x2190BE, size: 0x8, addend: 0x0, symName: '__ZN109_$LT$pyo3..types..dict..borrowed_iter..BorrowedDictIter$u20$as$u20$core..iter..traits..iterator..Iterator$GT$4next17h710f339c1d250df6E', symObjAddr: 0x0, symBinAddr: 0x54B40, symSize: 0xE4 }
  - { offset: 0x2197CB, size: 0x8, addend: 0x0, symName: __ZN5tokio7runtime7context7runtime13enter_runtime17h159fb00343688995E, symObjAddr: 0x0, symBinAddr: 0x54C24, symSize: 0x1C8 }
  - { offset: 0x2199E4, size: 0x8, addend: 0x0, symName: __ZN5tokio7runtime7context7runtime13enter_runtime17h159fb00343688995E, symObjAddr: 0x0, symBinAddr: 0x54C24, symSize: 0x1C8 }
  - { offset: 0x219A73, size: 0x8, addend: 0x0, symName: __ZN5tokio7runtime7context7runtime13enter_runtime17h22846a77f1b07a4bE, symObjAddr: 0x1C8, symBinAddr: 0x54DEC, symSize: 0x1A8 }
  - { offset: 0x219B01, size: 0x8, addend: 0x0, symName: __ZN5tokio7runtime7context7runtime13enter_runtime17h355918b6e8f8e3dcE, symObjAddr: 0x370, symBinAddr: 0x54F94, symSize: 0x19C }
  - { offset: 0x219B8E, size: 0x8, addend: 0x0, symName: __ZN5tokio7runtime7context7runtime13enter_runtime17h40204fc261f777c4E, symObjAddr: 0x50C, symBinAddr: 0x55130, symSize: 0x1A8 }
  - { offset: 0x219C1C, size: 0x8, addend: 0x0, symName: __ZN5tokio7runtime7context7runtime13enter_runtime17h41f227032aa0f8d9E, symObjAddr: 0x6B4, symBinAddr: 0x552D8, symSize: 0x19C }
  - { offset: 0x219CA9, size: 0x8, addend: 0x0, symName: __ZN5tokio7runtime7context7runtime13enter_runtime17h51eed8189be0abb8E, symObjAddr: 0x850, symBinAddr: 0x55474, symSize: 0x1A8 }
  - { offset: 0x219D37, size: 0x8, addend: 0x0, symName: __ZN5tokio7runtime7context7runtime13enter_runtime17hbc217021a8cc18a2E, symObjAddr: 0x9F8, symBinAddr: 0x5561C, symSize: 0x1A8 }
  - { offset: 0x219DC5, size: 0x8, addend: 0x0, symName: __ZN5tokio7runtime7context7runtime13enter_runtime17hbe0367544a068c24E, symObjAddr: 0xBA0, symBinAddr: 0x557C4, symSize: 0x1A8 }
  - { offset: 0x219E53, size: 0x8, addend: 0x0, symName: __ZN5tokio7runtime7context7runtime13enter_runtime17hbe73a4288a80a7e7E, symObjAddr: 0xD48, symBinAddr: 0x5596C, symSize: 0x19C }
  - { offset: 0x219EE0, size: 0x8, addend: 0x0, symName: __ZN5tokio7runtime7context7runtime13enter_runtime17hd1debbbc330e0f74E, symObjAddr: 0xEE4, symBinAddr: 0x55B08, symSize: 0x1A8 }
  - { offset: 0x219F6E, size: 0x8, addend: 0x0, symName: __ZN5tokio7runtime7context7runtime13enter_runtime17he0dc86a93f944ce8E, symObjAddr: 0x108C, symBinAddr: 0x55CB0, symSize: 0x1C4 }
  - { offset: 0x219FFD, size: 0x8, addend: 0x0, symName: __ZN5tokio7runtime7context7runtime13enter_runtime17he86f4387e3b8b80dE, symObjAddr: 0x1250, symBinAddr: 0x55E74, symSize: 0x19C }
  - { offset: 0x21A08A, size: 0x8, addend: 0x0, symName: __ZN5tokio7runtime7context7runtime13enter_runtime17he9ac7c05100453c4E, symObjAddr: 0x13EC, symBinAddr: 0x56010, symSize: 0x1C4 }
  - { offset: 0x21A119, size: 0x8, addend: 0x0, symName: __ZN5tokio7runtime7context7runtime13enter_runtime17hea2f04c574198e8fE, symObjAddr: 0x15B0, symBinAddr: 0x561D4, symSize: 0x1C4 }
  - { offset: 0x21A1A8, size: 0x8, addend: 0x0, symName: __ZN5tokio7runtime7context7runtime13enter_runtime17hea42e95c44425e0bE, symObjAddr: 0x1774, symBinAddr: 0x56398, symSize: 0x1A8 }
  - { offset: 0x21A236, size: 0x8, addend: 0x0, symName: __ZN5tokio7runtime7context7runtime13enter_runtime17hf34f72b7a37ef588E, symObjAddr: 0x191C, symBinAddr: 0x56540, symSize: 0x1A8 }
  - { offset: 0x21A2C9, size: 0x8, addend: 0x0, symName: '__ZN5tokio7runtime7context7runtime13enter_runtime28_$u7b$$u7b$closure$u7d$$u7d$17h092759cba74a3015E', symObjAddr: 0x1AC4, symBinAddr: 0x566E8, symSize: 0x15C }
  - { offset: 0x21A381, size: 0x8, addend: 0x0, symName: '__ZN5tokio7runtime7context7runtime13enter_runtime28_$u7b$$u7b$closure$u7d$$u7d$17h12c98af8f9a8f799E', symObjAddr: 0x1C20, symBinAddr: 0x56844, symSize: 0x15C }
  - { offset: 0x21A439, size: 0x8, addend: 0x0, symName: '__ZN5tokio7runtime7context7runtime13enter_runtime28_$u7b$$u7b$closure$u7d$$u7d$17h1449ad33da2b0b4bE', symObjAddr: 0x1D7C, symBinAddr: 0x569A0, symSize: 0x15C }
  - { offset: 0x21A4F1, size: 0x8, addend: 0x0, symName: '__ZN5tokio7runtime7context7runtime13enter_runtime28_$u7b$$u7b$closure$u7d$$u7d$17h30b128fa8baf5d06E', symObjAddr: 0x1ED8, symBinAddr: 0x56AFC, symSize: 0x15C }
  - { offset: 0x21A5A9, size: 0x8, addend: 0x0, symName: '__ZN5tokio7runtime7context7runtime13enter_runtime28_$u7b$$u7b$closure$u7d$$u7d$17h39348cbb7a55d0a3E', symObjAddr: 0x2034, symBinAddr: 0x56C58, symSize: 0x15C }
  - { offset: 0x21A661, size: 0x8, addend: 0x0, symName: '__ZN5tokio7runtime7context7runtime13enter_runtime28_$u7b$$u7b$closure$u7d$$u7d$17h6c1e1acd2e37f838E', symObjAddr: 0x2190, symBinAddr: 0x56DB4, symSize: 0x15C }
  - { offset: 0x21A719, size: 0x8, addend: 0x0, symName: '__ZN5tokio7runtime7context7runtime13enter_runtime28_$u7b$$u7b$closure$u7d$$u7d$17h76994a168fcdf06dE', symObjAddr: 0x22EC, symBinAddr: 0x56F10, symSize: 0x15C }
  - { offset: 0x21A7D1, size: 0x8, addend: 0x0, symName: '__ZN5tokio7runtime7context7runtime13enter_runtime28_$u7b$$u7b$closure$u7d$$u7d$17h92d13146a2920207E', symObjAddr: 0x2448, symBinAddr: 0x5706C, symSize: 0x15C }
  - { offset: 0x21A889, size: 0x8, addend: 0x0, symName: '__ZN5tokio7runtime7context7runtime13enter_runtime28_$u7b$$u7b$closure$u7d$$u7d$17h9b1c55309b71c259E', symObjAddr: 0x25A4, symBinAddr: 0x571C8, symSize: 0x15C }
  - { offset: 0x21A941, size: 0x8, addend: 0x0, symName: '__ZN5tokio7runtime7context7runtime13enter_runtime28_$u7b$$u7b$closure$u7d$$u7d$17habd0ea56ca0eb761E', symObjAddr: 0x2700, symBinAddr: 0x57324, symSize: 0x15C }
  - { offset: 0x21A9F9, size: 0x8, addend: 0x0, symName: '__ZN5tokio7runtime7context7runtime13enter_runtime28_$u7b$$u7b$closure$u7d$$u7d$17hacd17b17b5fbe218E', symObjAddr: 0x285C, symBinAddr: 0x57480, symSize: 0x15C }
  - { offset: 0x21AAB1, size: 0x8, addend: 0x0, symName: '__ZN5tokio7runtime7context7runtime13enter_runtime28_$u7b$$u7b$closure$u7d$$u7d$17hb4642eabd2373369E', symObjAddr: 0x29B8, symBinAddr: 0x575DC, symSize: 0x15C }
  - { offset: 0x21AB69, size: 0x8, addend: 0x0, symName: '__ZN5tokio7runtime7context7runtime13enter_runtime28_$u7b$$u7b$closure$u7d$$u7d$17hc3361f1e787eb6cfE', symObjAddr: 0x2B14, symBinAddr: 0x57738, symSize: 0x15C }
  - { offset: 0x21AC21, size: 0x8, addend: 0x0, symName: '__ZN5tokio7runtime7context7runtime13enter_runtime28_$u7b$$u7b$closure$u7d$$u7d$17hcb08871a6954cdf3E', symObjAddr: 0x2C70, symBinAddr: 0x57894, symSize: 0x15C }
  - { offset: 0x21ACD9, size: 0x8, addend: 0x0, symName: '__ZN5tokio7runtime7context7runtime13enter_runtime28_$u7b$$u7b$closure$u7d$$u7d$17he3eeda0edb1b7443E', symObjAddr: 0x2DCC, symBinAddr: 0x579F0, symSize: 0x15C }
  - { offset: 0x21AD91, size: 0x8, addend: 0x0, symName: '__ZN5tokio7runtime7context7runtime13enter_runtime28_$u7b$$u7b$closure$u7d$$u7d$17he9294e7747263620E', symObjAddr: 0x2F28, symBinAddr: 0x57B4C, symSize: 0x15C }
  - { offset: 0x2265A5, size: 0x8, addend: 0x0, symName: __ZN3std3sys9backtrace28__rust_begin_short_backtrace17h0caa78e414c68e6bE, symObjAddr: 0x0, symBinAddr: 0x57CA8, symSize: 0x1C }
  - { offset: 0x227431, size: 0x8, addend: 0x0, symName: __ZN3std3sys9backtrace28__rust_begin_short_backtrace17h0caa78e414c68e6bE, symObjAddr: 0x0, symBinAddr: 0x57CA8, symSize: 0x1C }
  - { offset: 0x2274A6, size: 0x8, addend: 0x0, symName: __ZN3std3sys9backtrace28__rust_begin_short_backtrace17hafc0c80dc6f4494fE, symObjAddr: 0x1C, symBinAddr: 0x57CC4, symSize: 0x1C }
  - { offset: 0x228777, size: 0x8, addend: 0x0, symName: __ZN5tokio7runtime7context8blocking19BlockingRegionGuard8block_on17h0824eafe27c940dbE, symObjAddr: 0x0, symBinAddr: 0x57CE0, symSize: 0x84 }
  - { offset: 0x22F496, size: 0x8, addend: 0x0, symName: __ZN5tokio7runtime7context8blocking19BlockingRegionGuard8block_on17h0824eafe27c940dbE, symObjAddr: 0x0, symBinAddr: 0x57CE0, symSize: 0x84 }
  - { offset: 0x22FDE3, size: 0x8, addend: 0x0, symName: __ZN5tokio7runtime7context8blocking19BlockingRegionGuard8block_on17h0caedb13f3a3fcd8E, symObjAddr: 0x84, symBinAddr: 0x57D64, symSize: 0x88 }
  - { offset: 0x22FE9F, size: 0x8, addend: 0x0, symName: __ZN5tokio7runtime7context8blocking19BlockingRegionGuard8block_on17h3cef24a447ad9e18E, symObjAddr: 0x10C, symBinAddr: 0x57DEC, symSize: 0x88 }
  - { offset: 0x22FF21, size: 0x8, addend: 0x0, symName: __ZN5tokio7runtime7context8blocking19BlockingRegionGuard8block_on17h427a82d2625ae4d5E, symObjAddr: 0x194, symBinAddr: 0x57E74, symSize: 0x84 }
  - { offset: 0x22FF91, size: 0x8, addend: 0x0, symName: __ZN5tokio7runtime7context8blocking19BlockingRegionGuard8block_on17h4ce5a7a146b00fe8E, symObjAddr: 0x218, symBinAddr: 0x57EF8, symSize: 0x88 }
  - { offset: 0x230001, size: 0x8, addend: 0x0, symName: __ZN5tokio7runtime7context8blocking19BlockingRegionGuard8block_on17h60dd05bd76616914E, symObjAddr: 0x2A0, symBinAddr: 0x57F80, symSize: 0x88 }
  - { offset: 0x230071, size: 0x8, addend: 0x0, symName: __ZN5tokio7runtime7context8blocking19BlockingRegionGuard8block_on17h6c7bb007e43a7f01E, symObjAddr: 0x328, symBinAddr: 0x58008, symSize: 0x88 }
  - { offset: 0x2300C7, size: 0x8, addend: 0x0, symName: __ZN5tokio7runtime7context8blocking19BlockingRegionGuard8block_on17h753aee6a812c44a9E, symObjAddr: 0x3B0, symBinAddr: 0x58090, symSize: 0xC0 }
  - { offset: 0x230138, size: 0x8, addend: 0x0, symName: __ZN5tokio7runtime7context8blocking19BlockingRegionGuard8block_on17h777f45b6daebbc18E, symObjAddr: 0x470, symBinAddr: 0x58150, symSize: 0x88 }
  - { offset: 0x23018E, size: 0x8, addend: 0x0, symName: __ZN5tokio7runtime7context8blocking19BlockingRegionGuard8block_on17h77a5bacb448ea66fE, symObjAddr: 0x4F8, symBinAddr: 0x581D8, symSize: 0xBC }
  - { offset: 0x2301FF, size: 0x8, addend: 0x0, symName: __ZN5tokio7runtime7context8blocking19BlockingRegionGuard8block_on17h928e565b190380a7E, symObjAddr: 0x5B4, symBinAddr: 0x58294, symSize: 0x88 }
  - { offset: 0x230255, size: 0x8, addend: 0x0, symName: __ZN5tokio7runtime7context8blocking19BlockingRegionGuard8block_on17h9defb02e235ae578E, symObjAddr: 0x63C, symBinAddr: 0x5831C, symSize: 0xBC }
  - { offset: 0x2302D3, size: 0x8, addend: 0x0, symName: __ZN5tokio7runtime7context8blocking19BlockingRegionGuard8block_on17ha0f648e64bbddf11E, symObjAddr: 0x6F8, symBinAddr: 0x583D8, symSize: 0x88 }
  - { offset: 0x230329, size: 0x8, addend: 0x0, symName: __ZN5tokio7runtime7context8blocking19BlockingRegionGuard8block_on17hc33824dab2d2c28aE, symObjAddr: 0x780, symBinAddr: 0x58460, symSize: 0xB4 }
  - { offset: 0x230380, size: 0x8, addend: 0x0, symName: __ZN5tokio7runtime7context8blocking19BlockingRegionGuard8block_on17he00a33da83ab326fE, symObjAddr: 0x834, symBinAddr: 0x58514, symSize: 0x84 }
  - { offset: 0x2303D6, size: 0x8, addend: 0x0, symName: __ZN5tokio7runtime7context8blocking19BlockingRegionGuard8block_on17he1a295d324e9a03fE, symObjAddr: 0x8B8, symBinAddr: 0x58598, symSize: 0x84 }
  - { offset: 0x230457, size: 0x8, addend: 0x0, symName: '__ZN96_$LT$pyo3..pycell..impl_..BorrowChecker$u20$as$u20$pyo3..pycell..impl_..PyClassBorrowChecker$GT$3new17hf3f3a205f7fd1f78E', symObjAddr: 0x0, symBinAddr: 0x5861C, symSize: 0x40 }
  - { offset: 0x230478, size: 0x8, addend: 0x0, symName: '__ZN96_$LT$pyo3..pycell..impl_..BorrowChecker$u20$as$u20$pyo3..pycell..impl_..PyClassBorrowChecker$GT$3new17hf3f3a205f7fd1f78E', symObjAddr: 0x0, symBinAddr: 0x5861C, symSize: 0x40 }
  - { offset: 0x230533, size: 0x8, addend: 0x0, symName: '__ZN82_$LT$serde_json..value..ser..Serializer$u20$as$u20$serde_core..ser..Serializer$GT$13serialize_str17h85a2638d686c2533E', symObjAddr: 0x0, symBinAddr: 0x5865C, symSize: 0x60 }
  - { offset: 0x2307B9, size: 0x8, addend: 0x0, symName: '__ZN82_$LT$serde_json..value..ser..Serializer$u20$as$u20$serde_core..ser..Serializer$GT$13serialize_str17h85a2638d686c2533E', symObjAddr: 0x0, symBinAddr: 0x5865C, symSize: 0x60 }
  - { offset: 0x231470, size: 0x8, addend: 0x0, symName: __ZN8pyo3_ffi10boolobject7Py_True17h59a79859ae9437f1E, symObjAddr: 0x0, symBinAddr: 0x586BC, symSize: 0xC }
  - { offset: 0x2314ED, size: 0x8, addend: 0x0, symName: __ZN8pyo3_ffi10boolobject7Py_True17h59a79859ae9437f1E, symObjAddr: 0x0, symBinAddr: 0x586BC, symSize: 0xC }
  - { offset: 0x23150A, size: 0x8, addend: 0x0, symName: __ZN8pyo3_ffi10boolobject8Py_False17h749d11092ea0c212E, symObjAddr: 0xC, symBinAddr: 0x586C8, symSize: 0xC }
  - { offset: 0x232977, size: 0x8, addend: 0x0, symName: '__ZN128_$LT$pyo3..impl_..pyclass_init..PyNativeTypeInitializer$LT$T$GT$$u20$as$u20$pyo3..impl_..pyclass_init..PyObjectInit$LT$T$GT$$GT$15into_new_object17hbcdbfe5ff7cb7c93E', symObjAddr: 0x0, symBinAddr: 0x586D4, symSize: 0x3C }
  - { offset: 0x233DD5, size: 0x8, addend: 0x0, symName: '__ZN128_$LT$pyo3..impl_..pyclass_init..PyNativeTypeInitializer$LT$T$GT$$u20$as$u20$pyo3..impl_..pyclass_init..PyObjectInit$LT$T$GT$$GT$15into_new_object17hbcdbfe5ff7cb7c93E', symObjAddr: 0x0, symBinAddr: 0x586D4, symSize: 0x3C }
  - { offset: 0x233E59, size: 0x8, addend: 0x0, symName: '__ZN128_$LT$pyo3..impl_..pyclass_init..PyNativeTypeInitializer$LT$T$GT$$u20$as$u20$pyo3..impl_..pyclass_init..PyObjectInit$LT$T$GT$$GT$17can_be_subclassed17h0fc7e532e5b28bb5E', symObjAddr: 0x3C, symBinAddr: 0x58710, symSize: 0x18 }
  - { offset: 0x2347AF, size: 0x8, addend: 0x0, symName: __ZN4core3fmt2rt8Argument11new_display17h136e28c89d37df5cE, symObjAddr: 0x0, symBinAddr: 0x58740, symSize: 0x2C }
  - { offset: 0x234C1B, size: 0x8, addend: 0x0, symName: __ZN4core3fmt2rt8Argument11new_display17h136e28c89d37df5cE, symObjAddr: 0x0, symBinAddr: 0x58740, symSize: 0x2C }
  - { offset: 0x234DDE, size: 0x8, addend: 0x0, symName: __ZN4core3fmt2rt8Argument11new_display17h198b21f425333d55E, symObjAddr: 0x2C, symBinAddr: 0x5876C, symSize: 0x2C }
  - { offset: 0x234E23, size: 0x8, addend: 0x0, symName: __ZN4core3fmt2rt8Argument11new_display17h64832eea864f290bE, symObjAddr: 0x58, symBinAddr: 0x58798, symSize: 0x2C }
  - { offset: 0x235038, size: 0x8, addend: 0x0, symName: __ZN4core3fmt2rt8Argument11new_display17hc574a0bb226bd756E, symObjAddr: 0x84, symBinAddr: 0x587C4, symSize: 0x2C }
  - { offset: 0x23517A, size: 0x8, addend: 0x0, symName: __ZN4core3fmt2rt8Argument11new_display17hd32e0c8a21b15b32E, symObjAddr: 0xB0, symBinAddr: 0x587F0, symSize: 0x2C }
  - { offset: 0x2351BF, size: 0x8, addend: 0x0, symName: __ZN4core3fmt2rt8Argument11new_display17he8120432b402ae4eE, symObjAddr: 0xDC, symBinAddr: 0x5881C, symSize: 0x2C }
  - { offset: 0x235208, size: 0x8, addend: 0x0, symName: __ZN4core4char7methods15encode_utf8_raw17h41dee1483911f4bdE, symObjAddr: 0x0, symBinAddr: 0x58848, symSize: 0x110 }
  - { offset: 0x235276, size: 0x8, addend: 0x0, symName: __ZN4core4char7methods15encode_utf8_raw17h41dee1483911f4bdE, symObjAddr: 0x0, symBinAddr: 0x58848, symSize: 0x110 }
  - { offset: 0x235376, size: 0x8, addend: 0x0, symName: __ZN4core4char7methods25encode_utf8_raw_unchecked17hee382ea90b1424b6E, symObjAddr: 0x110, symBinAddr: 0x58958, symSize: 0x14C }
  - { offset: 0x2355DC, size: 0x8, addend: 0x0, symName: __ZN4core5slice4sort6stable9quicksort16stable_partition17h040dafe98683f359E, symObjAddr: 0x0, symBinAddr: 0x58AA4, symSize: 0x560 }
  - { offset: 0x2364B5, size: 0x8, addend: 0x0, symName: __ZN4core5slice4sort6stable9quicksort16stable_partition17h040dafe98683f359E, symObjAddr: 0x0, symBinAddr: 0x58AA4, symSize: 0x560 }
  - { offset: 0x236933, size: 0x8, addend: 0x0, symName: __ZN4core5slice4sort6stable9quicksort16stable_partition17h87cd5edf2f80685bE, symObjAddr: 0x560, symBinAddr: 0x59004, symSize: 0x560 }
  - { offset: 0x236DB1, size: 0x8, addend: 0x0, symName: __ZN4core5slice4sort6stable9quicksort9quicksort17h0551120739a65e4dE, symObjAddr: 0xC00, symBinAddr: 0x596A4, symSize: 0x3A8 }
  - { offset: 0x237049, size: 0x8, addend: 0x0, symName: '__ZN4core5slice4sort6stable9quicksort9quicksort28_$u7b$$u7b$closure$u7d$$u7d$17he4b8776723f1d3e9E', symObjAddr: 0xFA8, symBinAddr: 0x59A4C, symSize: 0x48 }
  - { offset: 0x237BC1, size: 0x8, addend: 0x0, symName: '__ZN4core5slice4sort6stable9quicksort23PartitionState$LT$T$GT$13partition_one17hcefebe35d7d6d7cbE', symObjAddr: 0xAC0, symBinAddr: 0x59564, symSize: 0x140 }
  - { offset: 0x237E99, size: 0x8, addend: 0x0, symName: __ZN6chrono6format10formatting13write_rfc333917h6f1ab8c37a692381E, symObjAddr: 0x0, symBinAddr: 0x59A94, symSize: 0x8EC }
  - { offset: 0x237EE5, size: 0x8, addend: 0x0, symName: __ZN6chrono6format10formatting13write_rfc333917h6f1ab8c37a692381E, symObjAddr: 0x0, symBinAddr: 0x59A94, symSize: 0x8EC }
  - { offset: 0x23870D, size: 0x8, addend: 0x0, symName: __ZN5alloc5slice11stable_sort17h01a9738571799beeE, symObjAddr: 0x0, symBinAddr: 0x5A380, symSize: 0xC8 }
  - { offset: 0x239085, size: 0x8, addend: 0x0, symName: '__ZN5alloc5slice29_$LT$impl$u20$$u5b$T$u5d$$GT$11sort_by_key28_$u7b$$u7b$closure$u7d$$u7d$17h908e34d3fcfea661E', symObjAddr: 0xC8, symBinAddr: 0x5A448, symSize: 0xAC }
  - { offset: 0x239112, size: 0x8, addend: 0x0, symName: __ZN5alloc5slice11stable_sort17h01a9738571799beeE, symObjAddr: 0x0, symBinAddr: 0x5A380, symSize: 0xC8 }
  - { offset: 0x23957B, size: 0x8, addend: 0x0, symName: '__ZN110_$LT$core..iter..adapters..enumerate..Enumerate$LT$I$GT$$u20$as$u20$core..iter..traits..iterator..Iterator$GT$4next17hcdd01d7043c93756E', symObjAddr: 0x0, symBinAddr: 0x5A4F4, symSize: 0xE0 }
  - { offset: 0x239AF1, size: 0x8, addend: 0x0, symName: '__ZN110_$LT$core..iter..adapters..enumerate..Enumerate$LT$I$GT$$u20$as$u20$core..iter..traits..iterator..Iterator$GT$4next17hcdd01d7043c93756E', symObjAddr: 0x0, symBinAddr: 0x5A4F4, symSize: 0xE0 }
  - { offset: 0x23A1D0, size: 0x8, addend: 0x0, symName: '__ZN5alloc5boxed16Box$LT$T$C$A$GT$8into_raw17h6c655f5081588783E', symObjAddr: 0x0, symBinAddr: 0x5A5D4, symSize: 0x14 }
  - { offset: 0x23A6A2, size: 0x8, addend: 0x0, symName: '__ZN5alloc5boxed16Box$LT$T$C$A$GT$8into_raw17h6c655f5081588783E', symObjAddr: 0x0, symBinAddr: 0x5A5D4, symSize: 0x14 }
  - { offset: 0x23B109, size: 0x8, addend: 0x0, symName: __ZN17crossbeam_channel7context7Context10try_select17h44ab732a5a91bcb3E, symObjAddr: 0x0, symBinAddr: 0x5A5E8, symSize: 0x90 }
  - { offset: 0x23B4E8, size: 0x8, addend: 0x0, symName: '__ZN74_$LT$crossbeam_channel..context..Context$u20$as$u20$core..clone..Clone$GT$5clone17h80941c64f3f2685aE', symObjAddr: 0x2A0, symBinAddr: 0x5A888, symSize: 0x24 }
  - { offset: 0x23B870, size: 0x8, addend: 0x0, symName: __ZN17crossbeam_channel7context7Context10try_select17h44ab732a5a91bcb3E, symObjAddr: 0x0, symBinAddr: 0x5A5E8, symSize: 0x90 }
  - { offset: 0x23B8AE, size: 0x8, addend: 0x0, symName: __ZN17crossbeam_channel7context7Context10wait_until17ha96c415c5b52bd21E, symObjAddr: 0x90, symBinAddr: 0x5A678, symSize: 0x16C }
  - { offset: 0x23B93C, size: 0x8, addend: 0x0, symName: __ZN17crossbeam_channel7context7Context5reset17h91aaea62e8ef7886E, symObjAddr: 0x1FC, symBinAddr: 0x5A7E4, symSize: 0x7C }
  - { offset: 0x23B95E, size: 0x8, addend: 0x0, symName: __ZN17crossbeam_channel7context7Context6unpark17hd34319005368cb16E, symObjAddr: 0x278, symBinAddr: 0x5A860, symSize: 0x28 }
  - { offset: 0x23B99E, size: 0x8, addend: 0x0, symName: '__ZN87_$LT$crossbeam_channel..counter..Sender$LT$C$GT$$u20$as$u20$core..ops..deref..Deref$GT$5deref17h16bffb54f53c265fE', symObjAddr: 0x0, symBinAddr: 0x5A8AC, symSize: 0x28 }
  - { offset: 0x23C633, size: 0x8, addend: 0x0, symName: '__ZN87_$LT$crossbeam_channel..counter..Sender$LT$C$GT$$u20$as$u20$core..ops..deref..Deref$GT$5deref17h16bffb54f53c265fE', symObjAddr: 0x0, symBinAddr: 0x5A8AC, symSize: 0x28 }
  - { offset: 0x23C668, size: 0x8, addend: 0x0, symName: '__ZN87_$LT$crossbeam_channel..counter..Sender$LT$C$GT$$u20$as$u20$core..ops..deref..Deref$GT$5deref17h1aac91216e342da8E', symObjAddr: 0x28, symBinAddr: 0x5A8D4, symSize: 0x24 }
  - { offset: 0x23C69D, size: 0x8, addend: 0x0, symName: '__ZN87_$LT$crossbeam_channel..counter..Sender$LT$C$GT$$u20$as$u20$core..ops..deref..Deref$GT$5deref17h5eb97e74819be727E', symObjAddr: 0x4C, symBinAddr: 0x5A8F8, symSize: 0x24 }
  - { offset: 0x23D403, size: 0x8, addend: 0x0, symName: '__ZN4core3ptr8non_null16NonNull$LT$T$GT$13new_unchecked18precondition_check17hf0b678f85a8cf2f4E', symObjAddr: 0x0, symBinAddr: 0x5A91C, symSize: 0xA4 }
  - { offset: 0x23D685, size: 0x8, addend: 0x0, symName: '__ZN4core3ptr8non_null16NonNull$LT$T$GT$13new_unchecked18precondition_check17hf0b678f85a8cf2f4E', symObjAddr: 0x0, symBinAddr: 0x5A91C, symSize: 0xA4 }
  - { offset: 0x23D932, size: 0x8, addend: 0x0, symName: '__ZN80_$LT$rusqlite..types..value..Value$u20$as$u20$core..convert..From$LT$i64$GT$$GT$4from17h65f71e3b3127a808E', symObjAddr: 0x0, symBinAddr: 0x5A9C0, symSize: 0x20 }
  - { offset: 0x23D953, size: 0x8, addend: 0x0, symName: '__ZN80_$LT$rusqlite..types..value..Value$u20$as$u20$core..convert..From$LT$i64$GT$$GT$4from17h65f71e3b3127a808E', symObjAddr: 0x0, symBinAddr: 0x5A9C0, symSize: 0x20 }
  - { offset: 0x23DBF9, size: 0x8, addend: 0x0, symName: __ZN17crossbeam_channel3err16SendTimeoutError12Disconnected17he8be2fce3d6718a0E, symObjAddr: 0x0, symBinAddr: 0x5A9E0, symSize: 0x18 }
  - { offset: 0x23E0D0, size: 0x8, addend: 0x0, symName: __ZN17crossbeam_channel3err16SendTimeoutError12Disconnected17he8be2fce3d6718a0E, symObjAddr: 0x0, symBinAddr: 0x5A9E0, symSize: 0x18 }
  - { offset: 0x23EA70, size: 0x8, addend: 0x0, symName: '__ZN10serde_core2de5impls87_$LT$impl$u20$serde_core..de..Deserialize$u20$for$u20$core..option..Option$LT$T$GT$$GT$11deserialize17h46af9d3dbb803b89E', symObjAddr: 0x0, symBinAddr: 0x5A9F8, symSize: 0x24 }
  - { offset: 0x23F023, size: 0x8, addend: 0x0, symName: '__ZN84_$LT$core..option..Option$LT$T$GT$$u20$as$u20$rusqlite..types..from_sql..FromSql$GT$13column_result17hab060e63cf58c3caE', symObjAddr: 0x102C, symBinAddr: 0x5BA24, symSize: 0x84 }
  - { offset: 0x23FCCE, size: 0x8, addend: 0x0, symName: __ZN4core4iter6traits8iterator8Iterator4fold17ha395c684fd766734E, symObjAddr: 0x234, symBinAddr: 0x5AC2C, symSize: 0xE4 }
  - { offset: 0x23FDAD, size: 0x8, addend: 0x0, symName: __ZN4core4iter6traits8iterator8Iterator8for_each17h8fcd6cd6749fc3eaE, symObjAddr: 0x318, symBinAddr: 0x5AD10, symSize: 0x3C }
  - { offset: 0x24172A, size: 0x8, addend: 0x0, symName: __ZN4core6option6Option4Some17h80828531b223de8aE, symObjAddr: 0xE7C, symBinAddr: 0x5B874, symSize: 0x18 }
  - { offset: 0x24175D, size: 0x8, addend: 0x0, symName: __ZN4core6option6Option4Some17h85fc56a950d3cf56E, symObjAddr: 0xE94, symBinAddr: 0x5B88C, symSize: 0x18 }
  - { offset: 0x241790, size: 0x8, addend: 0x0, symName: __ZN4core6option6Option4Some17hf7e4a97ac2c2a356E, symObjAddr: 0xEAC, symBinAddr: 0x5B8A4, symSize: 0x14 }
  - { offset: 0x2417CA, size: 0x8, addend: 0x0, symName: '__ZN68_$LT$core..option..Option$LT$T$GT$$u20$as$u20$core..clone..Clone$GT$5clone17h06819e2ed7a81718E', symObjAddr: 0xEC0, symBinAddr: 0x5B8B8, symSize: 0x70 }
  - { offset: 0x24181F, size: 0x8, addend: 0x0, symName: '__ZN68_$LT$core..option..Option$LT$T$GT$$u20$as$u20$core..clone..Clone$GT$5clone17h61a839bf5d4ba390E', symObjAddr: 0xF30, symBinAddr: 0x5B928, symSize: 0x84 }
  - { offset: 0x241874, size: 0x8, addend: 0x0, symName: '__ZN68_$LT$core..option..Option$LT$T$GT$$u20$as$u20$core..clone..Clone$GT$5clone17hf17ee3d5fb380055E', symObjAddr: 0xFB4, symBinAddr: 0x5B9AC, symSize: 0x78 }
  - { offset: 0x24190B, size: 0x8, addend: 0x0, symName: '__ZN90_$LT$core..option..IntoIter$LT$A$GT$$u20$as$u20$core..iter..traits..iterator..Iterator$GT$4next17he557eb141acb9d17E', symObjAddr: 0x10B0, symBinAddr: 0x5BAA8, symSize: 0x3C }
  - { offset: 0x241983, size: 0x8, addend: 0x0, symName: '__ZN90_$LT$core..option..IntoIter$LT$A$GT$$u20$as$u20$core..iter..traits..iterator..Iterator$GT$9size_hint17hc4b90efe67004ec2E', symObjAddr: 0x10EC, symBinAddr: 0x5BAE4, symSize: 0x40 }
  - { offset: 0x241A74, size: 0x8, addend: 0x0, symName: '__ZN91_$LT$core..option..Option$LT$T$GT$$u20$as$u20$core..iter..traits..collect..IntoIterator$GT$9into_iter17hac2b1c7a768f193aE', symObjAddr: 0x112C, symBinAddr: 0x5BB24, symSize: 0x14 }
  - { offset: 0x243093, size: 0x8, addend: 0x0, symName: '__ZN10serde_core2de5impls87_$LT$impl$u20$serde_core..de..Deserialize$u20$for$u20$core..option..Option$LT$T$GT$$GT$11deserialize17h46af9d3dbb803b89E', symObjAddr: 0x0, symBinAddr: 0x5A9F8, symSize: 0x24 }
  - { offset: 0x2430D3, size: 0x8, addend: 0x0, symName: '__ZN10serde_core2de5impls87_$LT$impl$u20$serde_core..de..Deserialize$u20$for$u20$core..option..Option$LT$T$GT$$GT$11deserialize17h477e67450e56a7bfE', symObjAddr: 0x24, symBinAddr: 0x5AA1C, symSize: 0x24 }
  - { offset: 0x243113, size: 0x8, addend: 0x0, symName: '__ZN10serde_core2de5impls87_$LT$impl$u20$serde_core..de..Deserialize$u20$for$u20$core..option..Option$LT$T$GT$$GT$11deserialize17h5e79957a7cfb8b7eE', symObjAddr: 0x48, symBinAddr: 0x5AA40, symSize: 0x28 }
  - { offset: 0x243153, size: 0x8, addend: 0x0, symName: '__ZN10serde_core2de5impls87_$LT$impl$u20$serde_core..de..Deserialize$u20$for$u20$core..option..Option$LT$T$GT$$GT$11deserialize17h6e67c0280486368cE', symObjAddr: 0x70, symBinAddr: 0x5AA68, symSize: 0x24 }
  - { offset: 0x243193, size: 0x8, addend: 0x0, symName: '__ZN10serde_core2de5impls87_$LT$impl$u20$serde_core..de..Deserialize$u20$for$u20$core..option..Option$LT$T$GT$$GT$11deserialize17ha69706220edbb5fbE', symObjAddr: 0x94, symBinAddr: 0x5AA8C, symSize: 0x28 }
  - { offset: 0x2431D3, size: 0x8, addend: 0x0, symName: '__ZN10serde_core2de5impls87_$LT$impl$u20$serde_core..de..Deserialize$u20$for$u20$core..option..Option$LT$T$GT$$GT$11deserialize17hc281a44cdf6fc72eE', symObjAddr: 0xBC, symBinAddr: 0x5AAB4, symSize: 0x28 }
  - { offset: 0x243225, size: 0x8, addend: 0x0, symName: '__ZN10serde_core3ser5impls86_$LT$impl$u20$serde_core..ser..Serialize$u20$for$u20$core..option..Option$LT$T$GT$$GT$9serialize17h536215b4b0dfc139E', symObjAddr: 0xE4, symBinAddr: 0x5AADC, symSize: 0x70 }
  - { offset: 0x24328E, size: 0x8, addend: 0x0, symName: '__ZN10serde_core3ser5impls86_$LT$impl$u20$serde_core..ser..Serialize$u20$for$u20$core..option..Option$LT$T$GT$$GT$9serialize17h553efbf608c26b8bE', symObjAddr: 0x154, symBinAddr: 0x5AB4C, symSize: 0x6C }
  - { offset: 0x2432F7, size: 0x8, addend: 0x0, symName: '__ZN10serde_core3ser5impls86_$LT$impl$u20$serde_core..ser..Serialize$u20$for$u20$core..option..Option$LT$T$GT$$GT$9serialize17h66d77e25ddaab486E', symObjAddr: 0x1C0, symBinAddr: 0x5ABB8, symSize: 0x74 }
  - { offset: 0x243DEB, size: 0x8, addend: 0x0, symName: '__ZN4core6option15Option$LT$T$GT$10ok_or_else17h874603508c032184E', symObjAddr: 0x354, symBinAddr: 0x5AD4C, symSize: 0x88 }
  - { offset: 0x243E9E, size: 0x8, addend: 0x0, symName: '__ZN4core6option15Option$LT$T$GT$10ok_or_else17he53544b67e3ca6afE', symObjAddr: 0x3DC, symBinAddr: 0x5ADD4, symSize: 0x88 }
  - { offset: 0x243F09, size: 0x8, addend: 0x0, symName: '__ZN4core6option15Option$LT$T$GT$10ok_or_else17hec2e3775575d1f41E', symObjAddr: 0x464, symBinAddr: 0x5AE5C, symSize: 0x94 }
  - { offset: 0x2444C2, size: 0x8, addend: 0x0, symName: '__ZN4core6option15Option$LT$T$GT$3map17h284052539af120bcE', symObjAddr: 0x4F8, symBinAddr: 0x5AEF0, symSize: 0xB8 }
  - { offset: 0x245658, size: 0x8, addend: 0x0, symName: '__ZN4core6option15Option$LT$T$GT$4take17h34570045ec4d4ccbE', symObjAddr: 0x5B0, symBinAddr: 0x5AFA8, symSize: 0x6C }
  - { offset: 0x2456AF, size: 0x8, addend: 0x0, symName: '__ZN4core6option15Option$LT$T$GT$4take17h4718cdd39c1d68c2E', symObjAddr: 0x61C, symBinAddr: 0x5B014, symSize: 0x60 }
  - { offset: 0x24572D, size: 0x8, addend: 0x0, symName: '__ZN4core6option15Option$LT$T$GT$4take17h47e7b5a07ba7c312E', symObjAddr: 0x67C, symBinAddr: 0x5B074, symSize: 0x3C }
  - { offset: 0x245791, size: 0x8, addend: 0x0, symName: '__ZN4core6option15Option$LT$T$GT$4take17h4f1015b9e070a4f2E', symObjAddr: 0x6B8, symBinAddr: 0x5B0B0, symSize: 0x28 }
  - { offset: 0x2457E8, size: 0x8, addend: 0x0, symName: '__ZN4core6option15Option$LT$T$GT$4take17ha20c2858a5dd4d8fE', symObjAddr: 0x6E0, symBinAddr: 0x5B0D8, symSize: 0x3C }
  - { offset: 0x24583F, size: 0x8, addend: 0x0, symName: '__ZN4core6option15Option$LT$T$GT$4take17ha2eda05ad6a0c0c9E', symObjAddr: 0x71C, symBinAddr: 0x5B114, symSize: 0x28 }
  - { offset: 0x2458A3, size: 0x8, addend: 0x0, symName: '__ZN4core6option15Option$LT$T$GT$4take17ha5d6bb13e9e9c5b9E', symObjAddr: 0x744, symBinAddr: 0x5B13C, symSize: 0x28 }
  - { offset: 0x245907, size: 0x8, addend: 0x0, symName: '__ZN4core6option15Option$LT$T$GT$4take17ha927803f74ae3454E', symObjAddr: 0x76C, symBinAddr: 0x5B164, symSize: 0x28 }
  - { offset: 0x24595E, size: 0x8, addend: 0x0, symName: '__ZN4core6option15Option$LT$T$GT$4take17hb7f5ad93575a1486E', symObjAddr: 0x794, symBinAddr: 0x5B18C, symSize: 0x60 }
  - { offset: 0x2459CF, size: 0x8, addend: 0x0, symName: '__ZN4core6option15Option$LT$T$GT$4take17hd244d712ec3ee461E', symObjAddr: 0x7F4, symBinAddr: 0x5B1EC, symSize: 0x60 }
  - { offset: 0x245A26, size: 0x8, addend: 0x0, symName: '__ZN4core6option15Option$LT$T$GT$4take17hd2fedfa256731b91E', symObjAddr: 0x854, symBinAddr: 0x5B24C, symSize: 0x60 }
  - { offset: 0x245A8A, size: 0x8, addend: 0x0, symName: '__ZN4core6option15Option$LT$T$GT$4take17hde071255c5da09d1E', symObjAddr: 0x8B4, symBinAddr: 0x5B2AC, symSize: 0x28 }
  - { offset: 0x245AE1, size: 0x8, addend: 0x0, symName: '__ZN4core6option15Option$LT$T$GT$6as_ref17h37b93757e79de02fE', symObjAddr: 0x8DC, symBinAddr: 0x5B2D4, symSize: 0x4C }
  - { offset: 0x245B45, size: 0x8, addend: 0x0, symName: '__ZN4core6option15Option$LT$T$GT$6as_ref17h841daf56719dcf90E', symObjAddr: 0x928, symBinAddr: 0x5B320, symSize: 0x4C }
  - { offset: 0x245BA9, size: 0x8, addend: 0x0, symName: '__ZN4core6option15Option$LT$T$GT$6as_ref17h912981d7aadff712E', symObjAddr: 0x974, symBinAddr: 0x5B36C, symSize: 0x4C }
  - { offset: 0x245C0D, size: 0x8, addend: 0x0, symName: '__ZN4core6option15Option$LT$T$GT$6as_ref17hb93f4a79b3dea47aE', symObjAddr: 0x9C0, symBinAddr: 0x5B3B8, symSize: 0x4C }
  - { offset: 0x245C71, size: 0x8, addend: 0x0, symName: '__ZN4core6option15Option$LT$T$GT$6as_ref17hd9b32789bd988c2dE', symObjAddr: 0xA0C, symBinAddr: 0x5B404, symSize: 0x4C }
  - { offset: 0x245D1E, size: 0x8, addend: 0x0, symName: '__ZN4core6option15Option$LT$T$GT$6expect17habeac1f141642566E', symObjAddr: 0xA58, symBinAddr: 0x5B450, symSize: 0x5C }
  - { offset: 0x245D82, size: 0x8, addend: 0x0, symName: '__ZN4core6option15Option$LT$T$GT$7is_none17h1f7a4c5773c05c86E', symObjAddr: 0xAB4, symBinAddr: 0x5B4AC, symSize: 0x2C }
  - { offset: 0x245E23, size: 0x8, addend: 0x0, symName: '__ZN4core6option15Option$LT$T$GT$7is_none17h5bffdceb53e5f307E', symObjAddr: 0xAE0, symBinAddr: 0x5B4D8, symSize: 0x28 }
  - { offset: 0x245E96, size: 0x8, addend: 0x0, symName: '__ZN4core6option15Option$LT$T$GT$7is_none17h5c23efa04a13d304E', symObjAddr: 0xB08, symBinAddr: 0x5B500, symSize: 0x28 }
  - { offset: 0x245F09, size: 0x8, addend: 0x0, symName: '__ZN4core6option15Option$LT$T$GT$7is_none17h9d03d6bf887641d1E', symObjAddr: 0xB30, symBinAddr: 0x5B528, symSize: 0x30 }
  - { offset: 0x245F89, size: 0x8, addend: 0x0, symName: '__ZN4core6option15Option$LT$T$GT$7is_none17hb7200a7ab09fe878E', symObjAddr: 0xB60, symBinAddr: 0x5B558, symSize: 0x28 }
  - { offset: 0x245FFC, size: 0x8, addend: 0x0, symName: '__ZN4core6option15Option$LT$T$GT$7is_none17he133ef4133772c6eE', symObjAddr: 0xB88, symBinAddr: 0x5B580, symSize: 0x28 }
  - { offset: 0x24606F, size: 0x8, addend: 0x0, symName: '__ZN4core6option15Option$LT$T$GT$7is_none17hfe5da2aab180e3f9E', symObjAddr: 0xBB0, symBinAddr: 0x5B5A8, symSize: 0x28 }
  - { offset: 0x2460C6, size: 0x8, addend: 0x0, symName: '__ZN4core6option15Option$LT$T$GT$7is_some17h000c2c868a4f845aE', symObjAddr: 0xBD8, symBinAddr: 0x5B5D0, symSize: 0x28 }
  - { offset: 0x2460FF, size: 0x8, addend: 0x0, symName: '__ZN4core6option15Option$LT$T$GT$7is_some17h08aec5ab79704716E', symObjAddr: 0xC00, symBinAddr: 0x5B5F8, symSize: 0x28 }
  - { offset: 0x246138, size: 0x8, addend: 0x0, symName: '__ZN4core6option15Option$LT$T$GT$7is_some17h1fe44c85a82469f2E', symObjAddr: 0xC28, symBinAddr: 0x5B620, symSize: 0x2C }
  - { offset: 0x246171, size: 0x8, addend: 0x0, symName: '__ZN4core6option15Option$LT$T$GT$7is_some17h3a038aa348af66a1E', symObjAddr: 0xC54, symBinAddr: 0x5B64C, symSize: 0x28 }
  - { offset: 0x2461AA, size: 0x8, addend: 0x0, symName: '__ZN4core6option15Option$LT$T$GT$7is_some17h9c1cceafa2deeacfE', symObjAddr: 0xC7C, symBinAddr: 0x5B674, symSize: 0x28 }
  - { offset: 0x2461E3, size: 0x8, addend: 0x0, symName: '__ZN4core6option15Option$LT$T$GT$7is_some17h9ebcfe4119f8b2ecE', symObjAddr: 0xCA4, symBinAddr: 0x5B69C, symSize: 0x20 }
  - { offset: 0x24621C, size: 0x8, addend: 0x0, symName: '__ZN4core6option15Option$LT$T$GT$7is_some17haae48584d5042fddE', symObjAddr: 0xCC4, symBinAddr: 0x5B6BC, symSize: 0x2C }
  - { offset: 0x246255, size: 0x8, addend: 0x0, symName: '__ZN4core6option15Option$LT$T$GT$7is_some17hb0b724fee0a3399cE', symObjAddr: 0xCF0, symBinAddr: 0x5B6E8, symSize: 0x24 }
  - { offset: 0x24628E, size: 0x8, addend: 0x0, symName: '__ZN4core6option15Option$LT$T$GT$7is_some17hc685d6cb96df62d9E', symObjAddr: 0xD14, symBinAddr: 0x5B70C, symSize: 0x2C }
  - { offset: 0x2462C7, size: 0x8, addend: 0x0, symName: '__ZN4core6option15Option$LT$T$GT$7is_some17he15afd52c2ac3154E', symObjAddr: 0xD40, symBinAddr: 0x5B738, symSize: 0x2C }
  - { offset: 0x246300, size: 0x8, addend: 0x0, symName: '__ZN4core6option15Option$LT$T$GT$7is_some17hf78607bcc64eac12E', symObjAddr: 0xD6C, symBinAddr: 0x5B764, symSize: 0x28 }
  - { offset: 0x246339, size: 0x8, addend: 0x0, symName: '__ZN4core6option19Option$LT$$RF$T$GT$6cloned17h6f89696bcfa92b76E', symObjAddr: 0xD94, symBinAddr: 0x5B78C, symSize: 0x78 }
  - { offset: 0x246390, size: 0x8, addend: 0x0, symName: '__ZN4core6option19Option$LT$$RF$T$GT$6cloned17hed58be5bd8e83888E', symObjAddr: 0xE0C, symBinAddr: 0x5B804, symSize: 0x70 }
  - { offset: 0x246518, size: 0x8, addend: 0x0, symName: '__ZN45_$LT$T$u20$as$u20$alloc..string..ToString$GT$9to_string17h0766f7249179f639E', symObjAddr: 0x0, symBinAddr: 0x5BB38, symSize: 0x24 }
  - { offset: 0x246567, size: 0x8, addend: 0x0, symName: '__ZN45_$LT$T$u20$as$u20$alloc..string..ToString$GT$9to_string17h0766f7249179f639E', symObjAddr: 0x0, symBinAddr: 0x5BB38, symSize: 0x24 }
  - { offset: 0x2465A4, size: 0x8, addend: 0x0, symName: '__ZN49_$LT$T$u20$as$u20$alloc..string..SpecToString$GT$14spec_to_string17h9dca7fc7ab4c2876E', symObjAddr: 0x24, symBinAddr: 0x5BB5C, symSize: 0xF4 }
  - { offset: 0x246B91, size: 0x8, addend: 0x0, symName: '__ZN6chrono6format10formatting46_$LT$impl$u20$chrono..format..OffsetFormat$GT$6format17h21a17eb18b52e79bE', symObjAddr: 0x118, symBinAddr: 0x5BC50, symSize: 0x6C0 }
  - { offset: 0x246E31, size: 0x8, addend: 0x0, symName: '__ZN17crossbeam_channel7channel15Sender$LT$T$GT$4send17ha0cca484be34e388E', symObjAddr: 0x0, symBinAddr: 0x5C310, symSize: 0x1B0 }
  - { offset: 0x247C27, size: 0x8, addend: 0x0, symName: '__ZN17crossbeam_channel7channel15Sender$LT$T$GT$4send28_$u7b$$u7b$closure$u7d$$u7d$17he43c779b66d4380aE', symObjAddr: 0x1B0, symBinAddr: 0x5C4C0, symSize: 0xBC }
  - { offset: 0x2489FA, size: 0x8, addend: 0x0, symName: '__ZN17crossbeam_channel7channel15Sender$LT$T$GT$4send17ha0cca484be34e388E', symObjAddr: 0x0, symBinAddr: 0x5C310, symSize: 0x1B0 }
  - { offset: 0x248ABD, size: 0x8, addend: 0x0, symName: __ZN4core4sync6atomic10AtomicBool3new17hac64fd187445fb4aE, symObjAddr: 0x0, symBinAddr: 0x5C57C, symSize: 0x18 }
  - { offset: 0x248CC3, size: 0x8, addend: 0x0, symName: __ZN4core4sync6atomic5fence17h183c637039383f8cE, symObjAddr: 0x320, symBinAddr: 0x5C89C, symSize: 0xDC }
  - { offset: 0x2490FB, size: 0x8, addend: 0x0, symName: __ZN4core4sync6atomic10AtomicBool3new17hac64fd187445fb4aE, symObjAddr: 0x0, symBinAddr: 0x5C57C, symSize: 0x18 }
  - { offset: 0x24912B, size: 0x8, addend: 0x0, symName: __ZN4core4sync6atomic10AtomicBool4load17hc953a0de9a4522c0E, symObjAddr: 0x18, symBinAddr: 0x5C594, symSize: 0x38 }
  - { offset: 0x24915D, size: 0x8, addend: 0x0, symName: __ZN4core4sync6atomic10AtomicBool5store17hf7eefaba598f0176E, symObjAddr: 0x50, symBinAddr: 0x5C5CC, symSize: 0x34 }
  - { offset: 0x2491B9, size: 0x8, addend: 0x0, symName: __ZN4core4sync6atomic11AtomicUsize16compare_exchange17hd0f7278471c0933eE, symObjAddr: 0x84, symBinAddr: 0x5C600, symSize: 0x3C }
  - { offset: 0x249218, size: 0x8, addend: 0x0, symName: __ZN4core4sync6atomic11AtomicUsize21compare_exchange_weak17h42a33adf051564a5E, symObjAddr: 0xC0, symBinAddr: 0x5C63C, symSize: 0x3C }
  - { offset: 0x249277, size: 0x8, addend: 0x0, symName: __ZN4core4sync6atomic11AtomicUsize4load17h5466e4b61b9740bfE, symObjAddr: 0xFC, symBinAddr: 0x5C678, symSize: 0x30 }
  - { offset: 0x2492A9, size: 0x8, addend: 0x0, symName: __ZN4core4sync6atomic11AtomicUsize5store17h16a755f8bc70de50E, symObjAddr: 0x12C, symBinAddr: 0x5C6A8, symSize: 0x34 }
  - { offset: 0x249320, size: 0x8, addend: 0x0, symName: __ZN4core4sync6atomic11AtomicUsize8fetch_or17h93c9ede9903d5620E, symObjAddr: 0x160, symBinAddr: 0x5C6DC, symSize: 0xE0 }
  - { offset: 0x2493CB, size: 0x8, addend: 0x0, symName: __ZN4core4sync6atomic11AtomicUsize9fetch_add17h5b3bba6b9f02906cE, symObjAddr: 0x240, symBinAddr: 0x5C7BC, symSize: 0xE0 }
  - { offset: 0x2495E9, size: 0x8, addend: 0x0, symName: '__ZN63_$LT$serde_json..value..Value$u20$as$u20$core..clone..Clone$GT$5clone17h11fc0ca5e085ceddE', symObjAddr: 0x0, symBinAddr: 0x5C978, symSize: 0x198 }
  - { offset: 0x249605, size: 0x8, addend: 0x0, symName: '__ZN63_$LT$serde_json..value..Value$u20$as$u20$core..clone..Clone$GT$5clone17h11fc0ca5e085ceddE', symObjAddr: 0x0, symBinAddr: 0x5C978, symSize: 0x198 }
  - { offset: 0x249F65, size: 0x8, addend: 0x0, symName: '__ZN50_$LT$T$u20$as$u20$core..convert..Into$LT$U$GT$$GT$4into17h9635c1f7825364a4E', symObjAddr: 0x0, symBinAddr: 0x5CB10, symSize: 0x28 }
  - { offset: 0x249F81, size: 0x8, addend: 0x0, symName: '__ZN50_$LT$T$u20$as$u20$core..convert..Into$LT$U$GT$$GT$4into17h9635c1f7825364a4E', symObjAddr: 0x0, symBinAddr: 0x5CB10, symSize: 0x28 }
  - { offset: 0x249FC1, size: 0x8, addend: 0x0, symName: '__ZN50_$LT$T$u20$as$u20$core..convert..Into$LT$U$GT$$GT$4into17hdffadb28ae261371E', symObjAddr: 0x28, symBinAddr: 0x5CB38, symSize: 0x20 }
  - { offset: 0x24A007, size: 0x8, addend: 0x0, symName: '__ZN53_$LT$T$u20$as$u20$core..convert..TryFrom$LT$U$GT$$GT$8try_from17h365a88234019c11fE', symObjAddr: 0x48, symBinAddr: 0x5CB58, symSize: 0x30 }
  - { offset: 0x24A452, size: 0x8, addend: 0x0, symName: '__ZN15effect_log_core8executor16EffectLogBuilder5build28_$u7b$$u7b$closure$u7d$$u7d$17h243194aae7deb17aE', symObjAddr: 0x0, symBinAddr: 0x5CB88, symSize: 0x5C }
  - { offset: 0x24A473, size: 0x8, addend: 0x0, symName: '__ZN15effect_log_core8executor16EffectLogBuilder5build28_$u7b$$u7b$closure$u7d$$u7d$17h243194aae7deb17aE', symObjAddr: 0x0, symBinAddr: 0x5CB88, symSize: 0x5C }
  - { offset: 0x24A49B, size: 0x8, addend: 0x0, symName: '__ZN15effect_log_core8executor16EffectLogBuilder5build28_$u7b$$u7b$closure$u7d$$u7d$17h9fcba22a96b35c1dE', symObjAddr: 0x5C, symBinAddr: 0x5CBE4, symSize: 0x5C }
  - { offset: 0x24A91C, size: 0x8, addend: 0x0, symName: '__ZN17crossbeam_channel7flavors4zero15Packet$LT$T$GT$16message_on_stack17ha29427ad51d31e9dE', symObjAddr: 0x0, symBinAddr: 0x5CC40, symSize: 0xE0 }
  - { offset: 0x24ACEF, size: 0x8, addend: 0x0, symName: '__ZN17crossbeam_channel7flavors4zero16Channel$LT$T$GT$4send28_$u7b$$u7b$closure$u7d$$u7d$17h892d9ec355046017E', symObjAddr: 0x46C, symBinAddr: 0x5D0AC, symSize: 0x65C }
  - { offset: 0x24C988, size: 0x8, addend: 0x0, symName: '__ZN17crossbeam_channel7flavors4zero15Packet$LT$T$GT$16message_on_stack17ha29427ad51d31e9dE', symObjAddr: 0x0, symBinAddr: 0x5CC40, symSize: 0xE0 }
  - { offset: 0x24CA7E, size: 0x8, addend: 0x0, symName: '__ZN17crossbeam_channel7flavors4zero16Channel$LT$T$GT$4send17h30bf306d8ee96e17E', symObjAddr: 0xE0, symBinAddr: 0x5CD20, symSize: 0x38C }
  - { offset: 0x24CBF5, size: 0x8, addend: 0x0, symName: '__ZN17crossbeam_channel7flavors4zero16Channel$LT$T$GT$5write17h6048881076709528E', symObjAddr: 0xAC8, symBinAddr: 0x5D708, symSize: 0x190 }
  - { offset: 0x24CCEB, size: 0x8, addend: 0x0, symName: __ZN4zmij6Buffer3new17hab14c24553fce3faE, symObjAddr: 0x0, symBinAddr: 0x5D898, symSize: 0x38 }
  - { offset: 0x24CDCC, size: 0x8, addend: 0x0, symName: __ZN4zmij6Buffer3new17hab14c24553fce3faE, symObjAddr: 0x0, symBinAddr: 0x5D898, symSize: 0x38 }
  - { offset: 0x24CE31, size: 0x8, addend: 0x0, symName: '__ZN8rusqlite5types9value_ref8ValueRef6as_str28_$u7b$$u7b$closure$u7d$$u7d$17h10db3d6cd63f8f95E', symObjAddr: 0x0, symBinAddr: 0x5D8D0, symSize: 0x7C }
  - { offset: 0x24CF4D, size: 0x8, addend: 0x0, symName: '__ZN8rusqlite5types9value_ref8ValueRef6as_str28_$u7b$$u7b$closure$u7d$$u7d$17h10db3d6cd63f8f95E', symObjAddr: 0x0, symBinAddr: 0x5D8D0, symSize: 0x7C }
  - { offset: 0x24D614, size: 0x8, addend: 0x0, symName: '__ZN47_$LT$uuid..Uuid$u20$as$u20$core..hash..Hash$GT$4hash17hf08d8ebfbdc88cb2E', symObjAddr: 0x30, symBinAddr: 0x5D94C, symSize: 0x40 }
  - { offset: 0x24D666, size: 0x8, addend: 0x0, symName: '__ZN4uuid8external13serde_support67_$LT$impl$u20$serde_core..ser..Serialize$u20$for$u20$uuid..Uuid$GT$9serialize17h243454320c35d489E', symObjAddr: 0x70, symBinAddr: 0x5D98C, symSize: 0x1A0 }
  - { offset: 0x24D6B0, size: 0x8, addend: 0x0, symName: '__ZN4uuid8external13serde_support68_$LT$impl$u20$serde_core..de..Deserialize$u20$for$u20$uuid..Uuid$GT$11deserialize17h268d022abcc28047E', symObjAddr: 0x210, symBinAddr: 0x5DB2C, symSize: 0xB4 }
  - { offset: 0x24DCA0, size: 0x8, addend: 0x0, symName: __ZN4core5slice4sort6stable5drift10create_run17h89ec4075568368d9E, symObjAddr: 0x0, symBinAddr: 0x5DBE0, symSize: 0x3A4 }
  - { offset: 0x24DF41, size: 0x8, addend: 0x0, symName: __ZN4core5slice4sort6stable5drift10create_run17h89ec4075568368d9E, symObjAddr: 0x0, symBinAddr: 0x5DBE0, symSize: 0x3A4 }
  - { offset: 0x24E369, size: 0x8, addend: 0x0, symName: __ZN4core5slice4sort6stable5drift16stable_quicksort17h1e2502b18f10f323E, symObjAddr: 0x3A4, symBinAddr: 0x5DF84, symSize: 0xB4 }
  - { offset: 0x24E586, size: 0x8, addend: 0x0, symName: __ZN4core5slice4sort6stable5drift4sort17h33e2f0299d0bcf19E, symObjAddr: 0x458, symBinAddr: 0x5E038, symSize: 0x528 }
  - { offset: 0x250421, size: 0x8, addend: 0x0, symName: '__ZN4core3ops8function5impls80_$LT$impl$u20$core..ops..function..FnOnce$LT$A$GT$$u20$for$u20$$RF$mut$u20$F$GT$9call_once17h459133fc63419431E', symObjAddr: 0x0, symBinAddr: 0x5E560, symSize: 0x2C }
  - { offset: 0x251202, size: 0x8, addend: 0x0, symName: '__ZN4core3ops8function5impls80_$LT$impl$u20$core..ops..function..FnOnce$LT$A$GT$$u20$for$u20$$RF$mut$u20$F$GT$9call_once17h459133fc63419431E', symObjAddr: 0x0, symBinAddr: 0x5E560, symSize: 0x2C }
  - { offset: 0x2540B2, size: 0x8, addend: 0x0, symName: '__ZN103_$LT$effect_log_core..storage..sqlite..SqliteStore$u20$as$u20$effect_log_core..storage..EffectStore$GT$12write_intent28_$u7b$$u7b$closure$u7d$$u7d$28_$u7b$$u7b$closure$u7d$$u7d$17hcbaaa7798f60a2daE', symObjAddr: 0x460, symBinAddr: 0x5E9C0, symSize: 0x80 }
  - { offset: 0x2540E8, size: 0x8, addend: 0x0, symName: '__ZN103_$LT$effect_log_core..storage..sqlite..SqliteStore$u20$as$u20$effect_log_core..storage..EffectStore$GT$12write_intent28_$u7b$$u7b$closure$u7d$$u7d$28_$u7b$$u7b$closure$u7d$$u7d$17h5d8104587fe64baaE', symObjAddr: 0x4E0, symBinAddr: 0x5EA40, symSize: 0x170 }
  - { offset: 0x254182, size: 0x8, addend: 0x0, symName: '__ZN103_$LT$effect_log_core..storage..sqlite..SqliteStore$u20$as$u20$effect_log_core..storage..EffectStore$GT$12write_intent28_$u7b$$u7b$closure$u7d$$u7d$28_$u7b$$u7b$closure$u7d$$u7d$17h0b92ab1539afb2bfE', symObjAddr: 0x650, symBinAddr: 0x5EBB0, symSize: 0x78 }
  - { offset: 0x2541C8, size: 0x8, addend: 0x0, symName: '__ZN103_$LT$effect_log_core..storage..sqlite..SqliteStore$u20$as$u20$effect_log_core..storage..EffectStore$GT$12write_intent28_$u7b$$u7b$closure$u7d$$u7d$17he10dcf64fa6ca0c6E', symObjAddr: 0x2C, symBinAddr: 0x5E58C, symSize: 0x434 }
  - { offset: 0x254354, size: 0x8, addend: 0x0, symName: '__ZN103_$LT$effect_log_core..storage..sqlite..SqliteStore$u20$as$u20$effect_log_core..storage..EffectStore$GT$16write_completion28_$u7b$$u7b$closure$u7d$$u7d$28_$u7b$$u7b$closure$u7d$$u7d$17h4823167b28df5ce1E', symObjAddr: 0xA30, symBinAddr: 0x5EF90, symSize: 0x80 }
  - { offset: 0x25438A, size: 0x8, addend: 0x0, symName: '__ZN103_$LT$effect_log_core..storage..sqlite..SqliteStore$u20$as$u20$effect_log_core..storage..EffectStore$GT$16write_completion28_$u7b$$u7b$closure$u7d$$u7d$28_$u7b$$u7b$closure$u7d$$u7d$17h4fa9123967a7b3e8E', symObjAddr: 0xAB0, symBinAddr: 0x5F010, symSize: 0x130 }
  - { offset: 0x2543F4, size: 0x8, addend: 0x0, symName: '__ZN103_$LT$effect_log_core..storage..sqlite..SqliteStore$u20$as$u20$effect_log_core..storage..EffectStore$GT$16write_completion28_$u7b$$u7b$closure$u7d$$u7d$28_$u7b$$u7b$closure$u7d$$u7d$17h6f40166cd49202d2E', symObjAddr: 0xBE0, symBinAddr: 0x5F140, symSize: 0x78 }
  - { offset: 0x25443A, size: 0x8, addend: 0x0, symName: '__ZN103_$LT$effect_log_core..storage..sqlite..SqliteStore$u20$as$u20$effect_log_core..storage..EffectStore$GT$16write_completion28_$u7b$$u7b$closure$u7d$$u7d$17hc14df253ca34fd1dE', symObjAddr: 0x6C8, symBinAddr: 0x5EC28, symSize: 0x368 }
  - { offset: 0x254579, size: 0x8, addend: 0x0, symName: '__ZN103_$LT$effect_log_core..storage..sqlite..SqliteStore$u20$as$u20$effect_log_core..storage..EffectStore$GT$14load_execution28_$u7b$$u7b$closure$u7d$$u7d$28_$u7b$$u7b$closure$u7d$$u7d$17h03059db879b5842dE', symObjAddr: 0xF00, symBinAddr: 0x5F460, symSize: 0x8A8 }
  - { offset: 0x254785, size: 0x8, addend: 0x0, symName: '__ZN103_$LT$effect_log_core..storage..sqlite..SqliteStore$u20$as$u20$effect_log_core..storage..EffectStore$GT$14load_execution28_$u7b$$u7b$closure$u7d$$u7d$28_$u7b$$u7b$closure$u7d$$u7d$28_$u7b$$u7b$closure$u7d$$u7d$17hf5d5ad69c3a297e8E', symObjAddr: 0x17A8, symBinAddr: 0x5FD08, symSize: 0x1F0 }
  - { offset: 0x254848, size: 0x8, addend: 0x0, symName: '__ZN103_$LT$effect_log_core..storage..sqlite..SqliteStore$u20$as$u20$effect_log_core..storage..EffectStore$GT$14load_execution28_$u7b$$u7b$closure$u7d$$u7d$28_$u7b$$u7b$closure$u7d$$u7d$28_$u7b$$u7b$closure$u7d$$u7d$17h7e5dfd4fd711f26fE', symObjAddr: 0x1998, symBinAddr: 0x5FEF8, symSize: 0x90 }
  - { offset: 0x25489B, size: 0x8, addend: 0x0, symName: '__ZN103_$LT$effect_log_core..storage..sqlite..SqliteStore$u20$as$u20$effect_log_core..storage..EffectStore$GT$14load_execution28_$u7b$$u7b$closure$u7d$$u7d$28_$u7b$$u7b$closure$u7d$$u7d$28_$u7b$$u7b$closure$u7d$$u7d$17h4c85cb6cbcb9e127E', symObjAddr: 0x1A28, symBinAddr: 0x5FF88, symSize: 0x90 }
